
os.elf:     file format elf32-littleriscv


Disassembly of section .text:

80000000 <_start>:
	.global	_start

	.text
_start:
	# park harts with id != 0
	csrr	t0, mhartid		# read current hart id
80000000:	f14022f3          	csrr	t0,mhartid
	mv	tp, t0			# keep CPU's hartid in its tp for later usage.
80000004:	00028213          	mv	tp,t0
	bnez	t0, park		# if we're not on the hart 0
80000008:	00029c63          	bnez	t0,80000020 <park>
					# we park the hart
	# Setup stacks, the stack grows from bottom to top, so we put the
	# stack pointer to the very end of the stack range.
	slli	t0, t0, 10		# shift left the hart id by 1024
8000000c:	00a29293          	slli	t0,t0,0xa
	la	sp, stacks + STACK_SIZE	# set the initial stack pointer
80000010:	00000117          	auipc	sp,0x0
80000014:	41810113          	addi	sp,sp,1048 # 80000428 <stacks+0x400>
					# to the end of the first stack space
	add	sp, sp, t0		# move the current hart stack pointer
80000018:	00510133          	add	sp,sp,t0
					# to its place in the stack space

	j	start_kernel		# hart 0 jump to c
8000001c:	6bc0206f          	j	800026d8 <start_kernel>

80000020 <park>:

park:
	wfi
80000020:	10500073          	wfi
	j	park
80000024:	ffdff06f          	j	80000020 <park>

80000028 <stacks>:
	...

80000430 <trap_vector>:
# machine mode的interrupt和exceptions
.globl trap_vector

.align 4
trap_vector:
    csrrw t6, mscratch, t6 #swap t6 和 mscratch
80000430:	340f9ff3          	csrrw	t6,mscratch,t6
    reg_save t6 //把目前任務的ctx存進記憶體
80000434:	001fa023          	sw	ra,0(t6)
80000438:	002fa223          	sw	sp,4(t6)
8000043c:	003fa423          	sw	gp,8(t6)
80000440:	004fa623          	sw	tp,12(t6)
80000444:	005fa823          	sw	t0,16(t6)
80000448:	006faa23          	sw	t1,20(t6)
8000044c:	007fac23          	sw	t2,24(t6)
80000450:	008fae23          	sw	s0,28(t6)
80000454:	029fa023          	sw	s1,32(t6)
80000458:	02afa223          	sw	a0,36(t6)
8000045c:	02bfa423          	sw	a1,40(t6)
80000460:	02cfa623          	sw	a2,44(t6)
80000464:	02dfa823          	sw	a3,48(t6)
80000468:	02efaa23          	sw	a4,52(t6)
8000046c:	02ffac23          	sw	a5,56(t6)
80000470:	030fae23          	sw	a6,60(t6)
80000474:	051fa023          	sw	a7,64(t6)
80000478:	052fa223          	sw	s2,68(t6)
8000047c:	053fa423          	sw	s3,72(t6)
80000480:	054fa623          	sw	s4,76(t6)
80000484:	055fa823          	sw	s5,80(t6)
80000488:	056faa23          	sw	s6,84(t6)
8000048c:	057fac23          	sw	s7,88(t6)
80000490:	058fae23          	sw	s8,92(t6)
80000494:	079fa023          	sw	s9,96(t6)
80000498:	07afa223          	sw	s10,100(t6)
8000049c:	07bfa423          	sw	s11,104(t6)
800004a0:	07cfa623          	sw	t3,108(t6)
800004a4:	07dfa823          	sw	t4,112(t6)
800004a8:	07efaa23          	sw	t5,116(t6)

    mv t5, t6 #將t6複製到t5
800004ac:	000f8f13          	mv	t5,t6
    csrr t6, mscratch #復原原本t6
800004b0:	34002ff3          	csrr	t6,mscratch
    sw t6, 120(t5) #存完整的ctx
800004b4:	07ff2c23          	sw	t6,120(t5)
    //以上存完目前ctx進記憶體

    csrw mscratch, t5 #將context的pointer放回mscratch
800004b8:	340f1073          	csrw	mscratch,t5

    #呼叫trap_handler 在trap.c
    //exception 會卡住
    //interrupt 會pc+4
    csrr a0, mepc 
800004bc:	34102573          	csrr	a0,mepc
    csrr a1, mcause
800004c0:	342025f3          	csrr	a1,mcause
    call trap_handler
800004c4:	5a1000ef          	jal	ra,80001264 <trap_handler>

    # trap_handler will return the return address via a0.
    csrw mepc, a0
800004c8:	34151073          	csrw	mepc,a0

    # restore context(registers).
    csrr t6, mscratch
800004cc:	34002ff3          	csrr	t6,mscratch
    reg_restore t6
800004d0:	000fa083          	lw	ra,0(t6)
800004d4:	004fa103          	lw	sp,4(t6)
800004d8:	008fa183          	lw	gp,8(t6)
800004dc:	00cfa203          	lw	tp,12(t6)
800004e0:	010fa283          	lw	t0,16(t6)
800004e4:	014fa303          	lw	t1,20(t6)
800004e8:	018fa383          	lw	t2,24(t6)
800004ec:	01cfa403          	lw	s0,28(t6)
800004f0:	020fa483          	lw	s1,32(t6)
800004f4:	024fa503          	lw	a0,36(t6)
800004f8:	028fa583          	lw	a1,40(t6)
800004fc:	02cfa603          	lw	a2,44(t6)
80000500:	030fa683          	lw	a3,48(t6)
80000504:	034fa703          	lw	a4,52(t6)
80000508:	038fa783          	lw	a5,56(t6)
8000050c:	03cfa803          	lw	a6,60(t6)
80000510:	040fa883          	lw	a7,64(t6)
80000514:	044fa903          	lw	s2,68(t6)
80000518:	048fa983          	lw	s3,72(t6)
8000051c:	04cfaa03          	lw	s4,76(t6)
80000520:	050faa83          	lw	s5,80(t6)
80000524:	054fab03          	lw	s6,84(t6)
80000528:	058fab83          	lw	s7,88(t6)
8000052c:	05cfac03          	lw	s8,92(t6)
80000530:	060fac83          	lw	s9,96(t6)
80000534:	064fad03          	lw	s10,100(t6)
80000538:	068fad83          	lw	s11,104(t6)
8000053c:	06cfae03          	lw	t3,108(t6)
80000540:	070fae83          	lw	t4,112(t6)
80000544:	074faf03          	lw	t5,116(t6)
80000548:	078faf83          	lw	t6,120(t6)

    # return to whatever we were doing before trap.
    mret //退出中斷從mepc處開始執行
8000054c:	30200073          	mret

80000550 <heap_insert>:

.globl heap_insert
#對其4byte的邊界
.align 4
heap_insert:
    heap    a1,   a0
80000550:	00a5c00b          	heap	a1,a0
    ret
80000554:	00008067          	ret
80000558:	00000013          	nop
8000055c:	00000013          	nop

80000560 <switch_to>:

.globl switch_to
#對其4byte的邊界
.align 4
switch_to:    
    csrr a0, mheapctx
80000560:	7c302573          	csrr	a0,mheapctx
    heapdel
80000564:	0000500b          	heapdel
    csrw mscratch, a0
80000568:	34051073          	csrw	mscratch,a0
	csrw	mepc, a0
8000056c:	34151073          	csrw	mepc,a0
    ctxl a0
80000570:	0005100b          	ctxl	a0
    # csrw    mscratch,   a0  #將mscratch設置為a0(傳入的參數 ctx位置)，指向下一個task
    # mv t6,  a0  
    # reg_restore t6  //把下個任務ctx讀出

    ret//ret ra 位置 也就是下個任務
80000574:	00008067          	ret
80000578:	00000013          	nop
8000057c:	00000013          	nop

80000580 <switch_to2>:

.globl switch_to2
#對其4byte的邊界
.align 4
switch_to2:    
    csrw mscratch, a0
80000580:	34051073          	csrw	mscratch,a0
	csrw	mepc, a0
80000584:	34151073          	csrw	mepc,a0

    ctxl a0
80000588:	0005100b          	ctxl	a0

    ret//ret ra 位置 也就是下個任務
8000058c:	00008067          	ret

80000590 <switch_inst>:

.global switch_inst
.align 4
switch_inst :

	csrr a1, mscratch
80000590:	340025f3          	csrr	a1,mscratch
	ctx a0, a1
80000594:	00b5000b          	ctx	a0,a1

	ret
80000598:	00008067          	ret
8000059c:	00000013          	nop

800005a0 <ctx_handler>:

.globl ctx_handler
.align 4
ctx_handler:
	NOP
800005a0:	00000013          	nop
	j 	switch_reserve
800005a4:	01c0006f          	j	800005c0 <switch_reserve>
	j	switch_lw
800005a8:	01c0006f          	j	800005c4 <switch_lw>
	j 	switch_sw_ctxl
800005ac:	09c0006f          	j	80000648 <switch_sw_ctxl>
	j	switch_swlw
800005b0:	11c0006f          	j	800006cc <switch_swlw>
	j	switch_sw
800005b4:	2140006f          	j	800007c8 <switch_sw>
    j   heap_full
800005b8:	28c0006f          	j	80000844 <heap_full>
    j   heap_empty
800005bc:	29c0006f          	j	80000858 <heap_empty>

800005c0 <switch_reserve>:

.global switch_reserve
switch_reserve:
	ret
800005c0:	00008067          	ret

800005c4 <switch_lw>:
.global switch_lw
switch_lw:
	csrr t6 , mscratch
800005c4:	34002ff3          	csrr	t6,mscratch

	reg_restore t6
800005c8:	000fa083          	lw	ra,0(t6)
800005cc:	004fa103          	lw	sp,4(t6)
800005d0:	008fa183          	lw	gp,8(t6)
800005d4:	00cfa203          	lw	tp,12(t6)
800005d8:	010fa283          	lw	t0,16(t6)
800005dc:	014fa303          	lw	t1,20(t6)
800005e0:	018fa383          	lw	t2,24(t6)
800005e4:	01cfa403          	lw	s0,28(t6)
800005e8:	020fa483          	lw	s1,32(t6)
800005ec:	024fa503          	lw	a0,36(t6)
800005f0:	028fa583          	lw	a1,40(t6)
800005f4:	02cfa603          	lw	a2,44(t6)
800005f8:	030fa683          	lw	a3,48(t6)
800005fc:	034fa703          	lw	a4,52(t6)
80000600:	038fa783          	lw	a5,56(t6)
80000604:	03cfa803          	lw	a6,60(t6)
80000608:	040fa883          	lw	a7,64(t6)
8000060c:	044fa903          	lw	s2,68(t6)
80000610:	048fa983          	lw	s3,72(t6)
80000614:	04cfaa03          	lw	s4,76(t6)
80000618:	050faa83          	lw	s5,80(t6)
8000061c:	054fab03          	lw	s6,84(t6)
80000620:	058fab83          	lw	s7,88(t6)
80000624:	05cfac03          	lw	s8,92(t6)
80000628:	060fac83          	lw	s9,96(t6)
8000062c:	064fad03          	lw	s10,100(t6)
80000630:	068fad83          	lw	s11,104(t6)
80000634:	06cfae03          	lw	t3,108(t6)
80000638:	070fae83          	lw	t4,112(t6)
8000063c:	074faf03          	lw	t5,116(t6)
80000640:	078faf83          	lw	t6,120(t6)

	ctxret
80000644:	0000300b          	ctxret

80000648 <switch_sw_ctxl>:

.global switch_sw_ctxl
switch_sw_ctxl:
	reg_save t6
80000648:	001fa023          	sw	ra,0(t6)
8000064c:	002fa223          	sw	sp,4(t6)
80000650:	003fa423          	sw	gp,8(t6)
80000654:	004fa623          	sw	tp,12(t6)
80000658:	005fa823          	sw	t0,16(t6)
8000065c:	006faa23          	sw	t1,20(t6)
80000660:	007fac23          	sw	t2,24(t6)
80000664:	008fae23          	sw	s0,28(t6)
80000668:	029fa023          	sw	s1,32(t6)
8000066c:	02afa223          	sw	a0,36(t6)
80000670:	02bfa423          	sw	a1,40(t6)
80000674:	02cfa623          	sw	a2,44(t6)
80000678:	02dfa823          	sw	a3,48(t6)
8000067c:	02efaa23          	sw	a4,52(t6)
80000680:	02ffac23          	sw	a5,56(t6)
80000684:	030fae23          	sw	a6,60(t6)
80000688:	051fa023          	sw	a7,64(t6)
8000068c:	052fa223          	sw	s2,68(t6)
80000690:	053fa423          	sw	s3,72(t6)
80000694:	054fa623          	sw	s4,76(t6)
80000698:	055fa823          	sw	s5,80(t6)
8000069c:	056faa23          	sw	s6,84(t6)
800006a0:	057fac23          	sw	s7,88(t6)
800006a4:	058fae23          	sw	s8,92(t6)
800006a8:	079fa023          	sw	s9,96(t6)
800006ac:	07afa223          	sw	s10,100(t6)
800006b0:	07bfa423          	sw	s11,104(t6)
800006b4:	07cfa623          	sw	t3,108(t6)
800006b8:	07dfa823          	sw	t4,112(t6)
800006bc:	07efaa23          	sw	t5,116(t6)
	csrr a0, mscratch
800006c0:	34002573          	csrr	a0,mscratch
	ctxl a0
800006c4:	0005100b          	ctxl	a0

	ret
800006c8:	00008067          	ret

800006cc <switch_swlw>:

.global switch_swlw
switch_swlw:
	reg_save t6
800006cc:	001fa023          	sw	ra,0(t6)
800006d0:	002fa223          	sw	sp,4(t6)
800006d4:	003fa423          	sw	gp,8(t6)
800006d8:	004fa623          	sw	tp,12(t6)
800006dc:	005fa823          	sw	t0,16(t6)
800006e0:	006faa23          	sw	t1,20(t6)
800006e4:	007fac23          	sw	t2,24(t6)
800006e8:	008fae23          	sw	s0,28(t6)
800006ec:	029fa023          	sw	s1,32(t6)
800006f0:	02afa223          	sw	a0,36(t6)
800006f4:	02bfa423          	sw	a1,40(t6)
800006f8:	02cfa623          	sw	a2,44(t6)
800006fc:	02dfa823          	sw	a3,48(t6)
80000700:	02efaa23          	sw	a4,52(t6)
80000704:	02ffac23          	sw	a5,56(t6)
80000708:	030fae23          	sw	a6,60(t6)
8000070c:	051fa023          	sw	a7,64(t6)
80000710:	052fa223          	sw	s2,68(t6)
80000714:	053fa423          	sw	s3,72(t6)
80000718:	054fa623          	sw	s4,76(t6)
8000071c:	055fa823          	sw	s5,80(t6)
80000720:	056faa23          	sw	s6,84(t6)
80000724:	057fac23          	sw	s7,88(t6)
80000728:	058fae23          	sw	s8,92(t6)
8000072c:	079fa023          	sw	s9,96(t6)
80000730:	07afa223          	sw	s10,100(t6)
80000734:	07bfa423          	sw	s11,104(t6)
80000738:	07cfa623          	sw	t3,108(t6)
8000073c:	07dfa823          	sw	t4,112(t6)
80000740:	07efaa23          	sw	t5,116(t6)
	csrr t6, mscratch
80000744:	34002ff3          	csrr	t6,mscratch
	reg_restore t6
80000748:	000fa083          	lw	ra,0(t6)
8000074c:	004fa103          	lw	sp,4(t6)
80000750:	008fa183          	lw	gp,8(t6)
80000754:	00cfa203          	lw	tp,12(t6)
80000758:	010fa283          	lw	t0,16(t6)
8000075c:	014fa303          	lw	t1,20(t6)
80000760:	018fa383          	lw	t2,24(t6)
80000764:	01cfa403          	lw	s0,28(t6)
80000768:	020fa483          	lw	s1,32(t6)
8000076c:	024fa503          	lw	a0,36(t6)
80000770:	028fa583          	lw	a1,40(t6)
80000774:	02cfa603          	lw	a2,44(t6)
80000778:	030fa683          	lw	a3,48(t6)
8000077c:	034fa703          	lw	a4,52(t6)
80000780:	038fa783          	lw	a5,56(t6)
80000784:	03cfa803          	lw	a6,60(t6)
80000788:	040fa883          	lw	a7,64(t6)
8000078c:	044fa903          	lw	s2,68(t6)
80000790:	048fa983          	lw	s3,72(t6)
80000794:	04cfaa03          	lw	s4,76(t6)
80000798:	050faa83          	lw	s5,80(t6)
8000079c:	054fab03          	lw	s6,84(t6)
800007a0:	058fab83          	lw	s7,88(t6)
800007a4:	05cfac03          	lw	s8,92(t6)
800007a8:	060fac83          	lw	s9,96(t6)
800007ac:	064fad03          	lw	s10,100(t6)
800007b0:	068fad83          	lw	s11,104(t6)
800007b4:	06cfae03          	lw	t3,108(t6)
800007b8:	070fae83          	lw	t4,112(t6)
800007bc:	074faf03          	lw	t5,116(t6)
800007c0:	078faf83          	lw	t6,120(t6)

	ret
800007c4:	00008067          	ret

800007c8 <switch_sw>:

.global switch_sw
switch_sw:
	reg_save t6
800007c8:	001fa023          	sw	ra,0(t6)
800007cc:	002fa223          	sw	sp,4(t6)
800007d0:	003fa423          	sw	gp,8(t6)
800007d4:	004fa623          	sw	tp,12(t6)
800007d8:	005fa823          	sw	t0,16(t6)
800007dc:	006faa23          	sw	t1,20(t6)
800007e0:	007fac23          	sw	t2,24(t6)
800007e4:	008fae23          	sw	s0,28(t6)
800007e8:	029fa023          	sw	s1,32(t6)
800007ec:	02afa223          	sw	a0,36(t6)
800007f0:	02bfa423          	sw	a1,40(t6)
800007f4:	02cfa623          	sw	a2,44(t6)
800007f8:	02dfa823          	sw	a3,48(t6)
800007fc:	02efaa23          	sw	a4,52(t6)
80000800:	02ffac23          	sw	a5,56(t6)
80000804:	030fae23          	sw	a6,60(t6)
80000808:	051fa023          	sw	a7,64(t6)
8000080c:	052fa223          	sw	s2,68(t6)
80000810:	053fa423          	sw	s3,72(t6)
80000814:	054fa623          	sw	s4,76(t6)
80000818:	055fa823          	sw	s5,80(t6)
8000081c:	056faa23          	sw	s6,84(t6)
80000820:	057fac23          	sw	s7,88(t6)
80000824:	058fae23          	sw	s8,92(t6)
80000828:	079fa023          	sw	s9,96(t6)
8000082c:	07afa223          	sw	s10,100(t6)
80000830:	07bfa423          	sw	s11,104(t6)
80000834:	07cfa623          	sw	t3,108(t6)
80000838:	07dfa823          	sw	t4,112(t6)
8000083c:	07efaa23          	sw	t5,116(t6)

	ctxret
80000840:	0000300b          	ctxret

80000844 <heap_full>:


.global heap_full
heap_full:
    csrr a0, mheapfullctx
80000844:	7c402573          	csrr	a0,mheapfullctx
    mv t6, ra
80000848:	00008f93          	mv	t6,ra
    call heap_handler
8000084c:	301000ef          	jal	ra,8000134c <heap_handler>
    mv ra, t6
80000850:	000f8093          	mv	ra,t6
    ctxret
80000854:	0000300b          	ctxret

80000858 <heap_empty>:

.global heap_empty
heap_empty:
    mv t6, ra
80000858:	00008f93          	mv	t6,ra
    call heapempty_handler
8000085c:	3cd000ef          	jal	ra,80001428 <heapempty_handler>
    mv ra, t6
80000860:	000f8093          	mv	ra,t6
    ctxret
80000864:	0000300b          	ctxret

80000868 <task_clz>:

.global task_clz
task_clz:
    # Initialize the mask to check the highest bit (bit 31)
    li a1, 1 << 31
80000868:	800005b7          	lui	a1,0x80000
    li a2, 0  # Counter for leading zeros
8000086c:	00000613          	li	a2,0
    
    li t0, 0               # 如果 value 为 0，返回 0
80000870:	00000293          	li	t0,0
    beq a0, t0, return_zero
80000874:	00550a63          	beq	a0,t0,80000888 <return_zero>

    neg t1, a0             # rsb x, value, #0 的等效操作，将 value 取反
80000878:	40a00333          	neg	t1,a0
    and t1, t1, a0         # 按位与数
8000087c:	00a37333          	and	t1,t1,a0
    j clz_loop
80000880:	0100006f          	j	80000890 <clz_loop>
    ret
80000884:	00008067          	ret

80000888 <return_zero>:

return_zero:
    mv a0, t0              # 返回 0
80000888:	00028513          	mv	a0,t0
    ret
8000088c:	00008067          	ret

80000890 <clz_loop>:

clz_loop:
    # If the current bit is 1, exit the loop
    and t0, t1, a1
80000890:	00b372b3          	and	t0,t1,a1
    bne t0, zero, clz_end
80000894:	00029863          	bnez	t0,800008a4 <clz_end>

    # If the current bit is 0, increment the counter
    addi a2, a2, 1
80000898:	00160613          	addi	a2,a2,1

    # Right shift the mask to check the next bit
    srli a1, a1, 1
8000089c:	0015d593          	srli	a1,a1,0x1

    # Loop back to check the next bit
    j clz_loop
800008a0:	ff1ff06f          	j	80000890 <clz_loop>

800008a4 <clz_end>:

clz_end:
    # a2 now contains the count of leading zeros
    # Return or continue with your code
    mv a0, a2  # Move the result to a0
800008a4:	00060513          	mv	a0,a2
    li t0, 32              # 为了与 rsb x, x, #32 等效
800008a8:	02000293          	li	t0,32
    sub a0, t0, a0        # 32 - 前导零
800008ac:	40a28533          	sub	a0,t0,a0
    ret                    # 返回结果
800008b0:	00008067          	ret
	...

800008c0 <_vsnprintf>:
/*
 * ref: https://github.com/cccriscv/mini-riscv-os/blob/master/05-Preemptive/lib.c
 */

static int _vsnprintf(char * out, size_t n, const char* s, va_list vl)
{
800008c0:	fb010113          	addi	sp,sp,-80
800008c4:	04812623          	sw	s0,76(sp)
800008c8:	05010413          	addi	s0,sp,80
800008cc:	faa42e23          	sw	a0,-68(s0)
800008d0:	fab42c23          	sw	a1,-72(s0)
800008d4:	fac42a23          	sw	a2,-76(s0)
800008d8:	fad42823          	sw	a3,-80(s0)
	int format = 0;
800008dc:	fe042623          	sw	zero,-20(s0)
	int longarg = 0;
800008e0:	fe042423          	sw	zero,-24(s0)
	size_t pos = 0;
800008e4:	fe042223          	sw	zero,-28(s0)
	for (; *s; s++) {
800008e8:	4080006f          	j	80000cf0 <_vsnprintf+0x430>
		if (format) {
800008ec:	fec42783          	lw	a5,-20(s0)
800008f0:	38078c63          	beqz	a5,80000c88 <_vsnprintf+0x3c8>
			switch(*s) {
800008f4:	fb442783          	lw	a5,-76(s0)
800008f8:	0007c783          	lbu	a5,0(a5)
800008fc:	f9d78793          	addi	a5,a5,-99
80000900:	01500713          	li	a4,21
80000904:	3cf76e63          	bltu	a4,a5,80000ce0 <_vsnprintf+0x420>
80000908:	00279713          	slli	a4,a5,0x2
8000090c:	800087b7          	lui	a5,0x80008
80000910:	35c78793          	addi	a5,a5,860 # 8000835c <_memory_end+0xf800835c>
80000914:	00f707b3          	add	a5,a4,a5
80000918:	0007a783          	lw	a5,0(a5)
8000091c:	00078067          	jr	a5
			case 'l': {
				longarg = 1;
80000920:	00100793          	li	a5,1
80000924:	fef42423          	sw	a5,-24(s0)
				break;
80000928:	3bc0006f          	j	80000ce4 <_vsnprintf+0x424>
			}
			case 'p': {
				longarg = 1;
8000092c:	00100793          	li	a5,1
80000930:	fef42423          	sw	a5,-24(s0)
				if (out && pos < n) {
80000934:	fbc42783          	lw	a5,-68(s0)
80000938:	02078263          	beqz	a5,8000095c <_vsnprintf+0x9c>
8000093c:	fe442703          	lw	a4,-28(s0)
80000940:	fb842783          	lw	a5,-72(s0)
80000944:	00f77c63          	bgeu	a4,a5,8000095c <_vsnprintf+0x9c>
					out[pos] = '0';
80000948:	fbc42703          	lw	a4,-68(s0)
8000094c:	fe442783          	lw	a5,-28(s0)
80000950:	00f707b3          	add	a5,a4,a5
80000954:	03000713          	li	a4,48
80000958:	00e78023          	sb	a4,0(a5)
				}
				pos++;
8000095c:	fe442783          	lw	a5,-28(s0)
80000960:	00178793          	addi	a5,a5,1
80000964:	fef42223          	sw	a5,-28(s0)
				if (out && pos < n) {
80000968:	fbc42783          	lw	a5,-68(s0)
8000096c:	02078263          	beqz	a5,80000990 <_vsnprintf+0xd0>
80000970:	fe442703          	lw	a4,-28(s0)
80000974:	fb842783          	lw	a5,-72(s0)
80000978:	00f77c63          	bgeu	a4,a5,80000990 <_vsnprintf+0xd0>
					out[pos] = 'x';
8000097c:	fbc42703          	lw	a4,-68(s0)
80000980:	fe442783          	lw	a5,-28(s0)
80000984:	00f707b3          	add	a5,a4,a5
80000988:	07800713          	li	a4,120
8000098c:	00e78023          	sb	a4,0(a5)
				}
				pos++;
80000990:	fe442783          	lw	a5,-28(s0)
80000994:	00178793          	addi	a5,a5,1
80000998:	fef42223          	sw	a5,-28(s0)
			}
			case 'x': {
				long num = longarg ? va_arg(vl, long) : va_arg(vl, int);
8000099c:	fe842783          	lw	a5,-24(s0)
800009a0:	00078c63          	beqz	a5,800009b8 <_vsnprintf+0xf8>
800009a4:	fb042783          	lw	a5,-80(s0)
800009a8:	00478713          	addi	a4,a5,4
800009ac:	fae42823          	sw	a4,-80(s0)
800009b0:	0007a783          	lw	a5,0(a5)
800009b4:	0140006f          	j	800009c8 <_vsnprintf+0x108>
800009b8:	fb042783          	lw	a5,-80(s0)
800009bc:	00478713          	addi	a4,a5,4
800009c0:	fae42823          	sw	a4,-80(s0)
800009c4:	0007a783          	lw	a5,0(a5)
800009c8:	fcf42423          	sw	a5,-56(s0)
				int hexdigits = 2*(longarg ? sizeof(long) : sizeof(int))-1;
800009cc:	00700793          	li	a5,7
800009d0:	fcf42223          	sw	a5,-60(s0)
				for(int i = hexdigits; i >= 0; i--) {
800009d4:	fc442783          	lw	a5,-60(s0)
800009d8:	fef42023          	sw	a5,-32(s0)
800009dc:	0880006f          	j	80000a64 <_vsnprintf+0x1a4>
					int d = (num >> (4*i)) & 0xF;
800009e0:	fe042783          	lw	a5,-32(s0)
800009e4:	00279793          	slli	a5,a5,0x2
800009e8:	fc842703          	lw	a4,-56(s0)
800009ec:	40f757b3          	sra	a5,a4,a5
800009f0:	00f7f793          	andi	a5,a5,15
800009f4:	fcf42023          	sw	a5,-64(s0)
					if (out && pos < n) {
800009f8:	fbc42783          	lw	a5,-68(s0)
800009fc:	04078863          	beqz	a5,80000a4c <_vsnprintf+0x18c>
80000a00:	fe442703          	lw	a4,-28(s0)
80000a04:	fb842783          	lw	a5,-72(s0)
80000a08:	04f77263          	bgeu	a4,a5,80000a4c <_vsnprintf+0x18c>
						out[pos] = (d < 10 ? '0'+d : 'a'+d-10);
80000a0c:	fc042703          	lw	a4,-64(s0)
80000a10:	00900793          	li	a5,9
80000a14:	00e7cc63          	blt	a5,a4,80000a2c <_vsnprintf+0x16c>
80000a18:	fc042783          	lw	a5,-64(s0)
80000a1c:	0ff7f793          	zext.b	a5,a5
80000a20:	03078793          	addi	a5,a5,48
80000a24:	0ff7f793          	zext.b	a5,a5
80000a28:	0140006f          	j	80000a3c <_vsnprintf+0x17c>
80000a2c:	fc042783          	lw	a5,-64(s0)
80000a30:	0ff7f793          	zext.b	a5,a5
80000a34:	05778793          	addi	a5,a5,87
80000a38:	0ff7f793          	zext.b	a5,a5
80000a3c:	fbc42683          	lw	a3,-68(s0)
80000a40:	fe442703          	lw	a4,-28(s0)
80000a44:	00e68733          	add	a4,a3,a4
80000a48:	00f70023          	sb	a5,0(a4)
					}
					pos++;
80000a4c:	fe442783          	lw	a5,-28(s0)
80000a50:	00178793          	addi	a5,a5,1
80000a54:	fef42223          	sw	a5,-28(s0)
				for(int i = hexdigits; i >= 0; i--) {
80000a58:	fe042783          	lw	a5,-32(s0)
80000a5c:	fff78793          	addi	a5,a5,-1
80000a60:	fef42023          	sw	a5,-32(s0)
80000a64:	fe042783          	lw	a5,-32(s0)
80000a68:	f607dce3          	bgez	a5,800009e0 <_vsnprintf+0x120>
				}
				longarg = 0;
80000a6c:	fe042423          	sw	zero,-24(s0)
				format = 0;
80000a70:	fe042623          	sw	zero,-20(s0)
				break;
80000a74:	2700006f          	j	80000ce4 <_vsnprintf+0x424>
			}
			case 'd': {
				long num = longarg ? va_arg(vl, long) : va_arg(vl, int);
80000a78:	fe842783          	lw	a5,-24(s0)
80000a7c:	00078c63          	beqz	a5,80000a94 <_vsnprintf+0x1d4>
80000a80:	fb042783          	lw	a5,-80(s0)
80000a84:	00478713          	addi	a4,a5,4
80000a88:	fae42823          	sw	a4,-80(s0)
80000a8c:	0007a783          	lw	a5,0(a5)
80000a90:	0140006f          	j	80000aa4 <_vsnprintf+0x1e4>
80000a94:	fb042783          	lw	a5,-80(s0)
80000a98:	00478713          	addi	a4,a5,4
80000a9c:	fae42823          	sw	a4,-80(s0)
80000aa0:	0007a783          	lw	a5,0(a5)
80000aa4:	fcf42e23          	sw	a5,-36(s0)
				if (num < 0) {
80000aa8:	fdc42783          	lw	a5,-36(s0)
80000aac:	0407d263          	bgez	a5,80000af0 <_vsnprintf+0x230>
					num = -num;
80000ab0:	fdc42783          	lw	a5,-36(s0)
80000ab4:	40f007b3          	neg	a5,a5
80000ab8:	fcf42e23          	sw	a5,-36(s0)
					if (out && pos < n) {
80000abc:	fbc42783          	lw	a5,-68(s0)
80000ac0:	02078263          	beqz	a5,80000ae4 <_vsnprintf+0x224>
80000ac4:	fe442703          	lw	a4,-28(s0)
80000ac8:	fb842783          	lw	a5,-72(s0)
80000acc:	00f77c63          	bgeu	a4,a5,80000ae4 <_vsnprintf+0x224>
						out[pos] = '-';
80000ad0:	fbc42703          	lw	a4,-68(s0)
80000ad4:	fe442783          	lw	a5,-28(s0)
80000ad8:	00f707b3          	add	a5,a4,a5
80000adc:	02d00713          	li	a4,45
80000ae0:	00e78023          	sb	a4,0(a5)
					}
					pos++;
80000ae4:	fe442783          	lw	a5,-28(s0)
80000ae8:	00178793          	addi	a5,a5,1
80000aec:	fef42223          	sw	a5,-28(s0)
				}
				long digits = 1;
80000af0:	00100793          	li	a5,1
80000af4:	fcf42c23          	sw	a5,-40(s0)
				for (long nn = num; nn /= 10; digits++);
80000af8:	fdc42783          	lw	a5,-36(s0)
80000afc:	fcf42a23          	sw	a5,-44(s0)
80000b00:	0100006f          	j	80000b10 <_vsnprintf+0x250>
80000b04:	fd842783          	lw	a5,-40(s0)
80000b08:	00178793          	addi	a5,a5,1
80000b0c:	fcf42c23          	sw	a5,-40(s0)
80000b10:	fd442703          	lw	a4,-44(s0)
80000b14:	00a00793          	li	a5,10
80000b18:	02f747b3          	div	a5,a4,a5
80000b1c:	fcf42a23          	sw	a5,-44(s0)
80000b20:	fd442783          	lw	a5,-44(s0)
80000b24:	fe0790e3          	bnez	a5,80000b04 <_vsnprintf+0x244>
				for (int i = digits-1; i >= 0; i--) {
80000b28:	fd842783          	lw	a5,-40(s0)
80000b2c:	fff78793          	addi	a5,a5,-1
80000b30:	fcf42823          	sw	a5,-48(s0)
80000b34:	06c0006f          	j	80000ba0 <_vsnprintf+0x2e0>
					if (out && pos + i < n) {
80000b38:	fbc42783          	lw	a5,-68(s0)
80000b3c:	04078463          	beqz	a5,80000b84 <_vsnprintf+0x2c4>
80000b40:	fd042703          	lw	a4,-48(s0)
80000b44:	fe442783          	lw	a5,-28(s0)
80000b48:	00f707b3          	add	a5,a4,a5
80000b4c:	fb842703          	lw	a4,-72(s0)
80000b50:	02e7fa63          	bgeu	a5,a4,80000b84 <_vsnprintf+0x2c4>
						out[pos + i] = '0' + (num % 10);
80000b54:	fdc42703          	lw	a4,-36(s0)
80000b58:	00a00793          	li	a5,10
80000b5c:	02f767b3          	rem	a5,a4,a5
80000b60:	0ff7f713          	zext.b	a4,a5
80000b64:	fd042683          	lw	a3,-48(s0)
80000b68:	fe442783          	lw	a5,-28(s0)
80000b6c:	00f687b3          	add	a5,a3,a5
80000b70:	fbc42683          	lw	a3,-68(s0)
80000b74:	00f687b3          	add	a5,a3,a5
80000b78:	03070713          	addi	a4,a4,48
80000b7c:	0ff77713          	zext.b	a4,a4
80000b80:	00e78023          	sb	a4,0(a5)
					}
					num /= 10;
80000b84:	fdc42703          	lw	a4,-36(s0)
80000b88:	00a00793          	li	a5,10
80000b8c:	02f747b3          	div	a5,a4,a5
80000b90:	fcf42e23          	sw	a5,-36(s0)
				for (int i = digits-1; i >= 0; i--) {
80000b94:	fd042783          	lw	a5,-48(s0)
80000b98:	fff78793          	addi	a5,a5,-1
80000b9c:	fcf42823          	sw	a5,-48(s0)
80000ba0:	fd042783          	lw	a5,-48(s0)
80000ba4:	f807dae3          	bgez	a5,80000b38 <_vsnprintf+0x278>
				}
				pos += digits;
80000ba8:	fd842783          	lw	a5,-40(s0)
80000bac:	fe442703          	lw	a4,-28(s0)
80000bb0:	00f707b3          	add	a5,a4,a5
80000bb4:	fef42223          	sw	a5,-28(s0)
				longarg = 0;
80000bb8:	fe042423          	sw	zero,-24(s0)
				format = 0;
80000bbc:	fe042623          	sw	zero,-20(s0)
				break;
80000bc0:	1240006f          	j	80000ce4 <_vsnprintf+0x424>
			}
			case 's': {
				const char* s2 = va_arg(vl, const char*);
80000bc4:	fb042783          	lw	a5,-80(s0)
80000bc8:	00478713          	addi	a4,a5,4
80000bcc:	fae42823          	sw	a4,-80(s0)
80000bd0:	0007a783          	lw	a5,0(a5)
80000bd4:	fcf42623          	sw	a5,-52(s0)
				while (*s2) {
80000bd8:	0480006f          	j	80000c20 <_vsnprintf+0x360>
					if (out && pos < n) {
80000bdc:	fbc42783          	lw	a5,-68(s0)
80000be0:	02078463          	beqz	a5,80000c08 <_vsnprintf+0x348>
80000be4:	fe442703          	lw	a4,-28(s0)
80000be8:	fb842783          	lw	a5,-72(s0)
80000bec:	00f77e63          	bgeu	a4,a5,80000c08 <_vsnprintf+0x348>
						out[pos] = *s2;
80000bf0:	fbc42703          	lw	a4,-68(s0)
80000bf4:	fe442783          	lw	a5,-28(s0)
80000bf8:	00f707b3          	add	a5,a4,a5
80000bfc:	fcc42703          	lw	a4,-52(s0)
80000c00:	00074703          	lbu	a4,0(a4)
80000c04:	00e78023          	sb	a4,0(a5)
					}
					pos++;
80000c08:	fe442783          	lw	a5,-28(s0)
80000c0c:	00178793          	addi	a5,a5,1
80000c10:	fef42223          	sw	a5,-28(s0)
					s2++;
80000c14:	fcc42783          	lw	a5,-52(s0)
80000c18:	00178793          	addi	a5,a5,1
80000c1c:	fcf42623          	sw	a5,-52(s0)
				while (*s2) {
80000c20:	fcc42783          	lw	a5,-52(s0)
80000c24:	0007c783          	lbu	a5,0(a5)
80000c28:	fa079ae3          	bnez	a5,80000bdc <_vsnprintf+0x31c>
				}
				longarg = 0;
80000c2c:	fe042423          	sw	zero,-24(s0)
				format = 0;
80000c30:	fe042623          	sw	zero,-20(s0)
				break;
80000c34:	0b00006f          	j	80000ce4 <_vsnprintf+0x424>
			}
			case 'c': {
				if (out && pos < n) {
80000c38:	fbc42783          	lw	a5,-68(s0)
80000c3c:	02078a63          	beqz	a5,80000c70 <_vsnprintf+0x3b0>
80000c40:	fe442703          	lw	a4,-28(s0)
80000c44:	fb842783          	lw	a5,-72(s0)
80000c48:	02f77463          	bgeu	a4,a5,80000c70 <_vsnprintf+0x3b0>
					out[pos] = (char)va_arg(vl,int);
80000c4c:	fb042783          	lw	a5,-80(s0)
80000c50:	00478713          	addi	a4,a5,4
80000c54:	fae42823          	sw	a4,-80(s0)
80000c58:	0007a683          	lw	a3,0(a5)
80000c5c:	fbc42703          	lw	a4,-68(s0)
80000c60:	fe442783          	lw	a5,-28(s0)
80000c64:	00f707b3          	add	a5,a4,a5
80000c68:	0ff6f713          	zext.b	a4,a3
80000c6c:	00e78023          	sb	a4,0(a5)
				}
				pos++;
80000c70:	fe442783          	lw	a5,-28(s0)
80000c74:	00178793          	addi	a5,a5,1
80000c78:	fef42223          	sw	a5,-28(s0)
				longarg = 0;
80000c7c:	fe042423          	sw	zero,-24(s0)
				format = 0;
80000c80:	fe042623          	sw	zero,-20(s0)
				break;
80000c84:	0600006f          	j	80000ce4 <_vsnprintf+0x424>
			}
			default:
				break;
			}
		} else if (*s == '%') {
80000c88:	fb442783          	lw	a5,-76(s0)
80000c8c:	0007c703          	lbu	a4,0(a5)
80000c90:	02500793          	li	a5,37
80000c94:	00f71863          	bne	a4,a5,80000ca4 <_vsnprintf+0x3e4>
			format = 1;
80000c98:	00100793          	li	a5,1
80000c9c:	fef42623          	sw	a5,-20(s0)
80000ca0:	0440006f          	j	80000ce4 <_vsnprintf+0x424>
		} else {
			if (out && pos < n) {
80000ca4:	fbc42783          	lw	a5,-68(s0)
80000ca8:	02078463          	beqz	a5,80000cd0 <_vsnprintf+0x410>
80000cac:	fe442703          	lw	a4,-28(s0)
80000cb0:	fb842783          	lw	a5,-72(s0)
80000cb4:	00f77e63          	bgeu	a4,a5,80000cd0 <_vsnprintf+0x410>
				out[pos] = *s;
80000cb8:	fbc42703          	lw	a4,-68(s0)
80000cbc:	fe442783          	lw	a5,-28(s0)
80000cc0:	00f707b3          	add	a5,a4,a5
80000cc4:	fb442703          	lw	a4,-76(s0)
80000cc8:	00074703          	lbu	a4,0(a4)
80000ccc:	00e78023          	sb	a4,0(a5)
			}
			pos++;
80000cd0:	fe442783          	lw	a5,-28(s0)
80000cd4:	00178793          	addi	a5,a5,1
80000cd8:	fef42223          	sw	a5,-28(s0)
80000cdc:	0080006f          	j	80000ce4 <_vsnprintf+0x424>
				break;
80000ce0:	00000013          	nop
	for (; *s; s++) {
80000ce4:	fb442783          	lw	a5,-76(s0)
80000ce8:	00178793          	addi	a5,a5,1
80000cec:	faf42a23          	sw	a5,-76(s0)
80000cf0:	fb442783          	lw	a5,-76(s0)
80000cf4:	0007c783          	lbu	a5,0(a5)
80000cf8:	be079ae3          	bnez	a5,800008ec <_vsnprintf+0x2c>
		}
    	}
	if (out && pos < n) {
80000cfc:	fbc42783          	lw	a5,-68(s0)
80000d00:	02078263          	beqz	a5,80000d24 <_vsnprintf+0x464>
80000d04:	fe442703          	lw	a4,-28(s0)
80000d08:	fb842783          	lw	a5,-72(s0)
80000d0c:	00f77c63          	bgeu	a4,a5,80000d24 <_vsnprintf+0x464>
		out[pos] = 0;
80000d10:	fbc42703          	lw	a4,-68(s0)
80000d14:	fe442783          	lw	a5,-28(s0)
80000d18:	00f707b3          	add	a5,a4,a5
80000d1c:	00078023          	sb	zero,0(a5)
80000d20:	0280006f          	j	80000d48 <_vsnprintf+0x488>
	} else if (out && n) {
80000d24:	fbc42783          	lw	a5,-68(s0)
80000d28:	02078063          	beqz	a5,80000d48 <_vsnprintf+0x488>
80000d2c:	fb842783          	lw	a5,-72(s0)
80000d30:	00078c63          	beqz	a5,80000d48 <_vsnprintf+0x488>
		out[n-1] = 0;
80000d34:	fb842783          	lw	a5,-72(s0)
80000d38:	fff78793          	addi	a5,a5,-1
80000d3c:	fbc42703          	lw	a4,-68(s0)
80000d40:	00f707b3          	add	a5,a4,a5
80000d44:	00078023          	sb	zero,0(a5)
	}
	return pos;
80000d48:	fe442783          	lw	a5,-28(s0)
}
80000d4c:	00078513          	mv	a0,a5
80000d50:	04c12403          	lw	s0,76(sp)
80000d54:	05010113          	addi	sp,sp,80
80000d58:	00008067          	ret

80000d5c <_vprintf>:

static char out_buf[1000]; // buffer for _vprintf()

static int _vprintf(const char* s, va_list vl)
{
80000d5c:	fd010113          	addi	sp,sp,-48
80000d60:	02112623          	sw	ra,44(sp)
80000d64:	02812423          	sw	s0,40(sp)
80000d68:	03010413          	addi	s0,sp,48
80000d6c:	fca42e23          	sw	a0,-36(s0)
80000d70:	fcb42c23          	sw	a1,-40(s0)
	int res = _vsnprintf(NULL, -1, s, vl);
80000d74:	fd842683          	lw	a3,-40(s0)
80000d78:	fdc42603          	lw	a2,-36(s0)
80000d7c:	fff00593          	li	a1,-1
80000d80:	00000513          	li	a0,0
80000d84:	b3dff0ef          	jal	ra,800008c0 <_vsnprintf>
80000d88:	fea42623          	sw	a0,-20(s0)
	if (res+1 >= sizeof(out_buf)) {
80000d8c:	fec42783          	lw	a5,-20(s0)
80000d90:	00178793          	addi	a5,a5,1
80000d94:	00078713          	mv	a4,a5
80000d98:	3e700793          	li	a5,999
80000d9c:	00e7fa63          	bgeu	a5,a4,80000db0 <_vprintf+0x54>
		uart_puts("error: output string size overflow\n");
80000da0:	800087b7          	lui	a5,0x80008
80000da4:	3b478513          	addi	a0,a5,948 # 800083b4 <_memory_end+0xf80083b4>
80000da8:	150000ef          	jal	ra,80000ef8 <uart_puts>
		while(1) {}
80000dac:	0000006f          	j	80000dac <_vprintf+0x50>
	}
	_vsnprintf(out_buf, res + 1, s, vl);
80000db0:	fec42783          	lw	a5,-20(s0)
80000db4:	00178793          	addi	a5,a5,1
80000db8:	fd842683          	lw	a3,-40(s0)
80000dbc:	fdc42603          	lw	a2,-36(s0)
80000dc0:	00078593          	mv	a1,a5
80000dc4:	8000b7b7          	lui	a5,0x8000b
80000dc8:	01078513          	addi	a0,a5,16 # 8000b010 <_memory_end+0xf800b010>
80000dcc:	af5ff0ef          	jal	ra,800008c0 <_vsnprintf>
	uart_puts(out_buf);
80000dd0:	8000b7b7          	lui	a5,0x8000b
80000dd4:	01078513          	addi	a0,a5,16 # 8000b010 <_memory_end+0xf800b010>
80000dd8:	120000ef          	jal	ra,80000ef8 <uart_puts>
	return res;
80000ddc:	fec42783          	lw	a5,-20(s0)
}
80000de0:	00078513          	mv	a0,a5
80000de4:	02c12083          	lw	ra,44(sp)
80000de8:	02812403          	lw	s0,40(sp)
80000dec:	03010113          	addi	sp,sp,48
80000df0:	00008067          	ret

80000df4 <kprintf>:
//const char* s 字串
//va 可變參數相關
int kprintf(const char* s, ...) 
{
80000df4:	fb010113          	addi	sp,sp,-80
80000df8:	02112623          	sw	ra,44(sp)
80000dfc:	02812423          	sw	s0,40(sp)
80000e00:	03010413          	addi	s0,sp,48
80000e04:	fca42e23          	sw	a0,-36(s0)
80000e08:	00b42223          	sw	a1,4(s0)
80000e0c:	00c42423          	sw	a2,8(s0)
80000e10:	00d42623          	sw	a3,12(s0)
80000e14:	00e42823          	sw	a4,16(s0)
80000e18:	00f42a23          	sw	a5,20(s0)
80000e1c:	01042c23          	sw	a6,24(s0)
80000e20:	01142e23          	sw	a7,28(s0)
	int res = 0;
80000e24:	fe042623          	sw	zero,-20(s0)
	va_list vl;
	va_start(vl, s);
80000e28:	02040793          	addi	a5,s0,32
80000e2c:	fcf42c23          	sw	a5,-40(s0)
80000e30:	fd842783          	lw	a5,-40(s0)
80000e34:	fe478793          	addi	a5,a5,-28
80000e38:	fef42423          	sw	a5,-24(s0)
	res = _vprintf(s, vl);
80000e3c:	fe842783          	lw	a5,-24(s0)
80000e40:	00078593          	mv	a1,a5
80000e44:	fdc42503          	lw	a0,-36(s0)
80000e48:	f15ff0ef          	jal	ra,80000d5c <_vprintf>
80000e4c:	fea42623          	sw	a0,-20(s0)
	va_end(vl);
	return res;
80000e50:	fec42783          	lw	a5,-20(s0)
}
80000e54:	00078513          	mv	a0,a5
80000e58:	02c12083          	lw	ra,44(sp)
80000e5c:	02812403          	lw	s0,40(sp)
80000e60:	05010113          	addi	sp,sp,80
80000e64:	00008067          	ret

80000e68 <panic>:

void panic(char *s)
{
80000e68:	fe010113          	addi	sp,sp,-32
80000e6c:	00112e23          	sw	ra,28(sp)
80000e70:	00812c23          	sw	s0,24(sp)
80000e74:	02010413          	addi	s0,sp,32
80000e78:	fea42623          	sw	a0,-20(s0)
	kprintf("panic: ");
80000e7c:	800087b7          	lui	a5,0x80008
80000e80:	3d878513          	addi	a0,a5,984 # 800083d8 <_memory_end+0xf80083d8>
80000e84:	f71ff0ef          	jal	ra,80000df4 <kprintf>
	kprintf(s);
80000e88:	fec42503          	lw	a0,-20(s0)
80000e8c:	f69ff0ef          	jal	ra,80000df4 <kprintf>
	kprintf("\n");
80000e90:	800087b7          	lui	a5,0x80008
80000e94:	3e078513          	addi	a0,a5,992 # 800083e0 <_memory_end+0xf80083e0>
80000e98:	f5dff0ef          	jal	ra,80000df4 <kprintf>
	while(1){};
80000e9c:	0000006f          	j	80000e9c <panic+0x34>

80000ea0 <uart_init>:
#include "os.h"

void uart_init()
{
80000ea0:	ff010113          	addi	sp,sp,-16
80000ea4:	00812623          	sw	s0,12(sp)
80000ea8:	01010413          	addi	s0,sp,16

}
80000eac:	00000013          	nop
80000eb0:	00c12403          	lw	s0,12(sp)
80000eb4:	01010113          	addi	sp,sp,16
80000eb8:	00008067          	ret

80000ebc <uart_putc>:

int uart_putc(char ch)
{
80000ebc:	fe010113          	addi	sp,sp,-32
80000ec0:	00112e23          	sw	ra,28(sp)
80000ec4:	00812c23          	sw	s0,24(sp)
80000ec8:	02010413          	addi	s0,sp,32
80000ecc:	00050793          	mv	a5,a0
80000ed0:	fef407a3          	sb	a5,-17(s0)
	put_char(ch);
80000ed4:	fef44783          	lbu	a5,-17(s0)
80000ed8:	00078513          	mv	a0,a5
80000edc:	04c000ef          	jal	ra,80000f28 <put_char>
	return ch;
80000ee0:	fef44783          	lbu	a5,-17(s0)
}
80000ee4:	00078513          	mv	a0,a5
80000ee8:	01c12083          	lw	ra,28(sp)
80000eec:	01812403          	lw	s0,24(sp)
80000ef0:	02010113          	addi	sp,sp,32
80000ef4:	00008067          	ret

80000ef8 <uart_puts>:

void uart_puts(char *s)
{
80000ef8:	fe010113          	addi	sp,sp,-32
80000efc:	00112e23          	sw	ra,28(sp)
80000f00:	00812c23          	sw	s0,24(sp)
80000f04:	02010413          	addi	s0,sp,32
80000f08:	fea42623          	sw	a0,-20(s0)
	put_str(s);
80000f0c:	fec42503          	lw	a0,-20(s0)
80000f10:	04c000ef          	jal	ra,80000f5c <put_str>
}
80000f14:	00000013          	nop
80000f18:	01c12083          	lw	ra,28(sp)
80000f1c:	01812403          	lw	s0,24(sp)
80000f20:	02010113          	addi	sp,sp,32
80000f24:	00008067          	ret

80000f28 <put_char>:

/*----------------------------------------------*/
/* Put a character                              */
/*----------------------------------------------*/
void put_char(char c) 
{
80000f28:	fe010113          	addi	sp,sp,-32
80000f2c:	00812e23          	sw	s0,28(sp)
80000f30:	02010413          	addi	s0,sp,32
80000f34:	00050793          	mv	a5,a0
80000f38:	fef407a3          	sb	a5,-17(s0)
  DEV_WRITE(CTRL_BASE + CTRL_OUT, (unsigned char)c);
80000f3c:	010007b7          	lui	a5,0x1000
80000f40:	00478793          	addi	a5,a5,4 # 1000004 <STACK_SIZE+0xfffc04>
80000f44:	fef44703          	lbu	a4,-17(s0)
80000f48:	00e7a023          	sw	a4,0(a5)
}
80000f4c:	00000013          	nop
80000f50:	01c12403          	lw	s0,28(sp)
80000f54:	02010113          	addi	sp,sp,32
80000f58:	00008067          	ret

80000f5c <put_str>:

void put_str(const char *str) 
{
80000f5c:	fe010113          	addi	sp,sp,-32
80000f60:	00112e23          	sw	ra,28(sp)
80000f64:	00812c23          	sw	s0,24(sp)
80000f68:	02010413          	addi	s0,sp,32
80000f6c:	fea42623          	sw	a0,-20(s0)
  while (*str) 
80000f70:	01c0006f          	j	80000f8c <put_str+0x30>
  {
    put_char(*str++);
80000f74:	fec42783          	lw	a5,-20(s0)
80000f78:	00178713          	addi	a4,a5,1
80000f7c:	fee42623          	sw	a4,-20(s0)
80000f80:	0007c783          	lbu	a5,0(a5)
80000f84:	00078513          	mv	a0,a5
80000f88:	fa1ff0ef          	jal	ra,80000f28 <put_char>
  while (*str) 
80000f8c:	fec42783          	lw	a5,-20(s0)
80000f90:	0007c783          	lbu	a5,0(a5)
80000f94:	fe0790e3          	bnez	a5,80000f74 <put_str+0x18>
  }
}
80000f98:	00000013          	nop
80000f9c:	00000013          	nop
80000fa0:	01c12083          	lw	ra,28(sp)
80000fa4:	01812403          	lw	s0,24(sp)
80000fa8:	02010113          	addi	sp,sp,32
80000fac:	00008067          	ret

80000fb0 <halt>:

void halt() 
{ 
80000fb0:	ff010113          	addi	sp,sp,-16
80000fb4:	00812623          	sw	s0,12(sp)
80000fb8:	01010413          	addi	s0,sp,16
  DEV_WRITE(CTRL_BASE + CTRL_CTRL, 1); 
80000fbc:	010007b7          	lui	a5,0x1000
80000fc0:	00878793          	addi	a5,a5,8 # 1000008 <STACK_SIZE+0xfffc08>
80000fc4:	00100713          	li	a4,1
80000fc8:	00e7a023          	sw	a4,0(a5)
}
80000fcc:	00000013          	nop
80000fd0:	00c12403          	lw	s0,12(sp)
80000fd4:	01010113          	addi	sp,sp,16
80000fd8:	00008067          	ret

80000fdc <r_mstatus>:
	return x;
}


static inline reg_t r_mstatus()
{
80000fdc:	fe010113          	addi	sp,sp,-32
80000fe0:	00812e23          	sw	s0,28(sp)
80000fe4:	02010413          	addi	s0,sp,32
    reg_t x;
    asm volatile("csrr %0, mstatus" : "=r" (x));
80000fe8:	300027f3          	csrr	a5,mstatus
80000fec:	fef42623          	sw	a5,-20(s0)
    return x;
80000ff0:	fec42783          	lw	a5,-20(s0)
}
80000ff4:	00078513          	mv	a0,a5
80000ff8:	01c12403          	lw	s0,28(sp)
80000ffc:	02010113          	addi	sp,sp,32
80001000:	00008067          	ret

80001004 <w_mstatus>:

static inline void w_mstatus(reg_t x)
{
80001004:	fe010113          	addi	sp,sp,-32
80001008:	00812e23          	sw	s0,28(sp)
8000100c:	02010413          	addi	s0,sp,32
80001010:	fea42623          	sw	a0,-20(s0)
    asm volatile("csrw mstatus, %0" : : "r" (x));
80001014:	fec42783          	lw	a5,-20(s0)
80001018:	30079073          	csrw	mstatus,a5
}
8000101c:	00000013          	nop
80001020:	01c12403          	lw	s0,28(sp)
80001024:	02010113          	addi	sp,sp,32
80001028:	00008067          	ret

8000102c <spin_lock>:
#include "os.h"

int spin_lock()
{
8000102c:	ff010113          	addi	sp,sp,-16
80001030:	00112623          	sw	ra,12(sp)
80001034:	00812423          	sw	s0,8(sp)
80001038:	01010413          	addi	s0,sp,16
    w_mstatus(r_mstatus() & ~MSTATUS_MIE); //關閉中斷開關，MSTATUS_MIE (1 << 3) 
8000103c:	fa1ff0ef          	jal	ra,80000fdc <r_mstatus>
80001040:	00050793          	mv	a5,a0
80001044:	ff77f793          	andi	a5,a5,-9
80001048:	00078513          	mv	a0,a5
8000104c:	fb9ff0ef          	jal	ra,80001004 <w_mstatus>
    return 0;
80001050:	00000793          	li	a5,0
}
80001054:	00078513          	mv	a0,a5
80001058:	00c12083          	lw	ra,12(sp)
8000105c:	00812403          	lw	s0,8(sp)
80001060:	01010113          	addi	sp,sp,16
80001064:	00008067          	ret

80001068 <spin_unlock>:

int spin_unlock()
{
80001068:	ff010113          	addi	sp,sp,-16
8000106c:	00112623          	sw	ra,12(sp)
80001070:	00812423          	sw	s0,8(sp)
80001074:	01010413          	addi	s0,sp,16
    w_mstatus(r_mstatus() | MSTATUS_MIE); //打開中斷
80001078:	f65ff0ef          	jal	ra,80000fdc <r_mstatus>
8000107c:	00050793          	mv	a5,a0
80001080:	0087e793          	ori	a5,a5,8
80001084:	00078513          	mv	a0,a5
80001088:	f7dff0ef          	jal	ra,80001004 <w_mstatus>
    return 0;
8000108c:	00000793          	li	a5,0
80001090:	00078513          	mv	a0,a5
80001094:	00c12083          	lw	ra,12(sp)
80001098:	00812403          	lw	s0,8(sp)
8000109c:	01010113          	addi	sp,sp,16
800010a0:	00008067          	ret

800010a4 <memset>:
#include "types.h"
//把ptr的區域一byte傳入value
void *memset(void *ptr, int value, uint32_t num){
800010a4:	fd010113          	addi	sp,sp,-48
800010a8:	02812623          	sw	s0,44(sp)
800010ac:	03010413          	addi	s0,sp,48
800010b0:	fca42e23          	sw	a0,-36(s0)
800010b4:	fcb42c23          	sw	a1,-40(s0)
800010b8:	fcc42a23          	sw	a2,-44(s0)
    //p指向ptr,*p就是ptr地址裡的值
    unsigned char *p = (unsigned char *) ptr;
800010bc:	fdc42783          	lw	a5,-36(s0)
800010c0:	fef42623          	sw	a5,-20(s0)
    while (num-- > 0){
800010c4:	01c0006f          	j	800010e0 <memset+0x3c>
        *p++ = (unsigned char) value;
800010c8:	fec42783          	lw	a5,-20(s0)
800010cc:	00178713          	addi	a4,a5,1
800010d0:	fee42623          	sw	a4,-20(s0)
800010d4:	fd842703          	lw	a4,-40(s0)
800010d8:	0ff77713          	zext.b	a4,a4
800010dc:	00e78023          	sb	a4,0(a5)
    while (num-- > 0){
800010e0:	fd442783          	lw	a5,-44(s0)
800010e4:	fff78713          	addi	a4,a5,-1
800010e8:	fce42a23          	sw	a4,-44(s0)
800010ec:	fc079ee3          	bnez	a5,800010c8 <memset+0x24>
    }
    return ptr;
800010f0:	fdc42783          	lw	a5,-36(s0)
}
800010f4:	00078513          	mv	a0,a5
800010f8:	02c12403          	lw	s0,44(sp)
800010fc:	03010113          	addi	sp,sp,48
80001100:	00008067          	ret

80001104 <memcpy>:

char *memcpy(void *dest, const void *src, uint32_t num){
80001104:	fd010113          	addi	sp,sp,-48
80001108:	02812623          	sw	s0,44(sp)
8000110c:	03010413          	addi	s0,sp,48
80001110:	fca42e23          	sw	a0,-36(s0)
80001114:	fcb42c23          	sw	a1,-40(s0)
80001118:	fcc42a23          	sw	a2,-44(s0)
    //p指向dest
    char *p = (char *) dest;
8000111c:	fdc42783          	lw	a5,-36(s0)
80001120:	fef42623          	sw	a5,-20(s0)
    //s指向src
    const char *s =(const char *) src;
80001124:	fd842783          	lw	a5,-40(s0)
80001128:	fef42423          	sw	a5,-24(s0)
    //
    while (num-- > 0){
8000112c:	0240006f          	j	80001150 <memcpy+0x4c>
        *p++ = *s++;
80001130:	fe842703          	lw	a4,-24(s0)
80001134:	00170793          	addi	a5,a4,1
80001138:	fef42423          	sw	a5,-24(s0)
8000113c:	fec42783          	lw	a5,-20(s0)
80001140:	00178693          	addi	a3,a5,1
80001144:	fed42623          	sw	a3,-20(s0)
80001148:	00074703          	lbu	a4,0(a4)
8000114c:	00e78023          	sb	a4,0(a5)
    while (num-- > 0){
80001150:	fd442783          	lw	a5,-44(s0)
80001154:	fff78713          	addi	a4,a5,-1
80001158:	fce42a23          	sw	a4,-44(s0)
8000115c:	fc079ae3          	bnez	a5,80001130 <memcpy+0x2c>
    }
    return dest;
80001160:	fdc42783          	lw	a5,-36(s0)
80001164:	00078513          	mv	a0,a5
80001168:	02c12403          	lw	s0,44(sp)
8000116c:	03010113          	addi	sp,sp,48
80001170:	00008067          	ret

80001174 <list_insert_before>:
    l->next = n;
    n->prev = l;
}

static inline void list_insert_before(list_t *l, list_t *n)
{
80001174:	fe010113          	addi	sp,sp,-32
80001178:	00812e23          	sw	s0,28(sp)
8000117c:	02010413          	addi	s0,sp,32
80001180:	fea42623          	sw	a0,-20(s0)
80001184:	feb42423          	sw	a1,-24(s0)
    l->prev->next = n;
80001188:	fec42783          	lw	a5,-20(s0)
8000118c:	0007a783          	lw	a5,0(a5)
80001190:	fe842703          	lw	a4,-24(s0)
80001194:	00e7a223          	sw	a4,4(a5)
    n->prev = l->prev;
80001198:	fec42783          	lw	a5,-20(s0)
8000119c:	0007a703          	lw	a4,0(a5)
800011a0:	fe842783          	lw	a5,-24(s0)
800011a4:	00e7a023          	sw	a4,0(a5)
    l->prev = n;
800011a8:	fec42783          	lw	a5,-20(s0)
800011ac:	fe842703          	lw	a4,-24(s0)
800011b0:	00e7a023          	sw	a4,0(a5)
    n->next = l;
800011b4:	fe842783          	lw	a5,-24(s0)
800011b8:	fec42703          	lw	a4,-20(s0)
800011bc:	00e7a223          	sw	a4,4(a5)
}
800011c0:	00000013          	nop
800011c4:	01c12403          	lw	s0,28(sp)
800011c8:	02010113          	addi	sp,sp,32
800011cc:	00008067          	ret

800011d0 <w_mtvec>:
    //volatile不要對程式碼優化
    //csrw mscratch, x
    asm volatile("csrw mscratch, %0"    :   :   "r" (x));
}

static inline void w_mtvec(reg_t x){
800011d0:	fe010113          	addi	sp,sp,-32
800011d4:	00812e23          	sw	s0,28(sp)
800011d8:	02010413          	addi	s0,sp,32
800011dc:	fea42623          	sw	a0,-20(s0)
    asm volatile("csrw mtvec, %0" : : "r" (x));
800011e0:	fec42783          	lw	a5,-20(s0)
800011e4:	30579073          	csrw	mtvec,a5
}
800011e8:	00000013          	nop
800011ec:	01c12403          	lw	s0,28(sp)
800011f0:	02010113          	addi	sp,sp,32
800011f4:	00008067          	ret

800011f8 <w_mctxvec>:

static inline void w_mctxvec(reg_t x){
800011f8:	fe010113          	addi	sp,sp,-32
800011fc:	00812e23          	sw	s0,28(sp)
80001200:	02010413          	addi	s0,sp,32
80001204:	fea42623          	sw	a0,-20(s0)
    asm volatile("csrw mctxvec, %0" : : "r" (x));
80001208:	fec42783          	lw	a5,-20(s0)
8000120c:	7c179073          	csrw	mctxvec,a5
}
80001210:	00000013          	nop
80001214:	01c12403          	lw	s0,28(sp)
80001218:	02010113          	addi	sp,sp,32
8000121c:	00008067          	ret

80001220 <trap_init>:
extern taskCB_t  TCBReady[];

extern uint32_t priority_group;
extern uint8_t ready_table[32];

void trap_init(){
80001220:	ff010113          	addi	sp,sp,-16
80001224:	00112623          	sw	ra,12(sp)
80001228:	00812423          	sw	s0,8(sp)
8000122c:	01010413          	addi	s0,sp,16
    //當發生 interrupt 或是 exception 時，(PC 會根據該 mtvec 所指向的地址繼續執行，CPU做的)
    w_mtvec((reg_t)trap_vector);
80001230:	800007b7          	lui	a5,0x80000
80001234:	43078793          	addi	a5,a5,1072 # 80000430 <_memory_end+0xf8000430>
80001238:	00078513          	mv	a0,a5
8000123c:	f95ff0ef          	jal	ra,800011d0 <w_mtvec>
    w_mctxvec((reg_t)ctx_handler);
80001240:	800007b7          	lui	a5,0x80000
80001244:	5a078793          	addi	a5,a5,1440 # 800005a0 <_memory_end+0xf80005a0>
80001248:	00078513          	mv	a0,a5
8000124c:	fadff0ef          	jal	ra,800011f8 <w_mctxvec>
}
80001250:	00000013          	nop
80001254:	00c12083          	lw	ra,12(sp)
80001258:	00812403          	lw	s0,8(sp)
8000125c:	01010113          	addi	sp,sp,16
80001260:	00008067          	ret

80001264 <trap_handler>:

reg_t trap_handler(reg_t epc, reg_t cause){
80001264:	fd010113          	addi	sp,sp,-48
80001268:	02112623          	sw	ra,44(sp)
8000126c:	02812423          	sw	s0,40(sp)
80001270:	03010413          	addi	s0,sp,48
80001274:	fca42e23          	sw	a0,-36(s0)
80001278:	fcb42c23          	sw	a1,-40(s0)
    reg_t return_pc = epc;
8000127c:	fdc42783          	lw	a5,-36(s0)
80001280:	fef42623          	sw	a5,-20(s0)
    reg_t cause_code = cause & 0xfff;//取低位12個bits
80001284:	fd842703          	lw	a4,-40(s0)
80001288:	000017b7          	lui	a5,0x1
8000128c:	fff78793          	addi	a5,a5,-1 # fff <STACK_SIZE+0xbff>
80001290:	00f777b3          	and	a5,a4,a5
80001294:	fef42423          	sw	a5,-24(s0)

    if (cause & 0x80000000) {
80001298:	fd842783          	lw	a5,-40(s0)
8000129c:	0607de63          	bgez	a5,80001318 <trap_handler+0xb4>
        switch (cause_code) {
800012a0:	fe842703          	lw	a4,-24(s0)
800012a4:	00b00793          	li	a5,11
800012a8:	04f70863          	beq	a4,a5,800012f8 <trap_handler+0x94>
800012ac:	fe842703          	lw	a4,-24(s0)
800012b0:	00b00793          	li	a5,11
800012b4:	04e7ea63          	bltu	a5,a4,80001308 <trap_handler+0xa4>
800012b8:	fe842703          	lw	a4,-24(s0)
800012bc:	00300793          	li	a5,3
800012c0:	00f70a63          	beq	a4,a5,800012d4 <trap_handler+0x70>
800012c4:	fe842703          	lw	a4,-24(s0)
800012c8:	00700793          	li	a5,7
800012cc:	00f70c63          	beq	a4,a5,800012e4 <trap_handler+0x80>
800012d0:	0380006f          	j	80001308 <trap_handler+0xa4>
            //Machine software interrupt
            case 3:
                uart_puts("software interruption\n");
800012d4:	800087b7          	lui	a5,0x80008
800012d8:	3e478513          	addi	a0,a5,996 # 800083e4 <_memory_end+0xf80083e4>
800012dc:	c1dff0ef          	jal	ra,80000ef8 <uart_puts>
                break;
800012e0:	0540006f          	j	80001334 <trap_handler+0xd0>
            //Machine timer interrupt
            case 7:
                uart_puts("timer interruption\n");
800012e4:	800087b7          	lui	a5,0x80008
800012e8:	3fc78513          	addi	a0,a5,1020 # 800083fc <_memory_end+0xf80083fc>
800012ec:	c0dff0ef          	jal	ra,80000ef8 <uart_puts>
                timer_handler();
800012f0:	6d5000ef          	jal	ra,800021c4 <timer_handler>
                break;
800012f4:	0400006f          	j	80001334 <trap_handler+0xd0>
            //Machine external interrupt
            case 11:
                uart_puts("external interruption\n");
800012f8:	800087b7          	lui	a5,0x80008
800012fc:	41078513          	addi	a0,a5,1040 # 80008410 <_memory_end+0xf8008410>
80001300:	bf9ff0ef          	jal	ra,80000ef8 <uart_puts>
                break;
80001304:	0300006f          	j	80001334 <trap_handler+0xd0>
            default :
                uart_puts("unknown async exception!\n");
80001308:	800087b7          	lui	a5,0x80008
8000130c:	42878513          	addi	a0,a5,1064 # 80008428 <_memory_end+0xf8008428>
80001310:	be9ff0ef          	jal	ra,80000ef8 <uart_puts>
                break;
80001314:	0200006f          	j	80001334 <trap_handler+0xd0>
        }
    } else {
        kprintf("Sync exceptions!, code = %d\n" , cause_code);
80001318:	fe842583          	lw	a1,-24(s0)
8000131c:	800087b7          	lui	a5,0x80008
80001320:	44478513          	addi	a0,a5,1092 # 80008444 <_memory_end+0xf8008444>
80001324:	ad1ff0ef          	jal	ra,80000df4 <kprintf>
        //panic?????
        panic("OOPS!");
80001328:	800087b7          	lui	a5,0x80008
8000132c:	46478513          	addi	a0,a5,1124 # 80008464 <_memory_end+0xf8008464>
80001330:	b39ff0ef          	jal	ra,80000e68 <panic>
        //在panic卡住
        //return_pc += 4;
    }

    return return_pc;
80001334:	fec42783          	lw	a5,-20(s0)
}
80001338:	00078513          	mv	a0,a5
8000133c:	02c12083          	lw	ra,44(sp)
80001340:	02812403          	lw	s0,40(sp)
80001344:	03010113          	addi	sp,sp,48
80001348:	00008067          	ret

8000134c <heap_handler>:

reg_t heap_handler(reg_t ctx, reg_t pc){
8000134c:	fd010113          	addi	sp,sp,-48
80001350:	02112623          	sw	ra,44(sp)
80001354:	02812423          	sw	s0,40(sp)
80001358:	03010413          	addi	s0,sp,48
8000135c:	fca42e23          	sw	a0,-36(s0)
80001360:	fcb42c23          	sw	a1,-40(s0)
    reg_t ctx_ptr = ctx;
80001364:	fdc42783          	lw	a5,-36(s0)
80001368:	fef42623          	sw	a5,-20(s0)
    size_t task_offset = offsetof(taskCB_t, ctx);
8000136c:	02c00793          	li	a5,44
80001370:	fef42423          	sw	a5,-24(s0)
    taskCB_t *task = (taskCB_t *)((char *)ctx_ptr - task_offset);
80001374:	fec42703          	lw	a4,-20(s0)
80001378:	fe842783          	lw	a5,-24(s0)
8000137c:	40f707b3          	sub	a5,a4,a5
80001380:	fef42223          	sw	a5,-28(s0)
    list_insert_before((list_t*)&TCBReady[task->priority], (list_t*)task);
80001384:	fe442783          	lw	a5,-28(s0)
80001388:	0ad7c783          	lbu	a5,173(a5)
8000138c:	00078713          	mv	a4,a5
80001390:	0b400793          	li	a5,180
80001394:	02f70733          	mul	a4,a4,a5
80001398:	800227b7          	lui	a5,0x80022
8000139c:	64c78793          	addi	a5,a5,1612 # 8002264c <_memory_end+0xf802264c>
800013a0:	00f707b3          	add	a5,a4,a5
800013a4:	fe442583          	lw	a1,-28(s0)
800013a8:	00078513          	mv	a0,a5
800013ac:	dc9ff0ef          	jal	ra,80001174 <list_insert_before>
    ready_table[task->number] |= task->high_mask;
800013b0:	fe442783          	lw	a5,-28(s0)
800013b4:	0ae7c783          	lbu	a5,174(a5)
800013b8:	00078713          	mv	a4,a5
800013bc:	8002e7b7          	lui	a5,0x8002e
800013c0:	a4c78793          	addi	a5,a5,-1460 # 8002da4c <_memory_end+0xf802da4c>
800013c4:	00e787b3          	add	a5,a5,a4
800013c8:	0007c703          	lbu	a4,0(a5)
800013cc:	fe442783          	lw	a5,-28(s0)
800013d0:	0af7c783          	lbu	a5,175(a5)
800013d4:	fe442683          	lw	a3,-28(s0)
800013d8:	0ae6c683          	lbu	a3,174(a3)
800013dc:	00f767b3          	or	a5,a4,a5
800013e0:	0ff7f713          	zext.b	a4,a5
800013e4:	8002e7b7          	lui	a5,0x8002e
800013e8:	a4c78793          	addi	a5,a5,-1460 # 8002da4c <_memory_end+0xf802da4c>
800013ec:	00d787b3          	add	a5,a5,a3
800013f0:	00e78023          	sb	a4,0(a5)
    priority_group |= task->number_mask;
800013f4:	fe442783          	lw	a5,-28(s0)
800013f8:	0b07a703          	lw	a4,176(a5)
800013fc:	8000b7b7          	lui	a5,0x8000b
80001400:	0007a783          	lw	a5,0(a5) # 8000b000 <_memory_end+0xf800b000>
80001404:	00f76733          	or	a4,a4,a5
80001408:	8000b7b7          	lui	a5,0x8000b
8000140c:	00e7a023          	sw	a4,0(a5) # 8000b000 <_memory_end+0xf800b000>
    
    return 0;
80001410:	00000793          	li	a5,0
}
80001414:	00078513          	mv	a0,a5
80001418:	02c12083          	lw	ra,44(sp)
8000141c:	02812403          	lw	s0,40(sp)
80001420:	03010113          	addi	sp,sp,48
80001424:	00008067          	ret

80001428 <heapempty_handler>:

reg_t heapempty_handler(){
80001428:	ff010113          	addi	sp,sp,-16
8000142c:	00112623          	sw	ra,12(sp)
80001430:	00812423          	sw	s0,8(sp)
80001434:	01010413          	addi	s0,sp,16
    //uart_puts("haaaaaaaaaaaaaaaaaaaaaaaaaaaaaaaaa");
    schedule2();      
80001438:	0dd000ef          	jal	ra,80001d14 <schedule2>
    return 0;
8000143c:	00000793          	li	a5,0
}
80001440:	00078513          	mv	a0,a5
80001444:	00c12083          	lw	ra,12(sp)
80001448:	00812403          	lw	s0,8(sp)
8000144c:	01010113          	addi	sp,sp,16
80001450:	00008067          	ret

80001454 <list_init>:
static inline void list_init(list_t *l){
80001454:	fe010113          	addi	sp,sp,-32
80001458:	00812e23          	sw	s0,28(sp)
8000145c:	02010413          	addi	s0,sp,32
80001460:	fea42623          	sw	a0,-20(s0)
    l->next = l->prev = l;
80001464:	fec42783          	lw	a5,-20(s0)
80001468:	fec42703          	lw	a4,-20(s0)
8000146c:	00e7a023          	sw	a4,0(a5)
80001470:	fec42783          	lw	a5,-20(s0)
80001474:	0007a703          	lw	a4,0(a5)
80001478:	fec42783          	lw	a5,-20(s0)
8000147c:	00e7a223          	sw	a4,4(a5)
}
80001480:	00000013          	nop
80001484:	01c12403          	lw	s0,28(sp)
80001488:	02010113          	addi	sp,sp,32
8000148c:	00008067          	ret

80001490 <list_insert_before>:
{
80001490:	fe010113          	addi	sp,sp,-32
80001494:	00812e23          	sw	s0,28(sp)
80001498:	02010413          	addi	s0,sp,32
8000149c:	fea42623          	sw	a0,-20(s0)
800014a0:	feb42423          	sw	a1,-24(s0)
    l->prev->next = n;
800014a4:	fec42783          	lw	a5,-20(s0)
800014a8:	0007a783          	lw	a5,0(a5)
800014ac:	fe842703          	lw	a4,-24(s0)
800014b0:	00e7a223          	sw	a4,4(a5)
    n->prev = l->prev;
800014b4:	fec42783          	lw	a5,-20(s0)
800014b8:	0007a703          	lw	a4,0(a5)
800014bc:	fe842783          	lw	a5,-24(s0)
800014c0:	00e7a023          	sw	a4,0(a5)
    l->prev = n;
800014c4:	fec42783          	lw	a5,-20(s0)
800014c8:	fe842703          	lw	a4,-24(s0)
800014cc:	00e7a023          	sw	a4,0(a5)
    n->next = l;
800014d0:	fe842783          	lw	a5,-24(s0)
800014d4:	fec42703          	lw	a4,-20(s0)
800014d8:	00e7a223          	sw	a4,4(a5)
}
800014dc:	00000013          	nop
800014e0:	01c12403          	lw	s0,28(sp)
800014e4:	02010113          	addi	sp,sp,32
800014e8:	00008067          	ret

800014ec <list_remove>:

static inline void list_remove(list_t *n)
{
800014ec:	fe010113          	addi	sp,sp,-32
800014f0:	00812e23          	sw	s0,28(sp)
800014f4:	02010413          	addi	s0,sp,32
800014f8:	fea42623          	sw	a0,-20(s0)
    n->next->prev = n->prev;
800014fc:	fec42783          	lw	a5,-20(s0)
80001500:	0047a783          	lw	a5,4(a5)
80001504:	fec42703          	lw	a4,-20(s0)
80001508:	00072703          	lw	a4,0(a4)
8000150c:	00e7a023          	sw	a4,0(a5)
    n->prev->next = n->next;
80001510:	fec42783          	lw	a5,-20(s0)
80001514:	0007a783          	lw	a5,0(a5)
80001518:	fec42703          	lw	a4,-20(s0)
8000151c:	00472703          	lw	a4,4(a4)
80001520:	00e7a223          	sw	a4,4(a5)

    n->next = n->prev = n;
80001524:	fec42783          	lw	a5,-20(s0)
80001528:	fec42703          	lw	a4,-20(s0)
8000152c:	00e7a023          	sw	a4,0(a5)
80001530:	fec42783          	lw	a5,-20(s0)
80001534:	0007a703          	lw	a4,0(a5)
80001538:	fec42783          	lw	a5,-20(s0)
8000153c:	00e7a223          	sw	a4,4(a5)
}
80001540:	00000013          	nop
80001544:	01c12403          	lw	s0,28(sp)
80001548:	02010113          	addi	sp,sp,32
8000154c:	00008067          	ret

80001550 <InitTCBList>:
taskCB_t    *TCBRunning = NULL;
taskCB_t    *FreeTCB    = NULL;
extern void heap_insert();

void InitTCBList(void)
{
80001550:	fe010113          	addi	sp,sp,-32
80001554:	00812e23          	sw	s0,28(sp)
80001558:	02010413          	addi	s0,sp,32
    uint16_t i;
    taskCB_t * ptcb0;
    taskCB_t * ptcb1;

    //建立一個free TCB list
    FreeTCB = &TCBTable[0];
8000155c:	8000b7b7          	lui	a5,0x8000b
80001560:	8000b737          	lui	a4,0x8000b
80001564:	3f870713          	addi	a4,a4,1016 # 8000b3f8 <_memory_end+0xf800b3f8>
80001568:	00e7a423          	sw	a4,8(a5) # 8000b008 <_memory_end+0xf800b008>
    FreeTCB ->node.prev = NULL;
8000156c:	8000b7b7          	lui	a5,0x8000b
80001570:	0087a783          	lw	a5,8(a5) # 8000b008 <_memory_end+0xf800b008>
80001574:	0007a023          	sw	zero,0(a5)
    FreeTCB ->node.next = NULL;
80001578:	8000b7b7          	lui	a5,0x8000b
8000157c:	0087a783          	lw	a5,8(a5) # 8000b008 <_memory_end+0xf800b008>
80001580:	0007a223          	sw	zero,4(a5)

    FreeTCB ->state = TASK_INIT;
80001584:	8000b7b7          	lui	a5,0x8000b
80001588:	0087a783          	lw	a5,8(a5) # 8000b008 <_memory_end+0xf800b008>
8000158c:	0a078623          	sb	zero,172(a5)
    FreeTCB ->taskID = 0;
80001590:	8000b7b7          	lui	a5,0x8000b
80001594:	0087a783          	lw	a5,8(a5) # 8000b008 <_memory_end+0xf800b008>
80001598:	0007aa23          	sw	zero,20(a5)
    ptcb1 = &TCBTable[1];
8000159c:	8000b7b7          	lui	a5,0x8000b
800015a0:	4ac78793          	addi	a5,a5,1196 # 8000b4ac <_memory_end+0xf800b4ac>
800015a4:	fef42423          	sw	a5,-24(s0)

    for(i=1; i<MAX_USER_TASKS + SYS_TASK_NUM; i++){
800015a8:	00100793          	li	a5,1
800015ac:	fef41723          	sh	a5,-18(s0)
800015b0:	0580006f          	j	80001608 <InitTCBList+0xb8>
        ptcb1 -> taskID = i;
800015b4:	fee45703          	lhu	a4,-18(s0)
800015b8:	fe842783          	lw	a5,-24(s0)
800015bc:	00e7aa23          	sw	a4,20(a5)
        ptcb1 -> state  = TASK_INIT;
800015c0:	fe842783          	lw	a5,-24(s0)
800015c4:	0a078623          	sb	zero,172(a5)
        ptcb1 -> node.next = NULL;
800015c8:	fe842783          	lw	a5,-24(s0)
800015cc:	0007a223          	sw	zero,4(a5)
        ptcb1 -> node.prev =NULL;
800015d0:	fe842783          	lw	a5,-24(s0)
800015d4:	0007a023          	sw	zero,0(a5)
        //建造一個單鏈的TCB list
        ptcb0 = ptcb1 - 1;
800015d8:	fe842783          	lw	a5,-24(s0)
800015dc:	f4c78793          	addi	a5,a5,-180
800015e0:	fef42223          	sw	a5,-28(s0)
        ptcb0 -> node.next = (list_t *)ptcb1;
800015e4:	fe442783          	lw	a5,-28(s0)
800015e8:	fe842703          	lw	a4,-24(s0)
800015ec:	00e7a223          	sw	a4,4(a5)
        ptcb1++;
800015f0:	fe842783          	lw	a5,-24(s0)
800015f4:	0b478793          	addi	a5,a5,180
800015f8:	fef42423          	sw	a5,-24(s0)
    for(i=1; i<MAX_USER_TASKS + SYS_TASK_NUM; i++){
800015fc:	fee45783          	lhu	a5,-18(s0)
80001600:	00178793          	addi	a5,a5,1
80001604:	fef41723          	sh	a5,-18(s0)
80001608:	fee45703          	lhu	a4,-18(s0)
8000160c:	20800793          	li	a5,520
80001610:	fae7f2e3          	bgeu	a5,a4,800015b4 <InitTCBList+0x64>
    }

}
80001614:	00000013          	nop
80001618:	00000013          	nop
8000161c:	01c12403          	lw	s0,28(sp)
80001620:	02010113          	addi	sp,sp,32
80001624:	00008067          	ret

80001628 <_getFreeTCB>:

static taskCB_t * _getFreeTCB(void)
{
80001628:	fe010113          	addi	sp,sp,-32
8000162c:	00112e23          	sw	ra,28(sp)
80001630:	00812c23          	sw	s0,24(sp)
80001634:	02010413          	addi	s0,sp,32
    taskCB_t * ptcb;

    spin_lock();
80001638:	9f5ff0ef          	jal	ra,8000102c <spin_lock>
    if(FreeTCB == NULL)
8000163c:	8000b7b7          	lui	a5,0x8000b
80001640:	0087a783          	lw	a5,8(a5) # 8000b008 <_memory_end+0xf800b008>
80001644:	00079863          	bnez	a5,80001654 <_getFreeTCB+0x2c>
    {
        spin_unlock();
80001648:	a21ff0ef          	jal	ra,80001068 <spin_unlock>
        return NULL;
8000164c:	00000793          	li	a5,0
80001650:	0380006f          	j	80001688 <_getFreeTCB+0x60>
    }
    ptcb = FreeTCB;
80001654:	8000b7b7          	lui	a5,0x8000b
80001658:	0087a783          	lw	a5,8(a5) # 8000b008 <_memory_end+0xf800b008>
8000165c:	fef42623          	sw	a5,-20(s0)
    FreeTCB = (taskCB_t *)ptcb->node.next;
80001660:	fec42783          	lw	a5,-20(s0)
80001664:	0047a703          	lw	a4,4(a5)
80001668:	8000b7b7          	lui	a5,0x8000b
8000166c:	00e7a423          	sw	a4,8(a5) # 8000b008 <_memory_end+0xf800b008>
    ptcb->node.next = NULL;
80001670:	fec42783          	lw	a5,-20(s0)
80001674:	0007a223          	sw	zero,4(a5)
    ptcb->node.prev = NULL;
80001678:	fec42783          	lw	a5,-20(s0)
8000167c:	0007a023          	sw	zero,0(a5)
    spin_unlock();
80001680:	9e9ff0ef          	jal	ra,80001068 <spin_unlock>
    return ptcb;
80001684:	fec42783          	lw	a5,-20(s0)
}
80001688:	00078513          	mv	a0,a5
8000168c:	01c12083          	lw	ra,28(sp)
80001690:	01812403          	lw	s0,24(sp)
80001694:	02010113          	addi	sp,sp,32
80001698:	00008067          	ret

8000169c <readyQ_init>:


void readyQ_init(){
8000169c:	fe010113          	addi	sp,sp,-32
800016a0:	00112e23          	sw	ra,28(sp)
800016a4:	00812c23          	sw	s0,24(sp)
800016a8:	02010413          	addi	s0,sp,32
    for(int i = 0; i < PRIO_LEVEL; i++)
800016ac:	fe042623          	sw	zero,-20(s0)
800016b0:	0300006f          	j	800016e0 <readyQ_init+0x44>
        list_init((list_t*)&TCBReady[i]);
800016b4:	fec42703          	lw	a4,-20(s0)
800016b8:	0b400793          	li	a5,180
800016bc:	02f70733          	mul	a4,a4,a5
800016c0:	800227b7          	lui	a5,0x80022
800016c4:	64c78793          	addi	a5,a5,1612 # 8002264c <_memory_end+0xf802264c>
800016c8:	00f707b3          	add	a5,a4,a5
800016cc:	00078513          	mv	a0,a5
800016d0:	d85ff0ef          	jal	ra,80001454 <list_init>
    for(int i = 0; i < PRIO_LEVEL; i++)
800016d4:	fec42783          	lw	a5,-20(s0)
800016d8:	00178793          	addi	a5,a5,1
800016dc:	fef42623          	sw	a5,-20(s0)
800016e0:	fec42703          	lw	a4,-20(s0)
800016e4:	0ff00793          	li	a5,255
800016e8:	fce7d6e3          	bge	a5,a4,800016b4 <readyQ_init+0x18>
}
800016ec:	00000013          	nop
800016f0:	00000013          	nop
800016f4:	01c12083          	lw	ra,28(sp)
800016f8:	01812403          	lw	s0,24(sp)
800016fc:	02010113          	addi	sp,sp,32
80001700:	00008067          	ret

80001704 <getNewTCB>:

taskCB_t    *getNewTCB(uint8_t index){
80001704:	fe010113          	addi	sp,sp,-32
80001708:	00812e23          	sw	s0,28(sp)
8000170c:	02010413          	addi	s0,sp,32
80001710:	00050793          	mv	a5,a0
80001714:	fef407a3          	sb	a5,-17(s0)
    return &TCBTable[index];
80001718:	fef44703          	lbu	a4,-17(s0)
8000171c:	0b400793          	li	a5,180
80001720:	02f70733          	mul	a4,a4,a5
80001724:	8000b7b7          	lui	a5,0x8000b
80001728:	3f878793          	addi	a5,a5,1016 # 8000b3f8 <_memory_end+0xf800b3f8>
8000172c:	00f707b3          	add	a5,a4,a5
}
80001730:	00078513          	mv	a0,a5
80001734:	01c12403          	lw	s0,28(sp)
80001738:	02010113          	addi	sp,sp,32
8000173c:	00008067          	ret

80001740 <task_init>:
                , const char *name
                , void(*taskFunc)(void *parameter)
                , void  *parameter
                , uint32_t  stack_size
                , uint16_t  priority)
{
80001740:	fc010113          	addi	sp,sp,-64
80001744:	02112e23          	sw	ra,60(sp)
80001748:	02812c23          	sw	s0,56(sp)
8000174c:	04010413          	addi	s0,sp,64
80001750:	fca42e23          	sw	a0,-36(s0)
80001754:	fcb42c23          	sw	a1,-40(s0)
80001758:	fcc42a23          	sw	a2,-44(s0)
8000175c:	fcd42823          	sw	a3,-48(s0)
80001760:	fce42623          	sw	a4,-52(s0)
80001764:	fcf41523          	sh	a5,-54(s0)
    //3. task的工作
    //4. 參數
    //5. 堆疊大小
    //6. 優先級
    void *stack_start;
    stack_start = (void *)malloc(stack_size);
80001768:	fcc42503          	lw	a0,-52(s0)
8000176c:	6dd000ef          	jal	ra,80002648 <malloc>
80001770:	fea42623          	sw	a0,-20(s0)
    if (stack_start == NULL){
80001774:	fec42783          	lw	a5,-20(s0)
80001778:	00079663          	bnez	a5,80001784 <task_init+0x44>
        return ERROR;
8000177c:	0ff00793          	li	a5,255
80001780:	0940006f          	j	80001814 <task_init+0xd4>
        //ERROR = -1
    }
    //memcpy(要存的地方，要存的東西，存幾個)
    //entry指向task的工作
    memcpy(ptcb->name, name, sizeof(ptcb->name));
80001784:	fdc42783          	lw	a5,-36(s0)
80001788:	00878793          	addi	a5,a5,8
8000178c:	00a00613          	li	a2,10
80001790:	fd842583          	lw	a1,-40(s0)
80001794:	00078513          	mv	a0,a5
80001798:	96dff0ef          	jal	ra,80001104 <memcpy>
    ptcb->entry = (void *)taskFunc;
8000179c:	fdc42783          	lw	a5,-36(s0)
800017a0:	fd442703          	lw	a4,-44(s0)
800017a4:	00e7ac23          	sw	a4,24(a5)
    ptcb->parameter = parameter;
800017a8:	fdc42783          	lw	a5,-36(s0)
800017ac:	fd042703          	lw	a4,-48(s0)
800017b0:	00e7ae23          	sw	a4,28(a5)

    //init 堆疊
    memset(ptcb->stack_addr, 0, ptcb->stack_size);
800017b4:	fdc42783          	lw	a5,-36(s0)
800017b8:	0207a703          	lw	a4,32(a5)
800017bc:	fdc42783          	lw	a5,-36(s0)
800017c0:	0247a783          	lw	a5,36(a5)
800017c4:	00078613          	mv	a2,a5
800017c8:	00000593          	li	a1,0
800017cc:	00070513          	mv	a0,a4
800017d0:	8d5ff0ef          	jal	ra,800010a4 <memset>

    ptcb->ctx.ra = (reg_t)taskFunc;
800017d4:	fd442703          	lw	a4,-44(s0)
800017d8:	fdc42783          	lw	a5,-36(s0)
800017dc:	02e7a623          	sw	a4,44(a5)
    ptcb->ctx.sp = (reg_t)(stack_start + stack_size);
800017e0:	fec42703          	lw	a4,-20(s0)
800017e4:	fcc42783          	lw	a5,-52(s0)
800017e8:	00f707b3          	add	a5,a4,a5
800017ec:	00078713          	mv	a4,a5
800017f0:	fdc42783          	lw	a5,-36(s0)
800017f4:	02e7a823          	sw	a4,48(a5)

    ptcb->priority  = priority;
800017f8:	fca45783          	lhu	a5,-54(s0)
800017fc:	0ff7f713          	zext.b	a4,a5
80001800:	fdc42783          	lw	a5,-36(s0)
80001804:	0ae786a3          	sb	a4,173(a5)
    list_init((list_t*)ptcb);
80001808:	fdc42503          	lw	a0,-36(s0)
8000180c:	c49ff0ef          	jal	ra,80001454 <list_init>
    return 0;    
80001810:	00000793          	li	a5,0
}
80001814:	00078513          	mv	a0,a5
80001818:	03c12083          	lw	ra,60(sp)
8000181c:	03812403          	lw	s0,56(sp)
80001820:	04010113          	addi	sp,sp,64
80001824:	00008067          	ret

80001828 <task_create>:
taskCB_t * task_create(const char *name,
                        void (*taskFunc)(void *parameter),
                        void        *parameter,
                        uint32_t    stack_size,
                        uint16_t    priority)
{
80001828:	fc010113          	addi	sp,sp,-64
8000182c:	02112e23          	sw	ra,60(sp)
80001830:	02812c23          	sw	s0,56(sp)
80001834:	04010413          	addi	s0,sp,64
80001838:	fca42e23          	sw	a0,-36(s0)
8000183c:	fcb42c23          	sw	a1,-40(s0)
80001840:	fcc42a23          	sw	a2,-44(s0)
80001844:	fcd42823          	sw	a3,-48(s0)
80001848:	00070793          	mv	a5,a4
8000184c:	fcf41723          	sh	a5,-50(s0)
    //kprintf("%s hello\n",name);
    taskCB_t *ptcb = _getFreeTCB();
80001850:	dd9ff0ef          	jal	ra,80001628 <_getFreeTCB>
80001854:	fea42623          	sw	a0,-20(s0)
    if (ptcb == NULL) { 
80001858:	fec42783          	lw	a5,-20(s0)
8000185c:	00079c63          	bnez	a5,80001874 <task_create+0x4c>
        kprintf("qq_freeTCB_full\n");
80001860:	800087b7          	lui	a5,0x80008
80001864:	46c78513          	addi	a0,a5,1132 # 8000846c <_memory_end+0xf800846c>
80001868:	d8cff0ef          	jal	ra,80000df4 <kprintf>
        return NULL; }
8000186c:	00000793          	li	a5,0
80001870:	03c0006f          	j	800018ac <task_create+0x84>
    //kprintf("%s = %p \n",name,ptcb);
    err_t ret = task_init(ptcb, name, taskFunc, parameter, stack_size, priority);
80001874:	fce45783          	lhu	a5,-50(s0)
80001878:	fd042703          	lw	a4,-48(s0)
8000187c:	fd442683          	lw	a3,-44(s0)
80001880:	fd842603          	lw	a2,-40(s0)
80001884:	fdc42583          	lw	a1,-36(s0)
80001888:	fec42503          	lw	a0,-20(s0)
8000188c:	eb5ff0ef          	jal	ra,80001740 <task_init>
80001890:	00050793          	mv	a5,a0
80001894:	fef405a3          	sb	a5,-21(s0)
    if (ret == 0)
80001898:	feb44783          	lbu	a5,-21(s0)
8000189c:	00079663          	bnez	a5,800018a8 <task_create+0x80>
        return ptcb;
800018a0:	fec42783          	lw	a5,-20(s0)
800018a4:	0080006f          	j	800018ac <task_create+0x84>
    return NULL;
800018a8:	00000793          	li	a5,0
}
800018ac:	00078513          	mv	a0,a5
800018b0:	03c12083          	lw	ra,60(sp)
800018b4:	03812403          	lw	s0,56(sp)
800018b8:	04010113          	addi	sp,sp,64
800018bc:	00008067          	ret

800018c0 <task_startup>:
//--------------------------------------由這裡輸入給heap模組
void task_startup(taskCB_t *ptcb){
800018c0:	fe010113          	addi	sp,sp,-32
800018c4:	00112e23          	sw	ra,28(sp)
800018c8:	00812c23          	sw	s0,24(sp)
800018cc:	02010413          	addi	s0,sp,32
800018d0:	fea42623          	sw	a0,-20(s0)
    ptcb->state = TASK_SUSPEND;
800018d4:	fec42783          	lw	a5,-20(s0)
800018d8:	00200713          	li	a4,2
800018dc:	0ae78623          	sb	a4,172(a5)
        //priority--------------------------------------------
    ptcb->number = ptcb->priority >> 3;
800018e0:	fec42783          	lw	a5,-20(s0)
800018e4:	0ad7c783          	lbu	a5,173(a5)
800018e8:	0037d793          	srli	a5,a5,0x3
800018ec:	0ff7f713          	zext.b	a4,a5
800018f0:	fec42783          	lw	a5,-20(s0)
800018f4:	0ae78723          	sb	a4,174(a5)
    ptcb->number_mask = 1L << ptcb->number;
800018f8:	fec42783          	lw	a5,-20(s0)
800018fc:	0ae7c783          	lbu	a5,174(a5)
80001900:	00078713          	mv	a4,a5
80001904:	00100793          	li	a5,1
80001908:	00e797b3          	sll	a5,a5,a4
8000190c:	00078713          	mv	a4,a5
80001910:	fec42783          	lw	a5,-20(s0)
80001914:	0ae7a823          	sw	a4,176(a5)
    ptcb->high_mask = 1L << (ptcb->priority & 0x07);
80001918:	fec42783          	lw	a5,-20(s0)
8000191c:	0ad7c783          	lbu	a5,173(a5)
80001920:	0077f793          	andi	a5,a5,7
80001924:	00100713          	li	a4,1
80001928:	00f717b3          	sll	a5,a4,a5
8000192c:	0ff7f713          	zext.b	a4,a5
80001930:	fec42783          	lw	a5,-20(s0)
80001934:	0ae787a3          	sb	a4,175(a5)

    task_resume(ptcb);
80001938:	fec42503          	lw	a0,-20(s0)
8000193c:	194000ef          	jal	ra,80001ad0 <task_resume>
}
80001940:	00000013          	nop
80001944:	01c12083          	lw	ra,28(sp)
80001948:	01812403          	lw	s0,24(sp)
8000194c:	02010113          	addi	sp,sp,32
80001950:	00008067          	ret

80001954 <task_fork>:

void task_fork(taskCB_t *ptcb){
80001954:	fe010113          	addi	sp,sp,-32
80001958:	00112e23          	sw	ra,28(sp)
8000195c:	00812c23          	sw	s0,24(sp)
80001960:	00912a23          	sw	s1,20(sp)
80001964:	02010413          	addi	s0,sp,32
80001968:	fea42623          	sw	a0,-20(s0)
    ptcb->state = TASK_SUSPEND;
8000196c:	fec42783          	lw	a5,-20(s0)
80001970:	00200713          	li	a4,2
80001974:	0ae78623          	sb	a4,172(a5)
        //priority--------------------------------------------
    ptcb->number = ptcb->priority >> 3;
80001978:	fec42783          	lw	a5,-20(s0)
8000197c:	0ad7c783          	lbu	a5,173(a5)
80001980:	0037d793          	srli	a5,a5,0x3
80001984:	0ff7f713          	zext.b	a4,a5
80001988:	fec42783          	lw	a5,-20(s0)
8000198c:	0ae78723          	sb	a4,174(a5)
    ptcb->number_mask = 1L << ptcb->number;
80001990:	fec42783          	lw	a5,-20(s0)
80001994:	0ae7c783          	lbu	a5,174(a5)
80001998:	00078713          	mv	a4,a5
8000199c:	00100793          	li	a5,1
800019a0:	00e797b3          	sll	a5,a5,a4
800019a4:	00078713          	mv	a4,a5
800019a8:	fec42783          	lw	a5,-20(s0)
800019ac:	0ae7a823          	sw	a4,176(a5)
    ptcb->high_mask = 1L << (ptcb->priority & 0x07);
800019b0:	fec42783          	lw	a5,-20(s0)
800019b4:	0ad7c783          	lbu	a5,173(a5)
800019b8:	0077f793          	andi	a5,a5,7
800019bc:	00100713          	li	a4,1
800019c0:	00f717b3          	sll	a5,a4,a5
800019c4:	0ff7f713          	zext.b	a4,a5
800019c8:	fec42783          	lw	a5,-20(s0)
800019cc:	0ae787a3          	sb	a4,175(a5)
    
    register ubase_t highest_priority;
    register ubase_t number;
    number = task_clz(priority_group) - 1;
800019d0:	8000b7b7          	lui	a5,0x8000b
800019d4:	0007a783          	lw	a5,0(a5) # 8000b000 <_memory_end+0xf800b000>
800019d8:	00078513          	mv	a0,a5
800019dc:	e8dfe0ef          	jal	ra,80000868 <task_clz>
800019e0:	00050793          	mv	a5,a0
800019e4:	fff78793          	addi	a5,a5,-1
800019e8:	00078093          	mv	ra,a5
    highest_priority = (number << 3) + task_clz(ready_table[number]) - 1;
800019ec:	00309493          	slli	s1,ra,0x3
800019f0:	8002e7b7          	lui	a5,0x8002e
800019f4:	a4c78793          	addi	a5,a5,-1460 # 8002da4c <_memory_end+0xf802da4c>
800019f8:	001787b3          	add	a5,a5,ra
800019fc:	0007c783          	lbu	a5,0(a5)
80001a00:	00078513          	mv	a0,a5
80001a04:	e65fe0ef          	jal	ra,80000868 <task_clz>
80001a08:	00050793          	mv	a5,a0
80001a0c:	00f487b3          	add	a5,s1,a5
80001a10:	fff78093          	addi	ra,a5,-1
    if(ptcb->priority<=highest_priority){
80001a14:	fec42783          	lw	a5,-20(s0)
80001a18:	0ad7c783          	lbu	a5,173(a5)
80001a1c:	00f0e863          	bltu	ra,a5,80001a2c <task_fork+0xd8>
        task_resume(ptcb);
80001a20:	fec42503          	lw	a0,-20(s0)
80001a24:	0ac000ef          	jal	ra,80001ad0 <task_resume>
    else{
        list_insert_before((list_t*)&TCBReady[ptcb->priority], (list_t*)ptcb);
        ready_table[ptcb->number] |= ptcb->high_mask;
        priority_group |= ptcb->number_mask;
    }
}
80001a28:	0900006f          	j	80001ab8 <task_fork+0x164>
        list_insert_before((list_t*)&TCBReady[ptcb->priority], (list_t*)ptcb);
80001a2c:	fec42783          	lw	a5,-20(s0)
80001a30:	0ad7c783          	lbu	a5,173(a5)
80001a34:	00078713          	mv	a4,a5
80001a38:	0b400793          	li	a5,180
80001a3c:	02f70733          	mul	a4,a4,a5
80001a40:	800227b7          	lui	a5,0x80022
80001a44:	64c78793          	addi	a5,a5,1612 # 8002264c <_memory_end+0xf802264c>
80001a48:	00f707b3          	add	a5,a4,a5
80001a4c:	fec42583          	lw	a1,-20(s0)
80001a50:	00078513          	mv	a0,a5
80001a54:	a3dff0ef          	jal	ra,80001490 <list_insert_before>
        ready_table[ptcb->number] |= ptcb->high_mask;
80001a58:	fec42783          	lw	a5,-20(s0)
80001a5c:	0ae7c783          	lbu	a5,174(a5)
80001a60:	00078713          	mv	a4,a5
80001a64:	8002e7b7          	lui	a5,0x8002e
80001a68:	a4c78793          	addi	a5,a5,-1460 # 8002da4c <_memory_end+0xf802da4c>
80001a6c:	00e787b3          	add	a5,a5,a4
80001a70:	0007c703          	lbu	a4,0(a5)
80001a74:	fec42783          	lw	a5,-20(s0)
80001a78:	0af7c783          	lbu	a5,175(a5)
80001a7c:	fec42683          	lw	a3,-20(s0)
80001a80:	0ae6c683          	lbu	a3,174(a3)
80001a84:	00f767b3          	or	a5,a4,a5
80001a88:	0ff7f713          	zext.b	a4,a5
80001a8c:	8002e7b7          	lui	a5,0x8002e
80001a90:	a4c78793          	addi	a5,a5,-1460 # 8002da4c <_memory_end+0xf802da4c>
80001a94:	00d787b3          	add	a5,a5,a3
80001a98:	00e78023          	sb	a4,0(a5)
        priority_group |= ptcb->number_mask;
80001a9c:	fec42783          	lw	a5,-20(s0)
80001aa0:	0b07a703          	lw	a4,176(a5)
80001aa4:	8000b7b7          	lui	a5,0x8000b
80001aa8:	0007a783          	lw	a5,0(a5) # 8000b000 <_memory_end+0xf800b000>
80001aac:	00f76733          	or	a4,a4,a5
80001ab0:	8000b7b7          	lui	a5,0x8000b
80001ab4:	00e7a023          	sw	a4,0(a5) # 8000b000 <_memory_end+0xf800b000>
}
80001ab8:	00000013          	nop
80001abc:	01c12083          	lw	ra,28(sp)
80001ac0:	01812403          	lw	s0,24(sp)
80001ac4:	01412483          	lw	s1,20(sp)
80001ac8:	02010113          	addi	sp,sp,32
80001acc:	00008067          	ret

80001ad0 <task_resume>:

// +

err_t task_resume(taskCB_t *ptcb){
80001ad0:	fe010113          	addi	sp,sp,-32
80001ad4:	00112e23          	sw	ra,28(sp)
80001ad8:	00812c23          	sw	s0,24(sp)
80001adc:	02010413          	addi	s0,sp,32
80001ae0:	fea42623          	sw	a0,-20(s0)
    if (ptcb->state != TASK_SUSPEND){
80001ae4:	fec42783          	lw	a5,-20(s0)
80001ae8:	0ac7c703          	lbu	a4,172(a5)
80001aec:	00200793          	li	a5,2
80001af0:	00f70663          	beq	a4,a5,80001afc <task_resume+0x2c>
        return ERROR;
80001af4:	0ff00793          	li	a5,255
80001af8:	0300006f          	j	80001b28 <task_resume+0x58>
    }
    //spin_lock();
    list_remove((list_t*)ptcb);
80001afc:	fec42503          	lw	a0,-20(s0)
80001b00:	9edff0ef          	jal	ra,800014ec <list_remove>
    heap_insert(ptcb->priority,&ptcb->ctx);
80001b04:	fec42783          	lw	a5,-20(s0)
80001b08:	0ad7c783          	lbu	a5,173(a5)
80001b0c:	00078713          	mv	a4,a5
80001b10:	fec42783          	lw	a5,-20(s0)
80001b14:	02c78793          	addi	a5,a5,44
80001b18:	00078593          	mv	a1,a5
80001b1c:	00070513          	mv	a0,a4
80001b20:	a31fe0ef          	jal	ra,80000550 <heap_insert>
    
    //spin_unlock();
    return 0;
80001b24:	00000793          	li	a5,0
}
80001b28:	00078513          	mv	a0,a5
80001b2c:	01c12083          	lw	ra,28(sp)
80001b30:	01812403          	lw	s0,24(sp)
80001b34:	02010113          	addi	sp,sp,32
80001b38:	00008067          	ret

80001b3c <task_suspend>:

err_t task_suspend(taskCB_t * ptcb)
{
80001b3c:	fe010113          	addi	sp,sp,-32
80001b40:	00112e23          	sw	ra,28(sp)
80001b44:	00812c23          	sw	s0,24(sp)
80001b48:	02010413          	addi	s0,sp,32
80001b4c:	fea42623          	sw	a0,-20(s0)
    if (ptcb->state != TASK_READY)
80001b50:	fec42783          	lw	a5,-20(s0)
80001b54:	0ac7c703          	lbu	a4,172(a5)
80001b58:	00100793          	li	a5,1
80001b5c:	00f70663          	beq	a4,a5,80001b68 <task_suspend+0x2c>
    {
        return ERROR;
80001b60:	0ff00793          	li	a5,255
80001b64:	0240006f          	j	80001b88 <task_suspend+0x4c>
    }

    spin_lock();
80001b68:	cc4ff0ef          	jal	ra,8000102c <spin_lock>
    list_remove((list_t*)ptcb);
80001b6c:	fec42503          	lw	a0,-20(s0)
80001b70:	97dff0ef          	jal	ra,800014ec <list_remove>
    ptcb->state = TASK_SUSPEND;
80001b74:	fec42783          	lw	a5,-20(s0)
80001b78:	00200713          	li	a4,2
80001b7c:	0ae78623          	sb	a4,172(a5)
    spin_unlock();
80001b80:	ce8ff0ef          	jal	ra,80001068 <spin_unlock>
    return 0 ;
80001b84:	00000793          	li	a5,0
}
80001b88:	00078513          	mv	a0,a5
80001b8c:	01c12083          	lw	ra,28(sp)
80001b90:	01812403          	lw	s0,24(sp)
80001b94:	02010113          	addi	sp,sp,32
80001b98:	00008067          	ret

80001b9c <task_yield>:

err_t task_yield(void){
80001b9c:	ff010113          	addi	sp,sp,-16
80001ba0:	00112623          	sw	ra,12(sp)
80001ba4:	00812423          	sw	s0,8(sp)
80001ba8:	01010413          	addi	s0,sp,16
    // taskCB_t *ptcb;
    schedule();
80001bac:	134000ef          	jal	ra,80001ce0 <schedule>
    return 0;
80001bb0:	00000793          	li	a5,0
80001bb4:	00078513          	mv	a0,a5
80001bb8:	00c12083          	lw	ra,12(sp)
80001bbc:	00812403          	lw	s0,8(sp)
80001bc0:	01010113          	addi	sp,sp,16
80001bc4:	00008067          	ret

80001bc8 <list_remove>:
{
80001bc8:	fe010113          	addi	sp,sp,-32
80001bcc:	00812e23          	sw	s0,28(sp)
80001bd0:	02010413          	addi	s0,sp,32
80001bd4:	fea42623          	sw	a0,-20(s0)
    n->next->prev = n->prev;
80001bd8:	fec42783          	lw	a5,-20(s0)
80001bdc:	0047a783          	lw	a5,4(a5)
80001be0:	fec42703          	lw	a4,-20(s0)
80001be4:	00072703          	lw	a4,0(a4)
80001be8:	00e7a023          	sw	a4,0(a5)
    n->prev->next = n->next;
80001bec:	fec42783          	lw	a5,-20(s0)
80001bf0:	0007a783          	lw	a5,0(a5)
80001bf4:	fec42703          	lw	a4,-20(s0)
80001bf8:	00472703          	lw	a4,4(a4)
80001bfc:	00e7a223          	sw	a4,4(a5)
    n->next = n->prev = n;
80001c00:	fec42783          	lw	a5,-20(s0)
80001c04:	fec42703          	lw	a4,-20(s0)
80001c08:	00e7a023          	sw	a4,0(a5)
80001c0c:	fec42783          	lw	a5,-20(s0)
80001c10:	0007a703          	lw	a4,0(a5)
80001c14:	fec42783          	lw	a5,-20(s0)
80001c18:	00e7a223          	sw	a4,4(a5)
}
80001c1c:	00000013          	nop
80001c20:	01c12403          	lw	s0,28(sp)
80001c24:	02010113          	addi	sp,sp,32
80001c28:	00008067          	ret

80001c2c <list_isempty>:

static inline int list_isempty(list_t *l)
{
80001c2c:	fe010113          	addi	sp,sp,-32
80001c30:	00812e23          	sw	s0,28(sp)
80001c34:	02010413          	addi	s0,sp,32
80001c38:	fea42623          	sw	a0,-20(s0)
    return l->next == l; 
80001c3c:	fec42783          	lw	a5,-20(s0)
80001c40:	0047a783          	lw	a5,4(a5)
80001c44:	fec42703          	lw	a4,-20(s0)
80001c48:	40f707b3          	sub	a5,a4,a5
80001c4c:	0017b793          	seqz	a5,a5
80001c50:	0ff7f793          	zext.b	a5,a5
}
80001c54:	00078513          	mv	a0,a5
80001c58:	01c12403          	lw	s0,28(sp)
80001c5c:	02010113          	addi	sp,sp,32
80001c60:	00008067          	ret

80001c64 <r_mcycle>:
{
80001c64:	fe010113          	addi	sp,sp,-32
80001c68:	00812e23          	sw	s0,28(sp)
80001c6c:	02010413          	addi	s0,sp,32
	asm volatile("csrr %0, mcycle" : "=r" (x) );
80001c70:	b00027f3          	csrr	a5,mcycle
80001c74:	fef42623          	sw	a5,-20(s0)
	return x;
80001c78:	fec42783          	lw	a5,-20(s0)
}
80001c7c:	00078513          	mv	a0,a5
80001c80:	01c12403          	lw	s0,28(sp)
80001c84:	02010113          	addi	sp,sp,32
80001c88:	00008067          	ret

80001c8c <w_mscratch>:
static inline void w_mscratch(reg_t x){
80001c8c:	fe010113          	addi	sp,sp,-32
80001c90:	00812e23          	sw	s0,28(sp)
80001c94:	02010413          	addi	s0,sp,32
80001c98:	fea42623          	sw	a0,-20(s0)
    asm volatile("csrw mscratch, %0"    :   :   "r" (x));
80001c9c:	fec42783          	lw	a5,-20(s0)
80001ca0:	34079073          	csrw	mscratch,a5
}
80001ca4:	00000013          	nop
80001ca8:	01c12403          	lw	s0,28(sp)
80001cac:	02010113          	addi	sp,sp,32
80001cb0:	00008067          	ret

80001cb4 <sched_init>:
extern  taskCB_t *TCBRunning;

extern uint32_t priority_group;
extern uint8_t ready_table[32];

void sched_init(){   
80001cb4:	ff010113          	addi	sp,sp,-16
80001cb8:	00112623          	sw	ra,12(sp)
80001cbc:	00812423          	sw	s0,8(sp)
80001cc0:	01010413          	addi	s0,sp,16
    //在riscv.h
    w_mscratch(0);
80001cc4:	00000513          	li	a0,0
80001cc8:	fc5ff0ef          	jal	ra,80001c8c <w_mscratch>
}
80001ccc:	00000013          	nop
80001cd0:	00c12083          	lw	ra,12(sp)
80001cd4:	00812403          	lw	s0,8(sp)
80001cd8:	01010113          	addi	sp,sp,16
80001cdc:	00008067          	ret

80001ce0 <schedule>:

void schedule(){
80001ce0:	fe010113          	addi	sp,sp,-32
80001ce4:	00112e23          	sw	ra,28(sp)
80001ce8:	00812c23          	sw	s0,24(sp)
80001cec:	02010413          	addi	s0,sp,32
    
    int mcycle = r_mcycle();
80001cf0:	f75ff0ef          	jal	ra,80001c64 <r_mcycle>
80001cf4:	00050793          	mv	a5,a0
80001cf8:	fef42623          	sw	a5,-20(s0)
	  //kprintf ("%d\n",mcycle);
    
    switch_to();//next是下個task的ctx起始位置
80001cfc:	865fe0ef          	jal	ra,80000560 <switch_to>
  
}
80001d00:	00000013          	nop
80001d04:	01c12083          	lw	ra,28(sp)
80001d08:	01812403          	lw	s0,24(sp)
80001d0c:	02010113          	addi	sp,sp,32
80001d10:	00008067          	ret

80001d14 <schedule2>:
當heap做完會進到這
這裡會把qeueue的task放進heap裡(heap_insert)
接這進到switch繼續執行
*/

void schedule2(){
80001d14:	fd010113          	addi	sp,sp,-48
80001d18:	02112623          	sw	ra,44(sp)
80001d1c:	02812423          	sw	s0,40(sp)
80001d20:	02912223          	sw	s1,36(sp)
80001d24:	03010413          	addi	s0,sp,48
    taskCB_t *nextTask = NULL;
80001d28:	fe042623          	sw	zero,-20(s0)
    taskCB_t *switch_nextTask = NULL;
80001d2c:	fe042223          	sw	zero,-28(s0)
    // ctx_t *next;
    taskCB_t *readyQ = NULL;
80001d30:	fe042023          	sw	zero,-32(s0)

    int max_heap = 254;
80001d34:	0fe00793          	li	a5,254
80001d38:	fcf42e23          	sw	a5,-36(s0)

    register ubase_t highest_priority;
    register ubase_t number;

    int heap_task_count = 0;
80001d3c:	fe042423          	sw	zero,-24(s0)
    
      
      number = task_clz(priority_group) - 1;
80001d40:	8000b7b7          	lui	a5,0x8000b
80001d44:	0007a783          	lw	a5,0(a5) # 8000b000 <_memory_end+0xf800b000>
80001d48:	00078513          	mv	a0,a5
80001d4c:	b1dfe0ef          	jal	ra,80000868 <task_clz>
80001d50:	00050793          	mv	a5,a0
80001d54:	fff78793          	addi	a5,a5,-1
80001d58:	00078093          	mv	ra,a5
      highest_priority = (number << 3) + task_clz(ready_table[number]) - 1;
80001d5c:	00309493          	slli	s1,ra,0x3
80001d60:	8002e7b7          	lui	a5,0x8002e
80001d64:	a4c78793          	addi	a5,a5,-1460 # 8002da4c <_memory_end+0xf802da4c>
80001d68:	001787b3          	add	a5,a5,ra
80001d6c:	0007c783          	lbu	a5,0(a5)
80001d70:	00078513          	mv	a0,a5
80001d74:	af5fe0ef          	jal	ra,80000868 <task_clz>
80001d78:	00050793          	mv	a5,a0
80001d7c:	00f487b3          	add	a5,s1,a5
80001d80:	fff78493          	addi	s1,a5,-1
      
      readyQ = &TCBReady[highest_priority];
80001d84:	0b400793          	li	a5,180
80001d88:	02f48733          	mul	a4,s1,a5
80001d8c:	800227b7          	lui	a5,0x80022
80001d90:	64c78793          	addi	a5,a5,1612 # 8002264c <_memory_end+0xf802264c>
80001d94:	00f707b3          	add	a5,a4,a5
80001d98:	fef42023          	sw	a5,-32(s0)
      nextTask = (taskCB_t*)readyQ->node.next;
80001d9c:	fe042783          	lw	a5,-32(s0)
80001da0:	0047a783          	lw	a5,4(a5)
80001da4:	fef42623          	sw	a5,-20(s0)
      switch_nextTask = &nextTask->ctx;    
80001da8:	fec42783          	lw	a5,-20(s0)
80001dac:	02c78793          	addi	a5,a5,44
80001db0:	fef42223          	sw	a5,-28(s0)
      list_remove((list_t*)nextTask);
80001db4:	fec42503          	lw	a0,-20(s0)
80001db8:	e11ff0ef          	jal	ra,80001bc8 <list_remove>
      if(list_isempty((list_t*)&TCBReady[nextTask->priority])){
80001dbc:	fec42783          	lw	a5,-20(s0)
80001dc0:	0ad7c783          	lbu	a5,173(a5)
80001dc4:	00078713          	mv	a4,a5
80001dc8:	0b400793          	li	a5,180
80001dcc:	02f70733          	mul	a4,a4,a5
80001dd0:	800227b7          	lui	a5,0x80022
80001dd4:	64c78793          	addi	a5,a5,1612 # 8002264c <_memory_end+0xf802264c>
80001dd8:	00f707b3          	add	a5,a4,a5
80001ddc:	00078513          	mv	a0,a5
80001de0:	e4dff0ef          	jal	ra,80001c2c <list_isempty>
80001de4:	00050793          	mv	a5,a0
80001de8:	1c078a63          	beqz	a5,80001fbc <schedule2+0x2a8>
          ready_table[nextTask->number] &= ~nextTask->high_mask;
80001dec:	fec42783          	lw	a5,-20(s0)
80001df0:	0ae7c783          	lbu	a5,174(a5)
80001df4:	00078713          	mv	a4,a5
80001df8:	8002e7b7          	lui	a5,0x8002e
80001dfc:	a4c78793          	addi	a5,a5,-1460 # 8002da4c <_memory_end+0xf802da4c>
80001e00:	00e787b3          	add	a5,a5,a4
80001e04:	0007c783          	lbu	a5,0(a5)
80001e08:	01879713          	slli	a4,a5,0x18
80001e0c:	41875713          	srai	a4,a4,0x18
80001e10:	fec42783          	lw	a5,-20(s0)
80001e14:	0af7c783          	lbu	a5,175(a5)
80001e18:	01879793          	slli	a5,a5,0x18
80001e1c:	4187d793          	srai	a5,a5,0x18
80001e20:	fff7c793          	not	a5,a5
80001e24:	01879793          	slli	a5,a5,0x18
80001e28:	4187d793          	srai	a5,a5,0x18
80001e2c:	00f777b3          	and	a5,a4,a5
80001e30:	01879713          	slli	a4,a5,0x18
80001e34:	41875713          	srai	a4,a4,0x18
80001e38:	fec42783          	lw	a5,-20(s0)
80001e3c:	0ae7c783          	lbu	a5,174(a5)
80001e40:	00078693          	mv	a3,a5
80001e44:	0ff77713          	zext.b	a4,a4
80001e48:	8002e7b7          	lui	a5,0x8002e
80001e4c:	a4c78793          	addi	a5,a5,-1460 # 8002da4c <_memory_end+0xf802da4c>
80001e50:	00d787b3          	add	a5,a5,a3
80001e54:	00e78023          	sb	a4,0(a5)
          if (ready_table[nextTask->number] == 0){
80001e58:	fec42783          	lw	a5,-20(s0)
80001e5c:	0ae7c783          	lbu	a5,174(a5)
80001e60:	00078713          	mv	a4,a5
80001e64:	8002e7b7          	lui	a5,0x8002e
80001e68:	a4c78793          	addi	a5,a5,-1460 # 8002da4c <_memory_end+0xf802da4c>
80001e6c:	00e787b3          	add	a5,a5,a4
80001e70:	0007c783          	lbu	a5,0(a5)
80001e74:	14079463          	bnez	a5,80001fbc <schedule2+0x2a8>
              priority_group &= ~nextTask->number_mask;
80001e78:	fec42783          	lw	a5,-20(s0)
80001e7c:	0b07a783          	lw	a5,176(a5)
80001e80:	fff7c713          	not	a4,a5
80001e84:	8000b7b7          	lui	a5,0x8000b
80001e88:	0007a783          	lw	a5,0(a5) # 8000b000 <_memory_end+0xf800b000>
80001e8c:	00f77733          	and	a4,a4,a5
80001e90:	8000b7b7          	lui	a5,0x8000b
80001e94:	00e7a023          	sw	a4,0(a5) # 8000b000 <_memory_end+0xf800b000>
          }
        }
      
      //同個priorty塞到爆滿還沒解決
      while(nextTask != &TCBReady[highest_priority]){
80001e98:	1240006f          	j	80001fbc <schedule2+0x2a8>
        readyQ = &TCBReady[highest_priority];
80001e9c:	0b400793          	li	a5,180
80001ea0:	02f48733          	mul	a4,s1,a5
80001ea4:	800227b7          	lui	a5,0x80022
80001ea8:	64c78793          	addi	a5,a5,1612 # 8002264c <_memory_end+0xf802264c>
80001eac:	00f707b3          	add	a5,a4,a5
80001eb0:	fef42023          	sw	a5,-32(s0)
        nextTask = (taskCB_t*)readyQ->node.next;
80001eb4:	fe042783          	lw	a5,-32(s0)
80001eb8:	0047a783          	lw	a5,4(a5)
80001ebc:	fef42623          	sw	a5,-20(s0)
        task_resume(nextTask);        
80001ec0:	fec42503          	lw	a0,-20(s0)
80001ec4:	c0dff0ef          	jal	ra,80001ad0 <task_resume>
        if(list_isempty((list_t*)&TCBReady[nextTask->priority])){
80001ec8:	fec42783          	lw	a5,-20(s0)
80001ecc:	0ad7c783          	lbu	a5,173(a5)
80001ed0:	00078713          	mv	a4,a5
80001ed4:	0b400793          	li	a5,180
80001ed8:	02f70733          	mul	a4,a4,a5
80001edc:	800227b7          	lui	a5,0x80022
80001ee0:	64c78793          	addi	a5,a5,1612 # 8002264c <_memory_end+0xf802264c>
80001ee4:	00f707b3          	add	a5,a4,a5
80001ee8:	00078513          	mv	a0,a5
80001eec:	d41ff0ef          	jal	ra,80001c2c <list_isempty>
80001ef0:	00050793          	mv	a5,a0
80001ef4:	0a078863          	beqz	a5,80001fa4 <schedule2+0x290>
          ready_table[nextTask->number] &= ~nextTask->high_mask;
80001ef8:	fec42783          	lw	a5,-20(s0)
80001efc:	0ae7c783          	lbu	a5,174(a5)
80001f00:	00078713          	mv	a4,a5
80001f04:	8002e7b7          	lui	a5,0x8002e
80001f08:	a4c78793          	addi	a5,a5,-1460 # 8002da4c <_memory_end+0xf802da4c>
80001f0c:	00e787b3          	add	a5,a5,a4
80001f10:	0007c783          	lbu	a5,0(a5)
80001f14:	01879713          	slli	a4,a5,0x18
80001f18:	41875713          	srai	a4,a4,0x18
80001f1c:	fec42783          	lw	a5,-20(s0)
80001f20:	0af7c783          	lbu	a5,175(a5)
80001f24:	01879793          	slli	a5,a5,0x18
80001f28:	4187d793          	srai	a5,a5,0x18
80001f2c:	fff7c793          	not	a5,a5
80001f30:	01879793          	slli	a5,a5,0x18
80001f34:	4187d793          	srai	a5,a5,0x18
80001f38:	00f777b3          	and	a5,a4,a5
80001f3c:	01879713          	slli	a4,a5,0x18
80001f40:	41875713          	srai	a4,a4,0x18
80001f44:	fec42783          	lw	a5,-20(s0)
80001f48:	0ae7c783          	lbu	a5,174(a5)
80001f4c:	00078693          	mv	a3,a5
80001f50:	0ff77713          	zext.b	a4,a4
80001f54:	8002e7b7          	lui	a5,0x8002e
80001f58:	a4c78793          	addi	a5,a5,-1460 # 8002da4c <_memory_end+0xf802da4c>
80001f5c:	00d787b3          	add	a5,a5,a3
80001f60:	00e78023          	sb	a4,0(a5)
          if (ready_table[nextTask->number] == 0){
80001f64:	fec42783          	lw	a5,-20(s0)
80001f68:	0ae7c783          	lbu	a5,174(a5)
80001f6c:	00078713          	mv	a4,a5
80001f70:	8002e7b7          	lui	a5,0x8002e
80001f74:	a4c78793          	addi	a5,a5,-1460 # 8002da4c <_memory_end+0xf802da4c>
80001f78:	00e787b3          	add	a5,a5,a4
80001f7c:	0007c783          	lbu	a5,0(a5)
80001f80:	02079263          	bnez	a5,80001fa4 <schedule2+0x290>
              priority_group &= ~nextTask->number_mask;
80001f84:	fec42783          	lw	a5,-20(s0)
80001f88:	0b07a783          	lw	a5,176(a5)
80001f8c:	fff7c713          	not	a4,a5
80001f90:	8000b7b7          	lui	a5,0x8000b
80001f94:	0007a783          	lw	a5,0(a5) # 8000b000 <_memory_end+0xf800b000>
80001f98:	00f77733          	and	a4,a4,a5
80001f9c:	8000b7b7          	lui	a5,0x8000b
80001fa0:	00e7a023          	sw	a4,0(a5) # 8000b000 <_memory_end+0xf800b000>
          }
        }
        heap_task_count ++ ;
80001fa4:	fe842783          	lw	a5,-24(s0)
80001fa8:	00178793          	addi	a5,a5,1
80001fac:	fef42423          	sw	a5,-24(s0)
        if(heap_task_count == max_heap)
80001fb0:	fe842703          	lw	a4,-24(s0)
80001fb4:	fdc42783          	lw	a5,-36(s0)
80001fb8:	02f70263          	beq	a4,a5,80001fdc <schedule2+0x2c8>
      while(nextTask != &TCBReady[highest_priority]){
80001fbc:	0b400793          	li	a5,180
80001fc0:	02f48733          	mul	a4,s1,a5
80001fc4:	800227b7          	lui	a5,0x80022
80001fc8:	64c78793          	addi	a5,a5,1612 # 8002264c <_memory_end+0xf802264c>
80001fcc:	00f707b3          	add	a5,a4,a5
80001fd0:	fec42703          	lw	a4,-20(s0)
80001fd4:	ecf714e3          	bne	a4,a5,80001e9c <schedule2+0x188>
80001fd8:	0080006f          	j	80001fe0 <schedule2+0x2cc>
          break;
80001fdc:	00000013          	nop
      }
      
    switch_to2(switch_nextTask);//next是下個task的ctx起始位置
80001fe0:	fe442503          	lw	a0,-28(s0)
80001fe4:	d9cfe0ef          	jal	ra,80000580 <switch_to2>

}
80001fe8:	00000013          	nop
80001fec:	02c12083          	lw	ra,44(sp)
80001ff0:	02812403          	lw	s0,40(sp)
80001ff4:	02412483          	lw	s1,36(sp)
80001ff8:	03010113          	addi	sp,sp,48
80001ffc:	00008067          	ret

80002000 <r_mstatus>:
{
80002000:	fe010113          	addi	sp,sp,-32
80002004:	00812e23          	sw	s0,28(sp)
80002008:	02010413          	addi	s0,sp,32
    asm volatile("csrr %0, mstatus" : "=r" (x));
8000200c:	300027f3          	csrr	a5,mstatus
80002010:	fef42623          	sw	a5,-20(s0)
    return x;
80002014:	fec42783          	lw	a5,-20(s0)
}
80002018:	00078513          	mv	a0,a5
8000201c:	01c12403          	lw	s0,28(sp)
80002020:	02010113          	addi	sp,sp,32
80002024:	00008067          	ret

80002028 <w_mstatus>:
{
80002028:	fe010113          	addi	sp,sp,-32
8000202c:	00812e23          	sw	s0,28(sp)
80002030:	02010413          	addi	s0,sp,32
80002034:	fea42623          	sw	a0,-20(s0)
    asm volatile("csrw mstatus, %0" : : "r" (x));
80002038:	fec42783          	lw	a5,-20(s0)
8000203c:	30079073          	csrw	mstatus,a5
}
80002040:	00000013          	nop
80002044:	01c12403          	lw	s0,28(sp)
80002048:	02010113          	addi	sp,sp,32
8000204c:	00008067          	ret

80002050 <r_mie>:
static inline  reg_t r_mie(){
80002050:	fe010113          	addi	sp,sp,-32
80002054:	00812e23          	sw	s0,28(sp)
80002058:	02010413          	addi	s0,sp,32
    asm volatile("csrr %0, mie" : "=r" (x));
8000205c:	304027f3          	csrr	a5,mie
80002060:	fef42623          	sw	a5,-20(s0)
    return x;
80002064:	fec42783          	lw	a5,-20(s0)
}
80002068:	00078513          	mv	a0,a5
8000206c:	01c12403          	lw	s0,28(sp)
80002070:	02010113          	addi	sp,sp,32
80002074:	00008067          	ret

80002078 <w_mie>:
static inline void w_mie(reg_t x){
80002078:	fe010113          	addi	sp,sp,-32
8000207c:	00812e23          	sw	s0,28(sp)
80002080:	02010413          	addi	s0,sp,32
80002084:	fea42623          	sw	a0,-20(s0)
    asm volatile("csrw mie, %0" : : "r" (x));
80002088:	fec42783          	lw	a5,-20(s0)
8000208c:	30479073          	csrw	mie,a5
}
80002090:	00000013          	nop
80002094:	01c12403          	lw	s0,28(sp)
80002098:	02010113          	addi	sp,sp,32
8000209c:	00008067          	ret

800020a0 <r_mhartid>:


static inline  reg_t r_mhartid(){
800020a0:	fe010113          	addi	sp,sp,-32
800020a4:	00812e23          	sw	s0,28(sp)
800020a8:	02010413          	addi	s0,sp,32
    reg_t x;
    asm volatile("csrr %0, mhartid" : "=r" (x));
800020ac:	f14027f3          	csrr	a5,mhartid
800020b0:	fef42623          	sw	a5,-20(s0)
    return x;
800020b4:	fec42783          	lw	a5,-20(s0)
}
800020b8:	00078513          	mv	a0,a5
800020bc:	01c12403          	lw	s0,28(sp)
800020c0:	02010113          	addi	sp,sp,32
800020c4:	00008067          	ret

800020c8 <timer_init>:

mtime與mtimecmp發生中斷後並不會reset
*/
uint32_t _tick = 0;//_全域變數命名

void timer_init(){
800020c8:	ff010113          	addi	sp,sp,-16
800020cc:	00112623          	sw	ra,12(sp)
800020d0:	00812423          	sw	s0,8(sp)
800020d4:	01010413          	addi	s0,sp,16
    timer_load(SYSTEM_TICK);
800020d8:	009897b7          	lui	a5,0x989
800020dc:	68078513          	addi	a0,a5,1664 # 989680 <STACK_SIZE+0x989280>
800020e0:	040000ef          	jal	ra,80002120 <timer_load>
    w_mie(r_mie() | MIE_MTIE);//把timer interrupt enable打開
800020e4:	f6dff0ef          	jal	ra,80002050 <r_mie>
800020e8:	00050793          	mv	a5,a0
800020ec:	0807e793          	ori	a5,a5,128
800020f0:	00078513          	mv	a0,a5
800020f4:	f85ff0ef          	jal	ra,80002078 <w_mie>
    //mtie = (1 << 7)
    //MEIE  MTIE  MSIE  
    //11    7     3
    //External timer software
    w_mstatus(r_mstatus() | MSTATUS_MIE);//把interrupt enable打開
800020f8:	f09ff0ef          	jal	ra,80002000 <r_mstatus>
800020fc:	00050793          	mv	a5,a0
80002100:	0087e793          	ori	a5,a5,8
80002104:	00078513          	mv	a0,a5
80002108:	f21ff0ef          	jal	ra,80002028 <w_mstatus>
    //mie  = (1 << 3) 
    //MIE
    //3
    // uart_puts("here stuck");
}
8000210c:	00000013          	nop
80002110:	00c12083          	lw	ra,12(sp)
80002114:	00812403          	lw	s0,8(sp)
80002118:	01010113          	addi	sp,sp,16
8000211c:	00008067          	ret

80002120 <timer_load>:

//load timer interval(in ticks) for next timer interrupt.
void timer_load(int interval){
80002120:	fd010113          	addi	sp,sp,-48
80002124:	02112623          	sw	ra,44(sp)
80002128:	02812423          	sw	s0,40(sp)
8000212c:	03212223          	sw	s2,36(sp)
80002130:	03312023          	sw	s3,32(sp)
80002134:	03010413          	addi	s0,sp,48
80002138:	fca42e23          	sw	a0,-36(s0)
    int id = r_mhartid();
8000213c:	f65ff0ef          	jal	ra,800020a0 <r_mhartid>
80002140:	00050793          	mv	a5,a0
80002144:	fef42623          	sw	a5,-20(s0)
    //設定mtimecmp 也就是timer中斷的時間 
    *(uint64_t*)CLINT_MTIMECMP(id) = *(uint64_t*)CLINT_MTIME + interval;
80002148:	0200c7b7          	lui	a5,0x200c
8000214c:	ff878793          	addi	a5,a5,-8 # 200bff8 <STACK_SIZE+0x200bbf8>
80002150:	0007a703          	lw	a4,0(a5)
80002154:	0047a783          	lw	a5,4(a5)
80002158:	fdc42683          	lw	a3,-36(s0)
8000215c:	00068913          	mv	s2,a3
80002160:	41f6d693          	srai	a3,a3,0x1f
80002164:	00068993          	mv	s3,a3
80002168:	fec42603          	lw	a2,-20(s0)
8000216c:	004016b7          	lui	a3,0x401
80002170:	80068693          	addi	a3,a3,-2048 # 400800 <STACK_SIZE+0x400400>
80002174:	00d606b3          	add	a3,a2,a3
80002178:	00369693          	slli	a3,a3,0x3
8000217c:	00068513          	mv	a0,a3
80002180:	01270633          	add	a2,a4,s2
80002184:	00060593          	mv	a1,a2
80002188:	00e5b5b3          	sltu	a1,a1,a4
8000218c:	013786b3          	add	a3,a5,s3
80002190:	00d587b3          	add	a5,a1,a3
80002194:	00078693          	mv	a3,a5
80002198:	00060713          	mv	a4,a2
8000219c:	00068793          	mv	a5,a3
800021a0:	00e52023          	sw	a4,0(a0)
800021a4:	00f52223          	sw	a5,4(a0)
}
800021a8:	00000013          	nop
800021ac:	02c12083          	lw	ra,44(sp)
800021b0:	02812403          	lw	s0,40(sp)
800021b4:	02412903          	lw	s2,36(sp)
800021b8:	02012983          	lw	s3,32(sp)
800021bc:	03010113          	addi	sp,sp,48
800021c0:	00008067          	ret

800021c4 <timer_handler>:

void  timer_handler(){
800021c4:	ff010113          	addi	sp,sp,-16
800021c8:	00112623          	sw	ra,12(sp)
800021cc:	00812423          	sw	s0,8(sp)
800021d0:	01010413          	addi	s0,sp,16
    _tick++;
800021d4:	8000b7b7          	lui	a5,0x8000b
800021d8:	00c7a783          	lw	a5,12(a5) # 8000b00c <_memory_end+0xf800b00c>
800021dc:	00178713          	addi	a4,a5,1
800021e0:	8000b7b7          	lui	a5,0x8000b
800021e4:	00e7a623          	sw	a4,12(a5) # 8000b00c <_memory_end+0xf800b00c>
    kprintf("ticktock: %d\n", _tick);
800021e8:	8000b7b7          	lui	a5,0x8000b
800021ec:	00c7a783          	lw	a5,12(a5) # 8000b00c <_memory_end+0xf800b00c>
800021f0:	00078593          	mv	a1,a5
800021f4:	800087b7          	lui	a5,0x80008
800021f8:	48078513          	addi	a0,a5,1152 # 80008480 <_memory_end+0xf8008480>
800021fc:	bf9fe0ef          	jal	ra,80000df4 <kprintf>

    timer_load(SYSTEM_TICK);
80002200:	009897b7          	lui	a5,0x989
80002204:	68078513          	addi	a0,a5,1664 # 989680 <STACK_SIZE+0x989280>
80002208:	f19ff0ef          	jal	ra,80002120 <timer_load>
}
8000220c:	00000013          	nop
80002210:	00c12083          	lw	ra,12(sp)
80002214:	00812403          	lw	s0,8(sp)
80002218:	01010113          	addi	sp,sp,16
8000221c:	00008067          	ret

80002220 <_clear>:
};
//???????????????????????????
//_底線是內部涵式
//->用來訪問結構內的成員
//將page指向的struct Page裡的物件flag設為0
static inline void _clear (struct Page *page){
80002220:	fe010113          	addi	sp,sp,-32
80002224:	00812e23          	sw	s0,28(sp)
80002228:	02010413          	addi	s0,sp,32
8000222c:	fea42623          	sw	a0,-20(s0)
    page -> flags = 0;
80002230:	fec42783          	lw	a5,-20(s0)
80002234:	00078023          	sb	zero,0(a5)
}
80002238:	00000013          	nop
8000223c:	01c12403          	lw	s0,28(sp)
80002240:	02010113          	addi	sp,sp,32
80002244:	00008067          	ret

80002248 <_is_free>:

//int 是因為return整數
static inline int _is_free(struct Page *page){
80002248:	fe010113          	addi	sp,sp,-32
8000224c:	00812e23          	sw	s0,28(sp)
80002250:	02010413          	addi	s0,sp,32
80002254:	fea42623          	sw	a0,-20(s0)
    return (page -> flags & PAGE_TAKEN) ? 0 : 1;
80002258:	fec42783          	lw	a5,-20(s0)
8000225c:	0007c783          	lbu	a5,0(a5)
80002260:	0017f793          	andi	a5,a5,1
80002264:	0017b793          	seqz	a5,a5
80002268:	0ff7f793          	zext.b	a5,a5
}
8000226c:	00078513          	mv	a0,a5
80002270:	01c12403          	lw	s0,28(sp)
80002274:	02010113          	addi	sp,sp,32
80002278:	00008067          	ret

8000227c <_set_flag>:

static inline void _set_flag(struct Page *page, uint8_t flags){
8000227c:	fe010113          	addi	sp,sp,-32
80002280:	00812e23          	sw	s0,28(sp)
80002284:	02010413          	addi	s0,sp,32
80002288:	fea42623          	sw	a0,-20(s0)
8000228c:	00058793          	mv	a5,a1
80002290:	fef405a3          	sb	a5,-21(s0)
    page -> flags |= flags;
80002294:	fec42783          	lw	a5,-20(s0)
80002298:	0007c703          	lbu	a4,0(a5)
8000229c:	feb44783          	lbu	a5,-21(s0)
800022a0:	00f767b3          	or	a5,a4,a5
800022a4:	0ff7f713          	zext.b	a4,a5
800022a8:	fec42783          	lw	a5,-20(s0)
800022ac:	00e78023          	sb	a4,0(a5)
}
800022b0:	00000013          	nop
800022b4:	01c12403          	lw	s0,28(sp)
800022b8:	02010113          	addi	sp,sp,32
800022bc:	00008067          	ret

800022c0 <_is_last>:

static inline int _is_last(struct Page *page){
800022c0:	fe010113          	addi	sp,sp,-32
800022c4:	00812e23          	sw	s0,28(sp)
800022c8:	02010413          	addi	s0,sp,32
800022cc:	fea42623          	sw	a0,-20(s0)
    return (page -> flags & PAGE_LAST) ? 1 : 0;
800022d0:	fec42783          	lw	a5,-20(s0)
800022d4:	0007c783          	lbu	a5,0(a5)
800022d8:	4017d793          	srai	a5,a5,0x1
800022dc:	0017f793          	andi	a5,a5,1
}
800022e0:	00078513          	mv	a0,a5
800022e4:	01c12403          	lw	s0,28(sp)
800022e8:	02010113          	addi	sp,sp,32
800022ec:	00008067          	ret

800022f0 <_align_page>:
//????????????????????????????????????????????????????????
static inline uint32_t _align_page(uint32_t address)
{
800022f0:	fd010113          	addi	sp,sp,-48
800022f4:	02812623          	sw	s0,44(sp)
800022f8:	03010413          	addi	s0,sp,48
800022fc:	fca42e23          	sw	a0,-36(s0)
	uint32_t order = (1 << PAGE_ORDER) - 1;
80002300:	000017b7          	lui	a5,0x1
80002304:	fff78793          	addi	a5,a5,-1 # fff <STACK_SIZE+0xbff>
80002308:	fef42623          	sw	a5,-20(s0)
	return (address + order) & (~order);
8000230c:	fdc42703          	lw	a4,-36(s0)
80002310:	fec42783          	lw	a5,-20(s0)
80002314:	00f70733          	add	a4,a4,a5
80002318:	fec42783          	lw	a5,-20(s0)
8000231c:	fff7c793          	not	a5,a5
80002320:	00f777b3          	and	a5,a4,a5
}
80002324:	00078513          	mv	a0,a5
80002328:	02c12403          	lw	s0,44(sp)
8000232c:	03010113          	addi	sp,sp,48
80002330:	00008067          	ret

80002334 <page_init>:
//????????????????????????????????????????????????????????

void page_init(){
80002334:	fe010113          	addi	sp,sp,-32
80002338:	00112e23          	sw	ra,28(sp)
8000233c:	00812c23          	sw	s0,24(sp)
80002340:	02010413          	addi	s0,sp,32
    //(8 * 4096) page structures 放 flags的地方
    _num_pages = (HEAP_SIZE / PAGE_SIZE) - 8;
80002344:	800087b7          	lui	a5,0x80008
80002348:	3387a783          	lw	a5,824(a5) # 80008338 <_memory_end+0xf8008338>
8000234c:	00c7d793          	srli	a5,a5,0xc
80002350:	ff878713          	addi	a4,a5,-8
80002354:	8002e7b7          	lui	a5,0x8002e
80002358:	a6e7aa23          	sw	a4,-1420(a5) # 8002da74 <_memory_end+0xf802da74>
    //???????????????????????????????????????
    //kprintf("HEAP_START = %x, HEAP_SIZE = %x, num of pages = %d\n", HEAP_START, HEAP_SIZE, _num_pages);
    //---------------------------------------------------------------------
    //將HEAP_START強制轉換成PAGE型式，並指向struct Page裡的Page
    struct Page *page = (struct Page *)HEAP_START;
8000235c:	800087b7          	lui	a5,0x80008
80002360:	3347a783          	lw	a5,820(a5) # 80008334 <_memory_end+0xf8008334>
80002364:	fef42623          	sw	a5,-20(s0)
    //清空每個page的flag
    for (int i =0; i <_num_pages; i++) {
80002368:	fe042423          	sw	zero,-24(s0)
8000236c:	0240006f          	j	80002390 <page_init+0x5c>
        _clear(page);
80002370:	fec42503          	lw	a0,-20(s0)
80002374:	eadff0ef          	jal	ra,80002220 <_clear>
        page++;
80002378:	fec42783          	lw	a5,-20(s0)
8000237c:	00178793          	addi	a5,a5,1
80002380:	fef42623          	sw	a5,-20(s0)
    for (int i =0; i <_num_pages; i++) {
80002384:	fe842783          	lw	a5,-24(s0)
80002388:	00178793          	addi	a5,a5,1
8000238c:	fef42423          	sw	a5,-24(s0)
80002390:	fe842703          	lw	a4,-24(s0)
80002394:	8002e7b7          	lui	a5,0x8002e
80002398:	a747a783          	lw	a5,-1420(a5) # 8002da74 <_memory_end+0xf802da74>
8000239c:	fcf76ae3          	bltu	a4,a5,80002370 <page_init+0x3c>
    }
    //????????????????????????????????????????????????????????????????
    _alloc_start = _align_page(HEAP_START + 8 * PAGE_SIZE);
800023a0:	800087b7          	lui	a5,0x80008
800023a4:	3347a703          	lw	a4,820(a5) # 80008334 <_memory_end+0xf8008334>
800023a8:	000087b7          	lui	a5,0x8
800023ac:	00f707b3          	add	a5,a4,a5
800023b0:	00078513          	mv	a0,a5
800023b4:	f3dff0ef          	jal	ra,800022f0 <_align_page>
800023b8:	00050713          	mv	a4,a0
800023bc:	8002e7b7          	lui	a5,0x8002e
800023c0:	a6e7a623          	sw	a4,-1428(a5) # 8002da6c <_memory_end+0xf802da6c>
	_alloc_end = _alloc_start + (PAGE_SIZE * _num_pages);
800023c4:	8002e7b7          	lui	a5,0x8002e
800023c8:	a747a783          	lw	a5,-1420(a5) # 8002da74 <_memory_end+0xf802da74>
800023cc:	00c79713          	slli	a4,a5,0xc
800023d0:	8002e7b7          	lui	a5,0x8002e
800023d4:	a6c7a783          	lw	a5,-1428(a5) # 8002da6c <_memory_end+0xf802da6c>
800023d8:	00f70733          	add	a4,a4,a5
800023dc:	8002e7b7          	lui	a5,0x8002e
800023e0:	a6e7a823          	sw	a4,-1424(a5) # 8002da70 <_memory_end+0xf802da70>
    // kprintf("TEXT:   0x%x -> 0x%x\n", TEXT_START, TEXT_END);
	// kprintf("RODATA: 0x%x -> 0x%x\n", RODATA_START, RODATA_END);
	// kprintf("DATA:   0x%x -> 0x%x\n", DATA_START, DATA_END);
	// kprintf("BSS:    0x%x -> 0x%x\n", BSS_START, BSS_END);
	// kprintf("HEAP:   0x%x -> 0x%x\n", _alloc_start, _alloc_end);
}
800023e4:	00000013          	nop
800023e8:	01c12083          	lw	ra,28(sp)
800023ec:	01812403          	lw	s0,24(sp)
800023f0:	02010113          	addi	sp,sp,32
800023f4:	00008067          	ret

800023f8 <page_alloc>:

//npages 多少 pages 要 allocate
void *page_alloc(int npages){
800023f8:	fc010113          	addi	sp,sp,-64
800023fc:	02112e23          	sw	ra,60(sp)
80002400:	02812c23          	sw	s0,56(sp)
80002404:	04010413          	addi	s0,sp,64
80002408:	fca42623          	sw	a0,-52(s0)
    int found = 0;
8000240c:	fe042623          	sw	zero,-20(s0)
    //page_i 是從HEAP_START開始找
    //_num_pages - npages是因為至少要找到npages個連續pages
    struct Page *page_i = (struct Page *)HEAP_START;
80002410:	800087b7          	lui	a5,0x80008
80002414:	3347a783          	lw	a5,820(a5) # 80008334 <_memory_end+0xf8008334>
80002418:	fef42423          	sw	a5,-24(s0)
    for (int i = 0; i <= (_num_pages - npages); i++ ){
8000241c:	fe042223          	sw	zero,-28(s0)
80002420:	1140006f          	j	80002534 <page_alloc+0x13c>
        if (_is_free(page_i)) {
80002424:	fe842503          	lw	a0,-24(s0)
80002428:	e21ff0ef          	jal	ra,80002248 <_is_free>
8000242c:	00050793          	mv	a5,a0
80002430:	0e078663          	beqz	a5,8000251c <page_alloc+0x124>
            found = 1;
80002434:	00100793          	li	a5,1
80002438:	fef42623          	sw	a5,-20(s0)
            //假如找到free的page，found就設1
            //然繼續找直到
            struct Page *page_j = page_i;
8000243c:	fe842783          	lw	a5,-24(s0)
80002440:	fef42023          	sw	a5,-32(s0)
            //找第i個page後連續記憶體
            for (int j = i; j < (i + npages); j++){
80002444:	fe442783          	lw	a5,-28(s0)
80002448:	fcf42e23          	sw	a5,-36(s0)
8000244c:	0340006f          	j	80002480 <page_alloc+0x88>
                if (!_is_free(page_j)) {
80002450:	fe042503          	lw	a0,-32(s0)
80002454:	df5ff0ef          	jal	ra,80002248 <_is_free>
80002458:	00050793          	mv	a5,a0
8000245c:	00079663          	bnez	a5,80002468 <page_alloc+0x70>
                    found = 0;
80002460:	fe042623          	sw	zero,-20(s0)
                    break;
80002464:	0300006f          	j	80002494 <page_alloc+0x9c>
                }
                page_j++;
80002468:	fe042783          	lw	a5,-32(s0)
8000246c:	00178793          	addi	a5,a5,1
80002470:	fef42023          	sw	a5,-32(s0)
            for (int j = i; j < (i + npages); j++){
80002474:	fdc42783          	lw	a5,-36(s0)
80002478:	00178793          	addi	a5,a5,1
8000247c:	fcf42e23          	sw	a5,-36(s0)
80002480:	fe442703          	lw	a4,-28(s0)
80002484:	fcc42783          	lw	a5,-52(s0)
80002488:	00f707b3          	add	a5,a4,a5
8000248c:	fdc42703          	lw	a4,-36(s0)
80002490:	fcf740e3          	blt	a4,a5,80002450 <page_alloc+0x58>
            }
            //找到第i個後連續napges的空間
            //設PAGE_TAKEN
            //最後一個設PAGE_LAST
            if(found) {
80002494:	fec42783          	lw	a5,-20(s0)
80002498:	08078263          	beqz	a5,8000251c <page_alloc+0x124>
                struct Page *page_k = page_i;
8000249c:	fe842783          	lw	a5,-24(s0)
800024a0:	fcf42c23          	sw	a5,-40(s0)
                for( int k=i; k<(i+npages); k++){
800024a4:	fe442783          	lw	a5,-28(s0)
800024a8:	fcf42a23          	sw	a5,-44(s0)
800024ac:	0280006f          	j	800024d4 <page_alloc+0xdc>
                    _set_flag(page_k, PAGE_TAKEN);
800024b0:	00100593          	li	a1,1
800024b4:	fd842503          	lw	a0,-40(s0)
800024b8:	dc5ff0ef          	jal	ra,8000227c <_set_flag>
                    page_k++;
800024bc:	fd842783          	lw	a5,-40(s0)
800024c0:	00178793          	addi	a5,a5,1
800024c4:	fcf42c23          	sw	a5,-40(s0)
                for( int k=i; k<(i+npages); k++){
800024c8:	fd442783          	lw	a5,-44(s0)
800024cc:	00178793          	addi	a5,a5,1
800024d0:	fcf42a23          	sw	a5,-44(s0)
800024d4:	fe442703          	lw	a4,-28(s0)
800024d8:	fcc42783          	lw	a5,-52(s0)
800024dc:	00f707b3          	add	a5,a4,a5
800024e0:	fd442703          	lw	a4,-44(s0)
800024e4:	fcf746e3          	blt	a4,a5,800024b0 <page_alloc+0xb8>
                }
                page_k--;
800024e8:	fd842783          	lw	a5,-40(s0)
800024ec:	fff78793          	addi	a5,a5,-1
800024f0:	fcf42c23          	sw	a5,-40(s0)
                _set_flag(page_k, PAGE_LAST);
800024f4:	00200593          	li	a1,2
800024f8:	fd842503          	lw	a0,-40(s0)
800024fc:	d81ff0ef          	jal	ra,8000227c <_set_flag>
                //???????????????????????????????????????????????????
                return (void *)(_alloc_start+i * PAGE_SIZE);
80002500:	fe442783          	lw	a5,-28(s0)
80002504:	00c79793          	slli	a5,a5,0xc
80002508:	00078713          	mv	a4,a5
8000250c:	8002e7b7          	lui	a5,0x8002e
80002510:	a6c7a783          	lw	a5,-1428(a5) # 8002da6c <_memory_end+0xf802da6c>
80002514:	00f707b3          	add	a5,a4,a5
80002518:	0380006f          	j	80002550 <page_alloc+0x158>
            }
        }
        page_i++;
8000251c:	fe842783          	lw	a5,-24(s0)
80002520:	00178793          	addi	a5,a5,1
80002524:	fef42423          	sw	a5,-24(s0)
    for (int i = 0; i <= (_num_pages - npages); i++ ){
80002528:	fe442783          	lw	a5,-28(s0)
8000252c:	00178793          	addi	a5,a5,1
80002530:	fef42223          	sw	a5,-28(s0)
80002534:	8002e7b7          	lui	a5,0x8002e
80002538:	a747a703          	lw	a4,-1420(a5) # 8002da74 <_memory_end+0xf802da74>
8000253c:	fcc42783          	lw	a5,-52(s0)
80002540:	40f70733          	sub	a4,a4,a5
80002544:	fe442783          	lw	a5,-28(s0)
80002548:	ecf77ee3          	bgeu	a4,a5,80002424 <page_alloc+0x2c>
    }
    return NULL;
8000254c:	00000793          	li	a5,0
}
80002550:	00078513          	mv	a0,a5
80002554:	03c12083          	lw	ra,60(sp)
80002558:	03812403          	lw	s0,56(sp)
8000255c:	04010113          	addi	sp,sp,64
80002560:	00008067          	ret

80002564 <page_free>:

void page_free(void *free_address){
80002564:	fd010113          	addi	sp,sp,-48
80002568:	02112623          	sw	ra,44(sp)
8000256c:	02812423          	sw	s0,40(sp)
80002570:	03010413          	addi	s0,sp,48
80002574:	fca42e23          	sw	a0,-36(s0)
    //檢查free_adress是否為空，且要在alloc裡面
    if (!free_address || (uint32_t)free_address >= _alloc_end){
80002578:	fdc42783          	lw	a5,-36(s0)
8000257c:	08078463          	beqz	a5,80002604 <page_free+0xa0>
80002580:	fdc42703          	lw	a4,-36(s0)
80002584:	8002e7b7          	lui	a5,0x8002e
80002588:	a707a783          	lw	a5,-1424(a5) # 8002da70 <_memory_end+0xf802da70>
8000258c:	06f77c63          	bgeu	a4,a5,80002604 <page_free+0xa0>
        return;
    }
    //得到page
    struct Page *page = ( struct Page *)HEAP_START;
80002590:	800087b7          	lui	a5,0x80008
80002594:	3347a783          	lw	a5,820(a5) # 80008334 <_memory_end+0xf8008334>
80002598:	fef42623          	sw	a5,-20(s0)
    //????????????????????????????????????????????????????????????????????
    page +=((uint32_t)free_address - _alloc_start) / PAGE_SIZE;
8000259c:	fdc42703          	lw	a4,-36(s0)
800025a0:	8002e7b7          	lui	a5,0x8002e
800025a4:	a6c7a783          	lw	a5,-1428(a5) # 8002da6c <_memory_end+0xf802da6c>
800025a8:	40f707b3          	sub	a5,a4,a5
800025ac:	00c7d793          	srli	a5,a5,0xc
800025b0:	fec42703          	lw	a4,-20(s0)
800025b4:	00f707b3          	add	a5,a4,a5
800025b8:	fef42623          	sw	a5,-20(s0)
    //處理
    //如果page不是free
    //如果是最後page，free完break
    //如果不是就繼續free直到最後一個page
    while (!_is_free(page)) {
800025bc:	0340006f          	j	800025f0 <page_free+0x8c>
        if (_is_last(page)) {
800025c0:	fec42503          	lw	a0,-20(s0)
800025c4:	cfdff0ef          	jal	ra,800022c0 <_is_last>
800025c8:	00050793          	mv	a5,a0
800025cc:	00078863          	beqz	a5,800025dc <page_free+0x78>
            _clear(page);
800025d0:	fec42503          	lw	a0,-20(s0)
800025d4:	c4dff0ef          	jal	ra,80002220 <_clear>
            break;
800025d8:	0300006f          	j	80002608 <page_free+0xa4>
        } else {
            _clear(page);
800025dc:	fec42503          	lw	a0,-20(s0)
800025e0:	c41ff0ef          	jal	ra,80002220 <_clear>
            page++;
800025e4:	fec42783          	lw	a5,-20(s0)
800025e8:	00178793          	addi	a5,a5,1
800025ec:	fef42623          	sw	a5,-20(s0)
    while (!_is_free(page)) {
800025f0:	fec42503          	lw	a0,-20(s0)
800025f4:	c55ff0ef          	jal	ra,80002248 <_is_free>
800025f8:	00050793          	mv	a5,a0
800025fc:	fc0782e3          	beqz	a5,800025c0 <page_free+0x5c>
80002600:	0080006f          	j	80002608 <page_free+0xa4>
        return;
80002604:	00000013          	nop
        }
    }
}
80002608:	02c12083          	lw	ra,44(sp)
8000260c:	02812403          	lw	s0,40(sp)
80002610:	03010113          	addi	sp,sp,48
80002614:	00008067          	ret

80002618 <free>:

void free(void *p)
{
80002618:	fe010113          	addi	sp,sp,-32
8000261c:	00112e23          	sw	ra,28(sp)
80002620:	00812c23          	sw	s0,24(sp)
80002624:	02010413          	addi	s0,sp,32
80002628:	fea42623          	sw	a0,-20(s0)
    page_free(p);
8000262c:	fec42503          	lw	a0,-20(s0)
80002630:	f35ff0ef          	jal	ra,80002564 <page_free>
}
80002634:	00000013          	nop
80002638:	01c12083          	lw	ra,28(sp)
8000263c:	01812403          	lw	s0,24(sp)
80002640:	02010113          	addi	sp,sp,32
80002644:	00008067          	ret

80002648 <malloc>:
// 	void *p3 = page_alloc(4);
// 	kprintf("p3 = 0x%x\n", p3);
// }

void *malloc(size_t size)
{
80002648:	fd010113          	addi	sp,sp,-48
8000264c:	02112623          	sw	ra,44(sp)
80002650:	02812423          	sw	s0,40(sp)
80002654:	03010413          	addi	s0,sp,48
80002658:	fca42e23          	sw	a0,-36(s0)
  int res = size % PAGE_SIZE;
8000265c:	fdc42703          	lw	a4,-36(s0)
80002660:	000017b7          	lui	a5,0x1
80002664:	fff78793          	addi	a5,a5,-1 # fff <STACK_SIZE+0xbff>
80002668:	00f777b3          	and	a5,a4,a5
8000266c:	fef42423          	sw	a5,-24(s0)
  int npages = size/PAGE_SIZE;
80002670:	fdc42783          	lw	a5,-36(s0)
80002674:	00c7d793          	srli	a5,a5,0xc
80002678:	fef42623          	sw	a5,-20(s0)

  if (res>0) npages++;
8000267c:	fe842783          	lw	a5,-24(s0)
80002680:	00f05863          	blez	a5,80002690 <malloc+0x48>
80002684:	fec42783          	lw	a5,-20(s0)
80002688:	00178793          	addi	a5,a5,1
8000268c:	fef42623          	sw	a5,-20(s0)
  return page_alloc(npages);
80002690:	fec42503          	lw	a0,-20(s0)
80002694:	d65ff0ef          	jal	ra,800023f8 <page_alloc>
80002698:	00050793          	mv	a5,a0
}
8000269c:	00078513          	mv	a0,a5
800026a0:	02c12083          	lw	ra,44(sp)
800026a4:	02812403          	lw	s0,40(sp)
800026a8:	03010113          	addi	sp,sp,48
800026ac:	00008067          	ret

800026b0 <r_mcycle>:
{
800026b0:	fe010113          	addi	sp,sp,-32
800026b4:	00812e23          	sw	s0,28(sp)
800026b8:	02010413          	addi	s0,sp,32
	asm volatile("csrr %0, mcycle" : "=r" (x) );
800026bc:	b00027f3          	csrr	a5,mcycle
800026c0:	fef42623          	sw	a5,-20(s0)
	return x;
800026c4:	fec42783          	lw	a5,-20(s0)
}
800026c8:	00078513          	mv	a0,a5
800026cc:	01c12403          	lw	s0,28(sp)
800026d0:	02010113          	addi	sp,sp,32
800026d4:	00008067          	ret

800026d8 <start_kernel>:

extern void uart_init(void);
extern void page_init(void);

void start_kernel(void)
{
800026d8:	fe010113          	addi	sp,sp,-32
800026dc:	00112e23          	sw	ra,28(sp)
800026e0:	00812c23          	sw	s0,24(sp)
800026e4:	02010413          	addi	s0,sp,32
	uart_init();
800026e8:	fb8fe0ef          	jal	ra,80000ea0 <uart_init>
	uart_puts("heaptest!\n");
800026ec:	800087b7          	lui	a5,0x80008
800026f0:	49078513          	addi	a0,a5,1168 # 80008490 <_memory_end+0xf8008490>
800026f4:	805fe0ef          	jal	ra,80000ef8 <uart_puts>
	
	page_init();
800026f8:	c3dff0ef          	jal	ra,80002334 <page_init>
	trap_init();
800026fc:	b25fe0ef          	jal	ra,80001220 <trap_init>
	// timer_init();
	sched_init();
80002700:	db4ff0ef          	jal	ra,80001cb4 <sched_init>
	InitTCBList();
80002704:	e4dfe0ef          	jal	ra,80001550 <InitTCBList>
	readyQ_init();
80002708:	f95fe0ef          	jal	ra,8000169c <readyQ_init>
	int mcycleb = r_mcycle();
8000270c:	fa5ff0ef          	jal	ra,800026b0 <r_mcycle>
80002710:	00050793          	mv	a5,a0
80002714:	fef42623          	sw	a5,-20(s0)
	//kprintf ("a %d\n",mcycleb);
	loadTasks(); //把TAsSK放進TCBReady之中
80002718:	3d9020ef          	jal	ra,800052f0 <loadTasks>
	int mcyclea = r_mcycle();
8000271c:	f95ff0ef          	jal	ra,800026b0 <r_mcycle>
80002720:	00050793          	mv	a5,a0
80002724:	fef42423          	sw	a5,-24(s0)
	//kprintf ("b %d\n",mcyclea);
	schedule();
80002728:	db8ff0ef          	jal	ra,80001ce0 <schedule>
	while (1) {}; // stop here!	
8000272c:	0000006f          	j	8000272c <start_kernel+0x54>

80002730 <user_task1>:
#include "os.h" 
void user_task1(void *p) {
80002730:	fe010113          	addi	sp,sp,-32
80002734:	00112e23          	sw	ra,28(sp)
80002738:	00812c23          	sw	s0,24(sp)
8000273c:	02010413          	addi	s0,sp,32
80002740:	fea42623          	sw	a0,-20(s0)
    while (1) {
        //uart_puts("-----------Task 1-----------\n");
        uart_puts("Task 1 priority = 81 \n");
80002744:	800087b7          	lui	a5,0x80008
80002748:	49c78513          	addi	a0,a5,1180 # 8000849c <_memory_end+0xf800849c>
8000274c:	facfe0ef          	jal	ra,80000ef8 <uart_puts>
        task_yield();
80002750:	c4cff0ef          	jal	ra,80001b9c <task_yield>
        uart_puts("Task 1 priority = 81 \n");
80002754:	ff1ff06f          	j	80002744 <user_task1+0x14>

80002758 <user_task2>:
        //uart_puts("return Task 3 \n");
    }
}

void user_task2(void *p) {
80002758:	fe010113          	addi	sp,sp,-32
8000275c:	00112e23          	sw	ra,28(sp)
80002760:	00812c23          	sw	s0,24(sp)
80002764:	02010413          	addi	s0,sp,32
80002768:	fea42623          	sw	a0,-20(s0)
    while (1) {
        //uart_puts("-----------Task 2-----------\n");
        uart_puts("Task 2 priority = 78 \n");
8000276c:	800087b7          	lui	a5,0x80008
80002770:	4b478513          	addi	a0,a5,1204 # 800084b4 <_memory_end+0xf80084b4>
80002774:	f84fe0ef          	jal	ra,80000ef8 <uart_puts>
        task_yield();
80002778:	c24ff0ef          	jal	ra,80001b9c <task_yield>
        uart_puts("Task 2 priority = 78 \n");
8000277c:	ff1ff06f          	j	8000276c <user_task2+0x14>

80002780 <user_task3>:
        //uart_puts("return Task 2 \n");
    }
}

void user_task3(void *p) {
80002780:	fe010113          	addi	sp,sp,-32
80002784:	00112e23          	sw	ra,28(sp)
80002788:	00812c23          	sw	s0,24(sp)
8000278c:	02010413          	addi	s0,sp,32
80002790:	fea42623          	sw	a0,-20(s0)
    while (1) {
        //uart_puts("-----------Task 3-----------\n");
        uart_puts("Task 3 priority = 163 \n");
80002794:	800087b7          	lui	a5,0x80008
80002798:	4cc78513          	addi	a0,a5,1228 # 800084cc <_memory_end+0xf80084cc>
8000279c:	f5cfe0ef          	jal	ra,80000ef8 <uart_puts>
        task_yield();
800027a0:	bfcff0ef          	jal	ra,80001b9c <task_yield>
        uart_puts("Task 3 priority = 163 \n");
800027a4:	ff1ff06f          	j	80002794 <user_task3+0x14>

800027a8 <user_task4>:
        //uart_puts("return Task 7 \n");
    }
}

void user_task4(void *p) {
800027a8:	fe010113          	addi	sp,sp,-32
800027ac:	00112e23          	sw	ra,28(sp)
800027b0:	00812c23          	sw	s0,24(sp)
800027b4:	02010413          	addi	s0,sp,32
800027b8:	fea42623          	sw	a0,-20(s0)
    while (1) {
        //uart_puts("-----------Task 4-----------\n");
        uart_puts("Task 4 priority = 117 \n");
800027bc:	800087b7          	lui	a5,0x80008
800027c0:	4e478513          	addi	a0,a5,1252 # 800084e4 <_memory_end+0xf80084e4>
800027c4:	f34fe0ef          	jal	ra,80000ef8 <uart_puts>
        task_yield();
800027c8:	bd4ff0ef          	jal	ra,80001b9c <task_yield>
        uart_puts("Task 4 priority = 117 \n");
800027cc:	ff1ff06f          	j	800027bc <user_task4+0x14>

800027d0 <user_task5>:
        //uart_puts("return Task 17 \n");
    }
}

void user_task5(void *p) {
800027d0:	fe010113          	addi	sp,sp,-32
800027d4:	00112e23          	sw	ra,28(sp)
800027d8:	00812c23          	sw	s0,24(sp)
800027dc:	02010413          	addi	s0,sp,32
800027e0:	fea42623          	sw	a0,-20(s0)
    while (1) {
        //uart_puts("-----------Task 5-----------\n");
        uart_puts("Task 5 priority = 188 \n");
800027e4:	800087b7          	lui	a5,0x80008
800027e8:	4fc78513          	addi	a0,a5,1276 # 800084fc <_memory_end+0xf80084fc>
800027ec:	f0cfe0ef          	jal	ra,80000ef8 <uart_puts>
        task_yield();
800027f0:	bacff0ef          	jal	ra,80001b9c <task_yield>
        uart_puts("Task 5 priority = 188 \n");
800027f4:	ff1ff06f          	j	800027e4 <user_task5+0x14>

800027f8 <user_task6>:
        //uart_puts("return Task 30 \n");
    }
}

void user_task6(void *p) {
800027f8:	fe010113          	addi	sp,sp,-32
800027fc:	00112e23          	sw	ra,28(sp)
80002800:	00812c23          	sw	s0,24(sp)
80002804:	02010413          	addi	s0,sp,32
80002808:	fea42623          	sw	a0,-20(s0)
    while (1) {
        //uart_puts("-----------Task 6-----------\n");
        uart_puts("Task 6 priority = 102 \n");
8000280c:	800087b7          	lui	a5,0x80008
80002810:	51478513          	addi	a0,a5,1300 # 80008514 <_memory_end+0xf8008514>
80002814:	ee4fe0ef          	jal	ra,80000ef8 <uart_puts>
        task_yield();
80002818:	b84ff0ef          	jal	ra,80001b9c <task_yield>
        uart_puts("Task 6 priority = 102 \n");
8000281c:	ff1ff06f          	j	8000280c <user_task6+0x14>

80002820 <user_task7>:
        //uart_puts("return Task 39 \n");
    }
}

void user_task7(void *p) {
80002820:	fe010113          	addi	sp,sp,-32
80002824:	00112e23          	sw	ra,28(sp)
80002828:	00812c23          	sw	s0,24(sp)
8000282c:	02010413          	addi	s0,sp,32
80002830:	fea42623          	sw	a0,-20(s0)
    while (1) {
        //uart_puts("-----------Task 7-----------\n");
        uart_puts("Task 7 priority = 220 \n");
80002834:	800087b7          	lui	a5,0x80008
80002838:	52c78513          	addi	a0,a5,1324 # 8000852c <_memory_end+0xf800852c>
8000283c:	ebcfe0ef          	jal	ra,80000ef8 <uart_puts>
        task_yield();
80002840:	b5cff0ef          	jal	ra,80001b9c <task_yield>
        uart_puts("Task 7 priority = 220 \n");
80002844:	ff1ff06f          	j	80002834 <user_task7+0x14>

80002848 <user_task8>:
        //uart_puts("return Task 45 \n");
    }
}

void user_task8(void *p) {
80002848:	fe010113          	addi	sp,sp,-32
8000284c:	00112e23          	sw	ra,28(sp)
80002850:	00812c23          	sw	s0,24(sp)
80002854:	02010413          	addi	s0,sp,32
80002858:	fea42623          	sw	a0,-20(s0)
    while (1) {
        //uart_puts("-----------Task 8-----------\n");
        uart_puts("Task 8 priority = 45 \n");
8000285c:	800087b7          	lui	a5,0x80008
80002860:	54478513          	addi	a0,a5,1348 # 80008544 <_memory_end+0xf8008544>
80002864:	e94fe0ef          	jal	ra,80000ef8 <uart_puts>
        task_yield();
80002868:	b34ff0ef          	jal	ra,80001b9c <task_yield>
        uart_puts("Task 8 priority = 45 \n");
8000286c:	ff1ff06f          	j	8000285c <user_task8+0x14>

80002870 <user_task9>:
        //uart_puts("return Task 33 \n");
    }
}

void user_task9(void *p) {
80002870:	fe010113          	addi	sp,sp,-32
80002874:	00112e23          	sw	ra,28(sp)
80002878:	00812c23          	sw	s0,24(sp)
8000287c:	02010413          	addi	s0,sp,32
80002880:	fea42623          	sw	a0,-20(s0)
    while (1) {
        //uart_puts("-----------Task 9-----------\n");
        uart_puts("Task 9 priority = 166 \n");
80002884:	800087b7          	lui	a5,0x80008
80002888:	55c78513          	addi	a0,a5,1372 # 8000855c <_memory_end+0xf800855c>
8000288c:	e6cfe0ef          	jal	ra,80000ef8 <uart_puts>
        task_yield();
80002890:	b0cff0ef          	jal	ra,80001b9c <task_yield>
        uart_puts("Task 9 priority = 166 \n");
80002894:	ff1ff06f          	j	80002884 <user_task9+0x14>

80002898 <user_task10>:
        //uart_puts("return Task 32 \n");
    }
}

void user_task10(void *p) {
80002898:	fe010113          	addi	sp,sp,-32
8000289c:	00112e23          	sw	ra,28(sp)
800028a0:	00812c23          	sw	s0,24(sp)
800028a4:	02010413          	addi	s0,sp,32
800028a8:	fea42623          	sw	a0,-20(s0)
    while (1) {
        //uart_puts("-----------Task 10-----------\n");
        uart_puts("Task 10 priority = 64 \n");
800028ac:	800087b7          	lui	a5,0x80008
800028b0:	57478513          	addi	a0,a5,1396 # 80008574 <_memory_end+0xf8008574>
800028b4:	e44fe0ef          	jal	ra,80000ef8 <uart_puts>
        task_yield();
800028b8:	ae4ff0ef          	jal	ra,80001b9c <task_yield>
        uart_puts("Task 10 priority = 64 \n");
800028bc:	ff1ff06f          	j	800028ac <user_task10+0x14>

800028c0 <user_task11>:
        //uart_puts("return Task 10 \n");
    }
}

void user_task11(void *p) {
800028c0:	fe010113          	addi	sp,sp,-32
800028c4:	00112e23          	sw	ra,28(sp)
800028c8:	00812c23          	sw	s0,24(sp)
800028cc:	02010413          	addi	s0,sp,32
800028d0:	fea42623          	sw	a0,-20(s0)
    while (1) {
        //uart_puts("-----------Task 11-----------\n");
        uart_puts("Task 11 priority = 143 \n");
800028d4:	800087b7          	lui	a5,0x80008
800028d8:	58c78513          	addi	a0,a5,1420 # 8000858c <_memory_end+0xf800858c>
800028dc:	e1cfe0ef          	jal	ra,80000ef8 <uart_puts>
        task_yield();
800028e0:	abcff0ef          	jal	ra,80001b9c <task_yield>
        uart_puts("Task 11 priority = 143 \n");
800028e4:	ff1ff06f          	j	800028d4 <user_task11+0x14>

800028e8 <user_task12>:
        //uart_puts("return Task 36 \n");
    }
}

void user_task12(void *p) {
800028e8:	fe010113          	addi	sp,sp,-32
800028ec:	00112e23          	sw	ra,28(sp)
800028f0:	00812c23          	sw	s0,24(sp)
800028f4:	02010413          	addi	s0,sp,32
800028f8:	fea42623          	sw	a0,-20(s0)
    while (1) {
        //uart_puts("-----------Task 12-----------\n");
        uart_puts("Task 12 priority = 71 \n");
800028fc:	800087b7          	lui	a5,0x80008
80002900:	5a878513          	addi	a0,a5,1448 # 800085a8 <_memory_end+0xf80085a8>
80002904:	df4fe0ef          	jal	ra,80000ef8 <uart_puts>
        task_yield();
80002908:	a94ff0ef          	jal	ra,80001b9c <task_yield>
        uart_puts("Task 12 priority = 71 \n");
8000290c:	ff1ff06f          	j	800028fc <user_task12+0x14>

80002910 <user_task13>:
        //uart_puts("return Task 30 \n");
    }
}

void user_task13(void *p) {
80002910:	fe010113          	addi	sp,sp,-32
80002914:	00112e23          	sw	ra,28(sp)
80002918:	00812c23          	sw	s0,24(sp)
8000291c:	02010413          	addi	s0,sp,32
80002920:	fea42623          	sw	a0,-20(s0)
    while (1) {
        //uart_puts("-----------Task 13-----------\n");
        uart_puts("Task 13 priority = 60 \n");
80002924:	800087b7          	lui	a5,0x80008
80002928:	5c078513          	addi	a0,a5,1472 # 800085c0 <_memory_end+0xf80085c0>
8000292c:	dccfe0ef          	jal	ra,80000ef8 <uart_puts>
        task_yield();
80002930:	a6cff0ef          	jal	ra,80001b9c <task_yield>
        uart_puts("Task 13 priority = 60 \n");
80002934:	ff1ff06f          	j	80002924 <user_task13+0x14>

80002938 <user_task14>:
        //uart_puts("return Task 10 \n");
    }
}

void user_task14(void *p) {
80002938:	fe010113          	addi	sp,sp,-32
8000293c:	00112e23          	sw	ra,28(sp)
80002940:	00812c23          	sw	s0,24(sp)
80002944:	02010413          	addi	s0,sp,32
80002948:	fea42623          	sw	a0,-20(s0)
    while (1) {
        //uart_puts("-----------Task 14-----------\n");
        uart_puts("Task 14 priority = 168 \n");
8000294c:	800087b7          	lui	a5,0x80008
80002950:	5d878513          	addi	a0,a5,1496 # 800085d8 <_memory_end+0xf80085d8>
80002954:	da4fe0ef          	jal	ra,80000ef8 <uart_puts>
        task_yield();
80002958:	a44ff0ef          	jal	ra,80001b9c <task_yield>
        uart_puts("Task 14 priority = 168 \n");
8000295c:	ff1ff06f          	j	8000294c <user_task14+0x14>

80002960 <user_task15>:
        //uart_puts("return Task 19 \n");
    }
}

void user_task15(void *p) {
80002960:	fe010113          	addi	sp,sp,-32
80002964:	00112e23          	sw	ra,28(sp)
80002968:	00812c23          	sw	s0,24(sp)
8000296c:	02010413          	addi	s0,sp,32
80002970:	fea42623          	sw	a0,-20(s0)
    while (1) {
        //uart_puts("-----------Task 15-----------\n");
        uart_puts("Task 15 priority = 9 \n");
80002974:	800087b7          	lui	a5,0x80008
80002978:	5f478513          	addi	a0,a5,1524 # 800085f4 <_memory_end+0xf80085f4>
8000297c:	d7cfe0ef          	jal	ra,80000ef8 <uart_puts>
        task_yield();
80002980:	a1cff0ef          	jal	ra,80001b9c <task_yield>
        uart_puts("Task 15 priority = 9 \n");
80002984:	ff1ff06f          	j	80002974 <user_task15+0x14>

80002988 <user_task16>:
        //uart_puts("return Task 5 \n");
    }
}

void user_task16(void *p) {
80002988:	fe010113          	addi	sp,sp,-32
8000298c:	00112e23          	sw	ra,28(sp)
80002990:	00812c23          	sw	s0,24(sp)
80002994:	02010413          	addi	s0,sp,32
80002998:	fea42623          	sw	a0,-20(s0)
    while (1) {
        //uart_puts("-----------Task 16-----------\n");
        uart_puts("Task 16 priority = 125 \n");
8000299c:	800087b7          	lui	a5,0x80008
800029a0:	60c78513          	addi	a0,a5,1548 # 8000860c <_memory_end+0xf800860c>
800029a4:	d54fe0ef          	jal	ra,80000ef8 <uart_puts>
        task_yield();
800029a8:	9f4ff0ef          	jal	ra,80001b9c <task_yield>
        uart_puts("Task 16 priority = 125 \n");
800029ac:	ff1ff06f          	j	8000299c <user_task16+0x14>

800029b0 <user_task17>:
        //uart_puts("return Task 39 \n");
    }
}

void user_task17(void *p) {
800029b0:	fe010113          	addi	sp,sp,-32
800029b4:	00112e23          	sw	ra,28(sp)
800029b8:	00812c23          	sw	s0,24(sp)
800029bc:	02010413          	addi	s0,sp,32
800029c0:	fea42623          	sw	a0,-20(s0)
    while (1) {
        //uart_puts("-----------Task 17-----------\n");
        uart_puts("Task 17 priority = 96 \n");
800029c4:	800087b7          	lui	a5,0x80008
800029c8:	62878513          	addi	a0,a5,1576 # 80008628 <_memory_end+0xf8008628>
800029cc:	d2cfe0ef          	jal	ra,80000ef8 <uart_puts>
        task_yield();
800029d0:	9ccff0ef          	jal	ra,80001b9c <task_yield>
        uart_puts("Task 17 priority = 96 \n");
800029d4:	ff1ff06f          	j	800029c4 <user_task17+0x14>

800029d8 <user_task18>:
        //uart_puts("return Task 12 \n");
    }
}

void user_task18(void *p) {
800029d8:	fe010113          	addi	sp,sp,-32
800029dc:	00112e23          	sw	ra,28(sp)
800029e0:	00812c23          	sw	s0,24(sp)
800029e4:	02010413          	addi	s0,sp,32
800029e8:	fea42623          	sw	a0,-20(s0)
    while (1) {
        //uart_puts("-----------Task 18-----------\n");
        uart_puts("Task 18 priority = 3 \n");
800029ec:	800087b7          	lui	a5,0x80008
800029f0:	64078513          	addi	a0,a5,1600 # 80008640 <_memory_end+0xf8008640>
800029f4:	d04fe0ef          	jal	ra,80000ef8 <uart_puts>
        task_yield();
800029f8:	9a4ff0ef          	jal	ra,80001b9c <task_yield>
        uart_puts("Task 18 priority = 3 \n");
800029fc:	ff1ff06f          	j	800029ec <user_task18+0x14>

80002a00 <user_task19>:
        //uart_puts("return Task 15 \n");
    }
}

void user_task19(void *p) {
80002a00:	fe010113          	addi	sp,sp,-32
80002a04:	00112e23          	sw	ra,28(sp)
80002a08:	00812c23          	sw	s0,24(sp)
80002a0c:	02010413          	addi	s0,sp,32
80002a10:	fea42623          	sw	a0,-20(s0)
    while (1) {
        //uart_puts("-----------Task 19-----------\n");
        uart_puts("Task 19 priority = 205 \n");
80002a14:	800087b7          	lui	a5,0x80008
80002a18:	65878513          	addi	a0,a5,1624 # 80008658 <_memory_end+0xf8008658>
80002a1c:	cdcfe0ef          	jal	ra,80000ef8 <uart_puts>
        task_yield();
80002a20:	97cff0ef          	jal	ra,80001b9c <task_yield>
        uart_puts("Task 19 priority = 205 \n");
80002a24:	ff1ff06f          	j	80002a14 <user_task19+0x14>

80002a28 <user_task20>:
        //uart_puts("return Task 40 \n");
    }
}

void user_task20(void *p) {
80002a28:	fe010113          	addi	sp,sp,-32
80002a2c:	00112e23          	sw	ra,28(sp)
80002a30:	00812c23          	sw	s0,24(sp)
80002a34:	02010413          	addi	s0,sp,32
80002a38:	fea42623          	sw	a0,-20(s0)
    while (1) {
        //uart_puts("-----------Task 20-----------\n");
        uart_puts("Task 20 priority = 105 \n");
80002a3c:	800087b7          	lui	a5,0x80008
80002a40:	67478513          	addi	a0,a5,1652 # 80008674 <_memory_end+0xf8008674>
80002a44:	cb4fe0ef          	jal	ra,80000ef8 <uart_puts>
        task_yield();
80002a48:	954ff0ef          	jal	ra,80001b9c <task_yield>
        uart_puts("Task 20 priority = 105 \n");
80002a4c:	ff1ff06f          	j	80002a3c <user_task20+0x14>

80002a50 <user_task21>:
        //uart_puts("return Task 29 \n");
    }
}

void user_task21(void *p) {
80002a50:	fe010113          	addi	sp,sp,-32
80002a54:	00112e23          	sw	ra,28(sp)
80002a58:	00812c23          	sw	s0,24(sp)
80002a5c:	02010413          	addi	s0,sp,32
80002a60:	fea42623          	sw	a0,-20(s0)
    while (1) {
        //uart_puts("-----------Task 21-----------\n");
        uart_puts("Task 21 priority = 251 \n");
80002a64:	800087b7          	lui	a5,0x80008
80002a68:	69078513          	addi	a0,a5,1680 # 80008690 <_memory_end+0xf8008690>
80002a6c:	c8cfe0ef          	jal	ra,80000ef8 <uart_puts>
        task_yield();
80002a70:	92cff0ef          	jal	ra,80001b9c <task_yield>
        uart_puts("Task 21 priority = 251 \n");
80002a74:	ff1ff06f          	j	80002a64 <user_task21+0x14>

80002a78 <user_task22>:
        //uart_puts("return Task 12 \n");
    }
}

void user_task22(void *p) {
80002a78:	fe010113          	addi	sp,sp,-32
80002a7c:	00112e23          	sw	ra,28(sp)
80002a80:	00812c23          	sw	s0,24(sp)
80002a84:	02010413          	addi	s0,sp,32
80002a88:	fea42623          	sw	a0,-20(s0)
    while (1) {
        //uart_puts("-----------Task 22-----------\n");
        uart_puts("Task 22 priority = 229 \n");
80002a8c:	800087b7          	lui	a5,0x80008
80002a90:	6ac78513          	addi	a0,a5,1708 # 800086ac <_memory_end+0xf80086ac>
80002a94:	c64fe0ef          	jal	ra,80000ef8 <uart_puts>
        task_yield();
80002a98:	904ff0ef          	jal	ra,80001b9c <task_yield>
        uart_puts("Task 22 priority = 229 \n");
80002a9c:	ff1ff06f          	j	80002a8c <user_task22+0x14>

80002aa0 <user_task23>:
        //uart_puts("return Task 7 \n");
    }
}

void user_task23(void *p) {
80002aa0:	fe010113          	addi	sp,sp,-32
80002aa4:	00112e23          	sw	ra,28(sp)
80002aa8:	00812c23          	sw	s0,24(sp)
80002aac:	02010413          	addi	s0,sp,32
80002ab0:	fea42623          	sw	a0,-20(s0)
    while (1) {
        //uart_puts("-----------Task 23-----------\n");
        uart_puts("Task 23 priority = 77 \n");
80002ab4:	800087b7          	lui	a5,0x80008
80002ab8:	6c878513          	addi	a0,a5,1736 # 800086c8 <_memory_end+0xf80086c8>
80002abc:	c3cfe0ef          	jal	ra,80000ef8 <uart_puts>
        task_yield();
80002ac0:	8dcff0ef          	jal	ra,80001b9c <task_yield>
        uart_puts("Task 23 priority = 77 \n");
80002ac4:	ff1ff06f          	j	80002ab4 <user_task23+0x14>

80002ac8 <user_task24>:
        //uart_puts("return Task 42 \n");
    }
}

void user_task24(void *p) {
80002ac8:	fe010113          	addi	sp,sp,-32
80002acc:	00112e23          	sw	ra,28(sp)
80002ad0:	00812c23          	sw	s0,24(sp)
80002ad4:	02010413          	addi	s0,sp,32
80002ad8:	fea42623          	sw	a0,-20(s0)
    while (1) {
        //uart_puts("-----------Task 24-----------\n");
        uart_puts("Task 24 priority = 124 \n");
80002adc:	800087b7          	lui	a5,0x80008
80002ae0:	6e078513          	addi	a0,a5,1760 # 800086e0 <_memory_end+0xf80086e0>
80002ae4:	c14fe0ef          	jal	ra,80000ef8 <uart_puts>
        task_yield();
80002ae8:	8b4ff0ef          	jal	ra,80001b9c <task_yield>
        uart_puts("Task 24 priority = 124 \n");
80002aec:	ff1ff06f          	j	80002adc <user_task24+0x14>

80002af0 <user_task25>:
        //uart_puts("return Task 19 \n");
    }
}

void user_task25(void *p) {
80002af0:	fe010113          	addi	sp,sp,-32
80002af4:	00112e23          	sw	ra,28(sp)
80002af8:	00812c23          	sw	s0,24(sp)
80002afc:	02010413          	addi	s0,sp,32
80002b00:	fea42623          	sw	a0,-20(s0)
    while (1) {
        //uart_puts("-----------Task 25-----------\n");
        uart_puts("Task 25 priority = 63 \n");
80002b04:	800087b7          	lui	a5,0x80008
80002b08:	6fc78513          	addi	a0,a5,1788 # 800086fc <_memory_end+0xf80086fc>
80002b0c:	becfe0ef          	jal	ra,80000ef8 <uart_puts>
        task_yield();
80002b10:	88cff0ef          	jal	ra,80001b9c <task_yield>
        uart_puts("Task 25 priority = 63 \n");
80002b14:	ff1ff06f          	j	80002b04 <user_task25+0x14>

80002b18 <user_task26>:
        //uart_puts("return Task 46 \n");
    }
}

void user_task26(void *p) {
80002b18:	fe010113          	addi	sp,sp,-32
80002b1c:	00112e23          	sw	ra,28(sp)
80002b20:	00812c23          	sw	s0,24(sp)
80002b24:	02010413          	addi	s0,sp,32
80002b28:	fea42623          	sw	a0,-20(s0)
    while (1) {
        //uart_puts("-----------Task 26-----------\n");
        uart_puts("Task 26 priority = 158 \n");
80002b2c:	800087b7          	lui	a5,0x80008
80002b30:	71478513          	addi	a0,a5,1812 # 80008714 <_memory_end+0xf8008714>
80002b34:	bc4fe0ef          	jal	ra,80000ef8 <uart_puts>
        task_yield();
80002b38:	864ff0ef          	jal	ra,80001b9c <task_yield>
        uart_puts("Task 26 priority = 158 \n");
80002b3c:	ff1ff06f          	j	80002b2c <user_task26+0x14>

80002b40 <user_task27>:
        //uart_puts("return Task 18 \n");
    }
}

void user_task27(void *p) {
80002b40:	fe010113          	addi	sp,sp,-32
80002b44:	00112e23          	sw	ra,28(sp)
80002b48:	00812c23          	sw	s0,24(sp)
80002b4c:	02010413          	addi	s0,sp,32
80002b50:	fea42623          	sw	a0,-20(s0)
    while (1) {
        //uart_puts("-----------Task 27-----------\n");
        uart_puts("Task 27 priority = 53 \n");
80002b54:	800087b7          	lui	a5,0x80008
80002b58:	73078513          	addi	a0,a5,1840 # 80008730 <_memory_end+0xf8008730>
80002b5c:	b9cfe0ef          	jal	ra,80000ef8 <uart_puts>
        task_yield();
80002b60:	83cff0ef          	jal	ra,80001b9c <task_yield>
        uart_puts("Task 27 priority = 53 \n");
80002b64:	ff1ff06f          	j	80002b54 <user_task27+0x14>

80002b68 <user_task28>:
        //uart_puts("return Task 38 \n");
    }
}

void user_task28(void *p) {
80002b68:	fe010113          	addi	sp,sp,-32
80002b6c:	00112e23          	sw	ra,28(sp)
80002b70:	00812c23          	sw	s0,24(sp)
80002b74:	02010413          	addi	s0,sp,32
80002b78:	fea42623          	sw	a0,-20(s0)
    while (1) {
        //uart_puts("-----------Task 28-----------\n");
        uart_puts("Task 28 priority = 94 \n");
80002b7c:	800087b7          	lui	a5,0x80008
80002b80:	74878513          	addi	a0,a5,1864 # 80008748 <_memory_end+0xf8008748>
80002b84:	b74fe0ef          	jal	ra,80000ef8 <uart_puts>
        task_yield();
80002b88:	814ff0ef          	jal	ra,80001b9c <task_yield>
        uart_puts("Task 28 priority = 94 \n");
80002b8c:	ff1ff06f          	j	80002b7c <user_task28+0x14>

80002b90 <user_task29>:
        //uart_puts("return Task 28 \n");
    }
}

void user_task29(void *p) {
80002b90:	fe010113          	addi	sp,sp,-32
80002b94:	00112e23          	sw	ra,28(sp)
80002b98:	00812c23          	sw	s0,24(sp)
80002b9c:	02010413          	addi	s0,sp,32
80002ba0:	fea42623          	sw	a0,-20(s0)
    while (1) {
        //uart_puts("-----------Task 29-----------\n");
        uart_puts("Task 29 priority = 103 \n");
80002ba4:	800087b7          	lui	a5,0x80008
80002ba8:	76078513          	addi	a0,a5,1888 # 80008760 <_memory_end+0xf8008760>
80002bac:	b4cfe0ef          	jal	ra,80000ef8 <uart_puts>
        task_yield();
80002bb0:	fedfe0ef          	jal	ra,80001b9c <task_yield>
        uart_puts("Task 29 priority = 103 \n");
80002bb4:	ff1ff06f          	j	80002ba4 <user_task29+0x14>

80002bb8 <user_task30>:
        //uart_puts("return Task 20 \n");
    }
}

void user_task30(void *p) {
80002bb8:	fe010113          	addi	sp,sp,-32
80002bbc:	00112e23          	sw	ra,28(sp)
80002bc0:	00812c23          	sw	s0,24(sp)
80002bc4:	02010413          	addi	s0,sp,32
80002bc8:	fea42623          	sw	a0,-20(s0)
    while (1) {
        //uart_puts("-----------Task 30-----------\n");
        uart_puts("Task 30 priority = 221 \n");
80002bcc:	800087b7          	lui	a5,0x80008
80002bd0:	77c78513          	addi	a0,a5,1916 # 8000877c <_memory_end+0xf800877c>
80002bd4:	b24fe0ef          	jal	ra,80000ef8 <uart_puts>
        task_yield();
80002bd8:	fc5fe0ef          	jal	ra,80001b9c <task_yield>
        uart_puts("Task 30 priority = 221 \n");
80002bdc:	ff1ff06f          	j	80002bcc <user_task30+0x14>

80002be0 <user_task31>:
        //uart_puts("return Task 20 \n");
    }
}

void user_task31(void *p) {
80002be0:	fe010113          	addi	sp,sp,-32
80002be4:	00112e23          	sw	ra,28(sp)
80002be8:	00812c23          	sw	s0,24(sp)
80002bec:	02010413          	addi	s0,sp,32
80002bf0:	fea42623          	sw	a0,-20(s0)
    while (1) {
        //uart_puts("-----------Task 31-----------\n");
        uart_puts("Task 31 priority = 127 \n");
80002bf4:	800087b7          	lui	a5,0x80008
80002bf8:	79878513          	addi	a0,a5,1944 # 80008798 <_memory_end+0xf8008798>
80002bfc:	afcfe0ef          	jal	ra,80000ef8 <uart_puts>
        task_yield();
80002c00:	f9dfe0ef          	jal	ra,80001b9c <task_yield>
        uart_puts("Task 31 priority = 127 \n");
80002c04:	ff1ff06f          	j	80002bf4 <user_task31+0x14>

80002c08 <user_task32>:
        //uart_puts("return Task 36 \n");
    }
}

void user_task32(void *p) {
80002c08:	fe010113          	addi	sp,sp,-32
80002c0c:	00112e23          	sw	ra,28(sp)
80002c10:	00812c23          	sw	s0,24(sp)
80002c14:	02010413          	addi	s0,sp,32
80002c18:	fea42623          	sw	a0,-20(s0)
    while (1) {
        //uart_puts("-----------Task 32-----------\n");
        uart_puts("Task 32 priority = 151 \n");
80002c1c:	800087b7          	lui	a5,0x80008
80002c20:	7b478513          	addi	a0,a5,1972 # 800087b4 <_memory_end+0xf80087b4>
80002c24:	ad4fe0ef          	jal	ra,80000ef8 <uart_puts>
        task_yield();
80002c28:	f75fe0ef          	jal	ra,80001b9c <task_yield>
        uart_puts("Task 32 priority = 151 \n");
80002c2c:	ff1ff06f          	j	80002c1c <user_task32+0x14>

80002c30 <user_task33>:
        //uart_puts("return Task 48 \n");
    }
}

void user_task33(void *p) {
80002c30:	fe010113          	addi	sp,sp,-32
80002c34:	00112e23          	sw	ra,28(sp)
80002c38:	00812c23          	sw	s0,24(sp)
80002c3c:	02010413          	addi	s0,sp,32
80002c40:	fea42623          	sw	a0,-20(s0)
    while (1) {
        //uart_puts("-----------Task 33-----------\n");
        uart_puts("Task 33 priority = 47 \n");
80002c44:	800087b7          	lui	a5,0x80008
80002c48:	7d078513          	addi	a0,a5,2000 # 800087d0 <_memory_end+0xf80087d0>
80002c4c:	aacfe0ef          	jal	ra,80000ef8 <uart_puts>
        task_yield();
80002c50:	f4dfe0ef          	jal	ra,80001b9c <task_yield>
        uart_puts("Task 33 priority = 47 \n");
80002c54:	ff1ff06f          	j	80002c44 <user_task33+0x14>

80002c58 <user_task34>:
        //uart_puts("return Task 29 \n");
    }
}

void user_task34(void *p) {
80002c58:	fe010113          	addi	sp,sp,-32
80002c5c:	00112e23          	sw	ra,28(sp)
80002c60:	00812c23          	sw	s0,24(sp)
80002c64:	02010413          	addi	s0,sp,32
80002c68:	fea42623          	sw	a0,-20(s0)
    while (1) {
        //uart_puts("-----------Task 34-----------\n");
        uart_puts("Task 34 priority = 30 \n");
80002c6c:	800087b7          	lui	a5,0x80008
80002c70:	7e878513          	addi	a0,a5,2024 # 800087e8 <_memory_end+0xf80087e8>
80002c74:	a84fe0ef          	jal	ra,80000ef8 <uart_puts>
        task_yield();
80002c78:	f25fe0ef          	jal	ra,80001b9c <task_yield>
        uart_puts("Task 34 priority = 30 \n");
80002c7c:	ff1ff06f          	j	80002c6c <user_task34+0x14>

80002c80 <user_task35>:
        //uart_puts("return Task 39 \n");
    }
}

void user_task35(void *p) {
80002c80:	fe010113          	addi	sp,sp,-32
80002c84:	00112e23          	sw	ra,28(sp)
80002c88:	00812c23          	sw	s0,24(sp)
80002c8c:	02010413          	addi	s0,sp,32
80002c90:	fea42623          	sw	a0,-20(s0)
    while (1) {
        //uart_puts("-----------Task 35-----------\n");
        uart_puts("Task 35 priority = 72 \n");
80002c94:	800097b7          	lui	a5,0x80009
80002c98:	80078513          	addi	a0,a5,-2048 # 80008800 <_memory_end+0xf8008800>
80002c9c:	a5cfe0ef          	jal	ra,80000ef8 <uart_puts>
        task_yield();
80002ca0:	efdfe0ef          	jal	ra,80001b9c <task_yield>
        uart_puts("Task 35 priority = 72 \n");
80002ca4:	ff1ff06f          	j	80002c94 <user_task35+0x14>

80002ca8 <user_task36>:
        //uart_puts("return Task 15 \n");
    }
}

void user_task36(void *p) {
80002ca8:	fe010113          	addi	sp,sp,-32
80002cac:	00112e23          	sw	ra,28(sp)
80002cb0:	00812c23          	sw	s0,24(sp)
80002cb4:	02010413          	addi	s0,sp,32
80002cb8:	fea42623          	sw	a0,-20(s0)
    while (1) {
        //uart_puts("-----------Task 36-----------\n");
        uart_puts("Task 36 priority = 92 \n");
80002cbc:	800097b7          	lui	a5,0x80009
80002cc0:	81878513          	addi	a0,a5,-2024 # 80008818 <_memory_end+0xf8008818>
80002cc4:	a34fe0ef          	jal	ra,80000ef8 <uart_puts>
        task_yield();
80002cc8:	ed5fe0ef          	jal	ra,80001b9c <task_yield>
        uart_puts("Task 36 priority = 92 \n");
80002ccc:	ff1ff06f          	j	80002cbc <user_task36+0x14>

80002cd0 <user_task37>:
        //uart_puts("return Task 1 \n");
    }
}

void user_task37(void *p) {
80002cd0:	fe010113          	addi	sp,sp,-32
80002cd4:	00112e23          	sw	ra,28(sp)
80002cd8:	00812c23          	sw	s0,24(sp)
80002cdc:	02010413          	addi	s0,sp,32
80002ce0:	fea42623          	sw	a0,-20(s0)
    while (1) {
        //uart_puts("-----------Task 37-----------\n");
        uart_puts("Task 37 priority = 129 \n");
80002ce4:	800097b7          	lui	a5,0x80009
80002ce8:	83078513          	addi	a0,a5,-2000 # 80008830 <_memory_end+0xf8008830>
80002cec:	a0cfe0ef          	jal	ra,80000ef8 <uart_puts>
        task_yield();
80002cf0:	eadfe0ef          	jal	ra,80001b9c <task_yield>
        uart_puts("Task 37 priority = 129 \n");
80002cf4:	ff1ff06f          	j	80002ce4 <user_task37+0x14>

80002cf8 <user_task38>:
        //uart_puts("return Task 24 \n");
    }
}

void user_task38(void *p) {
80002cf8:	fe010113          	addi	sp,sp,-32
80002cfc:	00112e23          	sw	ra,28(sp)
80002d00:	00812c23          	sw	s0,24(sp)
80002d04:	02010413          	addi	s0,sp,32
80002d08:	fea42623          	sw	a0,-20(s0)
    while (1) {
        //uart_puts("-----------Task 38-----------\n");
        uart_puts("Task 38 priority = 16 \n");
80002d0c:	800097b7          	lui	a5,0x80009
80002d10:	84c78513          	addi	a0,a5,-1972 # 8000884c <_memory_end+0xf800884c>
80002d14:	9e4fe0ef          	jal	ra,80000ef8 <uart_puts>
        task_yield();
80002d18:	e85fe0ef          	jal	ra,80001b9c <task_yield>
        uart_puts("Task 38 priority = 16 \n");
80002d1c:	ff1ff06f          	j	80002d0c <user_task38+0x14>

80002d20 <user_task39>:
        //uart_puts("return Task 9 \n");
    }
}

void user_task39(void *p) {
80002d20:	fe010113          	addi	sp,sp,-32
80002d24:	00112e23          	sw	ra,28(sp)
80002d28:	00812c23          	sw	s0,24(sp)
80002d2c:	02010413          	addi	s0,sp,32
80002d30:	fea42623          	sw	a0,-20(s0)
    while (1) {
        //uart_puts("-----------Task 39-----------\n");
        uart_puts("Task 39 priority = 59 \n");
80002d34:	800097b7          	lui	a5,0x80009
80002d38:	86478513          	addi	a0,a5,-1948 # 80008864 <_memory_end+0xf8008864>
80002d3c:	9bcfe0ef          	jal	ra,80000ef8 <uart_puts>
        task_yield();
80002d40:	e5dfe0ef          	jal	ra,80001b9c <task_yield>
        uart_puts("Task 39 priority = 59 \n");
80002d44:	ff1ff06f          	j	80002d34 <user_task39+0x14>

80002d48 <user_task40>:
        //uart_puts("return Task 43 \n");
    }
}

void user_task40(void *p) {
80002d48:	fe010113          	addi	sp,sp,-32
80002d4c:	00112e23          	sw	ra,28(sp)
80002d50:	00812c23          	sw	s0,24(sp)
80002d54:	02010413          	addi	s0,sp,32
80002d58:	fea42623          	sw	a0,-20(s0)
    while (1) {
        //uart_puts("-----------Task 40-----------\n");
        uart_puts("Task 40 priority = 77 \n");
80002d5c:	800097b7          	lui	a5,0x80009
80002d60:	87c78513          	addi	a0,a5,-1924 # 8000887c <_memory_end+0xf800887c>
80002d64:	994fe0ef          	jal	ra,80000ef8 <uart_puts>
        task_yield();
80002d68:	e35fe0ef          	jal	ra,80001b9c <task_yield>
        uart_puts("Task 40 priority = 77 \n");
80002d6c:	ff1ff06f          	j	80002d5c <user_task40+0x14>

80002d70 <user_task41>:
        //uart_puts("return Task 24 \n");
    }
}

void user_task41(void *p) {
80002d70:	fe010113          	addi	sp,sp,-32
80002d74:	00112e23          	sw	ra,28(sp)
80002d78:	00812c23          	sw	s0,24(sp)
80002d7c:	02010413          	addi	s0,sp,32
80002d80:	fea42623          	sw	a0,-20(s0)
    while (1) {
        //uart_puts("-----------Task 41-----------\n");
        uart_puts("Task 41 priority = 55 \n");
80002d84:	800097b7          	lui	a5,0x80009
80002d88:	89478513          	addi	a0,a5,-1900 # 80008894 <_memory_end+0xf8008894>
80002d8c:	96cfe0ef          	jal	ra,80000ef8 <uart_puts>
        task_yield();
80002d90:	e0dfe0ef          	jal	ra,80001b9c <task_yield>
        uart_puts("Task 41 priority = 55 \n");
80002d94:	ff1ff06f          	j	80002d84 <user_task41+0x14>

80002d98 <user_task42>:
        //uart_puts("return Task 21 \n");
    }
}

void user_task42(void *p) {
80002d98:	fe010113          	addi	sp,sp,-32
80002d9c:	00112e23          	sw	ra,28(sp)
80002da0:	00812c23          	sw	s0,24(sp)
80002da4:	02010413          	addi	s0,sp,32
80002da8:	fea42623          	sw	a0,-20(s0)
    while (1) {
        //uart_puts("-----------Task 42-----------\n");
        uart_puts("Task 42 priority = 62 \n");
80002dac:	800097b7          	lui	a5,0x80009
80002db0:	8ac78513          	addi	a0,a5,-1876 # 800088ac <_memory_end+0xf80088ac>
80002db4:	944fe0ef          	jal	ra,80000ef8 <uart_puts>
        task_yield();
80002db8:	de5fe0ef          	jal	ra,80001b9c <task_yield>
        uart_puts("Task 42 priority = 62 \n");
80002dbc:	ff1ff06f          	j	80002dac <user_task42+0x14>

80002dc0 <user_task43>:
        //uart_puts("return Task 27 \n");
    }
}

void user_task43(void *p) {
80002dc0:	fe010113          	addi	sp,sp,-32
80002dc4:	00112e23          	sw	ra,28(sp)
80002dc8:	00812c23          	sw	s0,24(sp)
80002dcc:	02010413          	addi	s0,sp,32
80002dd0:	fea42623          	sw	a0,-20(s0)
    while (1) {
        //uart_puts("-----------Task 43-----------\n");
        uart_puts("Task 43 priority = 158 \n");
80002dd4:	800097b7          	lui	a5,0x80009
80002dd8:	8c478513          	addi	a0,a5,-1852 # 800088c4 <_memory_end+0xf80088c4>
80002ddc:	91cfe0ef          	jal	ra,80000ef8 <uart_puts>
        task_yield();
80002de0:	dbdfe0ef          	jal	ra,80001b9c <task_yield>
        uart_puts("Task 43 priority = 158 \n");
80002de4:	ff1ff06f          	j	80002dd4 <user_task43+0x14>

80002de8 <user_task44>:
        //uart_puts("return Task 20 \n");
    }
}

void user_task44(void *p) {
80002de8:	fe010113          	addi	sp,sp,-32
80002dec:	00112e23          	sw	ra,28(sp)
80002df0:	00812c23          	sw	s0,24(sp)
80002df4:	02010413          	addi	s0,sp,32
80002df8:	fea42623          	sw	a0,-20(s0)
    while (1) {
        //uart_puts("-----------Task 44-----------\n");
        uart_puts("Task 44 priority = 73 \n");
80002dfc:	800097b7          	lui	a5,0x80009
80002e00:	8e078513          	addi	a0,a5,-1824 # 800088e0 <_memory_end+0xf80088e0>
80002e04:	8f4fe0ef          	jal	ra,80000ef8 <uart_puts>
        task_yield();
80002e08:	d95fe0ef          	jal	ra,80001b9c <task_yield>
        uart_puts("Task 44 priority = 73 \n");
80002e0c:	ff1ff06f          	j	80002dfc <user_task44+0x14>

80002e10 <user_task45>:
        //uart_puts("return Task 40 \n");
    }
}

void user_task45(void *p) {
80002e10:	fe010113          	addi	sp,sp,-32
80002e14:	00112e23          	sw	ra,28(sp)
80002e18:	00812c23          	sw	s0,24(sp)
80002e1c:	02010413          	addi	s0,sp,32
80002e20:	fea42623          	sw	a0,-20(s0)
    while (1) {
        //uart_puts("-----------Task 45-----------\n");
        uart_puts("Task 45 priority = 160 \n");
80002e24:	800097b7          	lui	a5,0x80009
80002e28:	8f878513          	addi	a0,a5,-1800 # 800088f8 <_memory_end+0xf80088f8>
80002e2c:	8ccfe0ef          	jal	ra,80000ef8 <uart_puts>
        task_yield();
80002e30:	d6dfe0ef          	jal	ra,80001b9c <task_yield>
        uart_puts("Task 45 priority = 160 \n");
80002e34:	ff1ff06f          	j	80002e24 <user_task45+0x14>

80002e38 <user_task46>:
        //uart_puts("return Task 42 \n");
    }
}

void user_task46(void *p) {
80002e38:	fe010113          	addi	sp,sp,-32
80002e3c:	00112e23          	sw	ra,28(sp)
80002e40:	00812c23          	sw	s0,24(sp)
80002e44:	02010413          	addi	s0,sp,32
80002e48:	fea42623          	sw	a0,-20(s0)
    while (1) {
        //uart_puts("-----------Task 46-----------\n");
        uart_puts("Task 46 priority = 45 \n");
80002e4c:	800097b7          	lui	a5,0x80009
80002e50:	91478513          	addi	a0,a5,-1772 # 80008914 <_memory_end+0xf8008914>
80002e54:	8a4fe0ef          	jal	ra,80000ef8 <uart_puts>
        task_yield();
80002e58:	d45fe0ef          	jal	ra,80001b9c <task_yield>
        uart_puts("Task 46 priority = 45 \n");
80002e5c:	ff1ff06f          	j	80002e4c <user_task46+0x14>

80002e60 <user_task47>:
        //uart_puts("return Task 5 \n");
    }
}

void user_task47(void *p) {
80002e60:	fe010113          	addi	sp,sp,-32
80002e64:	00112e23          	sw	ra,28(sp)
80002e68:	00812c23          	sw	s0,24(sp)
80002e6c:	02010413          	addi	s0,sp,32
80002e70:	fea42623          	sw	a0,-20(s0)
    while (1) {
        //uart_puts("-----------Task 47-----------\n");
        uart_puts("Task 47 priority = 164 \n");
80002e74:	800097b7          	lui	a5,0x80009
80002e78:	92c78513          	addi	a0,a5,-1748 # 8000892c <_memory_end+0xf800892c>
80002e7c:	87cfe0ef          	jal	ra,80000ef8 <uart_puts>
        task_yield();
80002e80:	d1dfe0ef          	jal	ra,80001b9c <task_yield>
        uart_puts("Task 47 priority = 164 \n");
80002e84:	ff1ff06f          	j	80002e74 <user_task47+0x14>

80002e88 <user_task48>:
        //uart_puts("return Task 44 \n");
    }
}

void user_task48(void *p) {
80002e88:	fe010113          	addi	sp,sp,-32
80002e8c:	00112e23          	sw	ra,28(sp)
80002e90:	00812c23          	sw	s0,24(sp)
80002e94:	02010413          	addi	s0,sp,32
80002e98:	fea42623          	sw	a0,-20(s0)
    while (1) {
        //uart_puts("-----------Task 48-----------\n");
        uart_puts("Task 48 priority = 211 \n");
80002e9c:	800097b7          	lui	a5,0x80009
80002ea0:	94878513          	addi	a0,a5,-1720 # 80008948 <_memory_end+0xf8008948>
80002ea4:	854fe0ef          	jal	ra,80000ef8 <uart_puts>
        task_yield();
80002ea8:	cf5fe0ef          	jal	ra,80001b9c <task_yield>
        uart_puts("Task 48 priority = 211 \n");
80002eac:	ff1ff06f          	j	80002e9c <user_task48+0x14>

80002eb0 <user_task49>:
        //uart_puts("return Task 45 \n");
    }
}

void user_task49(void *p) {
80002eb0:	fe010113          	addi	sp,sp,-32
80002eb4:	00112e23          	sw	ra,28(sp)
80002eb8:	00812c23          	sw	s0,24(sp)
80002ebc:	02010413          	addi	s0,sp,32
80002ec0:	fea42623          	sw	a0,-20(s0)
    while (1) {
        //uart_puts("-----------Task 49-----------\n");
        uart_puts("Task 49 priority = 41 \n");
80002ec4:	800097b7          	lui	a5,0x80009
80002ec8:	96478513          	addi	a0,a5,-1692 # 80008964 <_memory_end+0xf8008964>
80002ecc:	82cfe0ef          	jal	ra,80000ef8 <uart_puts>
        task_yield();
80002ed0:	ccdfe0ef          	jal	ra,80001b9c <task_yield>
        uart_puts("Task 49 priority = 41 \n");
80002ed4:	ff1ff06f          	j	80002ec4 <user_task49+0x14>

80002ed8 <user_task50>:
        //uart_puts("return Task 3 \n");
    }
}

void user_task50(void *p) {
80002ed8:	fe010113          	addi	sp,sp,-32
80002edc:	00112e23          	sw	ra,28(sp)
80002ee0:	00812c23          	sw	s0,24(sp)
80002ee4:	02010413          	addi	s0,sp,32
80002ee8:	fea42623          	sw	a0,-20(s0)
    while (1) {
        //uart_puts("-----------Task 50-----------\n");
        uart_puts("Task 50 priority = 222 \n");
80002eec:	800097b7          	lui	a5,0x80009
80002ef0:	97c78513          	addi	a0,a5,-1668 # 8000897c <_memory_end+0xf800897c>
80002ef4:	804fe0ef          	jal	ra,80000ef8 <uart_puts>
        task_yield();
80002ef8:	ca5fe0ef          	jal	ra,80001b9c <task_yield>
        uart_puts("Task 50 priority = 222 \n");
80002efc:	ff1ff06f          	j	80002eec <user_task50+0x14>

80002f00 <user_task51>:
        //uart_puts("return Task 6 \n");
    }
}

void user_task51(void *p) {
80002f00:	fe010113          	addi	sp,sp,-32
80002f04:	00112e23          	sw	ra,28(sp)
80002f08:	00812c23          	sw	s0,24(sp)
80002f0c:	02010413          	addi	s0,sp,32
80002f10:	fea42623          	sw	a0,-20(s0)
    while (1) {
        //uart_puts("-----------Task 51-----------\n");
        uart_puts("Task 51 priority = 63 \n");
80002f14:	800097b7          	lui	a5,0x80009
80002f18:	99878513          	addi	a0,a5,-1640 # 80008998 <_memory_end+0xf8008998>
80002f1c:	fddfd0ef          	jal	ra,80000ef8 <uart_puts>
        task_yield();
80002f20:	c7dfe0ef          	jal	ra,80001b9c <task_yield>
        uart_puts("Task 51 priority = 63 \n");
80002f24:	ff1ff06f          	j	80002f14 <user_task51+0x14>

80002f28 <user_task52>:
        //uart_puts("return Task 44 \n");
    }
}

void user_task52(void *p) {
80002f28:	fe010113          	addi	sp,sp,-32
80002f2c:	00112e23          	sw	ra,28(sp)
80002f30:	00812c23          	sw	s0,24(sp)
80002f34:	02010413          	addi	s0,sp,32
80002f38:	fea42623          	sw	a0,-20(s0)
    while (1) {
        //uart_puts("-----------Task 52-----------\n");
        uart_puts("Task 52 priority = 221 \n");
80002f3c:	800097b7          	lui	a5,0x80009
80002f40:	9b078513          	addi	a0,a5,-1616 # 800089b0 <_memory_end+0xf80089b0>
80002f44:	fb5fd0ef          	jal	ra,80000ef8 <uart_puts>
        task_yield();
80002f48:	c55fe0ef          	jal	ra,80001b9c <task_yield>
        uart_puts("Task 52 priority = 221 \n");
80002f4c:	ff1ff06f          	j	80002f3c <user_task52+0x14>

80002f50 <user_task53>:
        //uart_puts("return Task 49 \n");
    }
}

void user_task53(void *p) {
80002f50:	fe010113          	addi	sp,sp,-32
80002f54:	00112e23          	sw	ra,28(sp)
80002f58:	00812c23          	sw	s0,24(sp)
80002f5c:	02010413          	addi	s0,sp,32
80002f60:	fea42623          	sw	a0,-20(s0)
    while (1) {
        //uart_puts("-----------Task 53-----------\n");
        uart_puts("Task 53 priority = 225 \n");
80002f64:	800097b7          	lui	a5,0x80009
80002f68:	9cc78513          	addi	a0,a5,-1588 # 800089cc <_memory_end+0xf80089cc>
80002f6c:	f8dfd0ef          	jal	ra,80000ef8 <uart_puts>
        task_yield();
80002f70:	c2dfe0ef          	jal	ra,80001b9c <task_yield>
        uart_puts("Task 53 priority = 225 \n");
80002f74:	ff1ff06f          	j	80002f64 <user_task53+0x14>

80002f78 <user_task54>:
        //uart_puts("return Task 14 \n");
    }
}

void user_task54(void *p) {
80002f78:	fe010113          	addi	sp,sp,-32
80002f7c:	00112e23          	sw	ra,28(sp)
80002f80:	00812c23          	sw	s0,24(sp)
80002f84:	02010413          	addi	s0,sp,32
80002f88:	fea42623          	sw	a0,-20(s0)
    while (1) {
        //uart_puts("-----------Task 54-----------\n");
        uart_puts("Task 54 priority = 42 \n");
80002f8c:	800097b7          	lui	a5,0x80009
80002f90:	9e878513          	addi	a0,a5,-1560 # 800089e8 <_memory_end+0xf80089e8>
80002f94:	f65fd0ef          	jal	ra,80000ef8 <uart_puts>
        task_yield();
80002f98:	c05fe0ef          	jal	ra,80001b9c <task_yield>
        uart_puts("Task 54 priority = 42 \n");
80002f9c:	ff1ff06f          	j	80002f8c <user_task54+0x14>

80002fa0 <user_task55>:
        //uart_puts("return Task 29 \n");
    }
}

void user_task55(void *p) {
80002fa0:	fe010113          	addi	sp,sp,-32
80002fa4:	00112e23          	sw	ra,28(sp)
80002fa8:	00812c23          	sw	s0,24(sp)
80002fac:	02010413          	addi	s0,sp,32
80002fb0:	fea42623          	sw	a0,-20(s0)
    while (1) {
        //uart_puts("-----------Task 55-----------\n");
        uart_puts("Task 55 priority = 49 \n");
80002fb4:	800097b7          	lui	a5,0x80009
80002fb8:	a0078513          	addi	a0,a5,-1536 # 80008a00 <_memory_end+0xf8008a00>
80002fbc:	f3dfd0ef          	jal	ra,80000ef8 <uart_puts>
        task_yield();
80002fc0:	bddfe0ef          	jal	ra,80001b9c <task_yield>
        uart_puts("Task 55 priority = 49 \n");
80002fc4:	ff1ff06f          	j	80002fb4 <user_task55+0x14>

80002fc8 <user_task56>:
        //uart_puts("return Task 25 \n");
    }
}

void user_task56(void *p) {
80002fc8:	fe010113          	addi	sp,sp,-32
80002fcc:	00112e23          	sw	ra,28(sp)
80002fd0:	00812c23          	sw	s0,24(sp)
80002fd4:	02010413          	addi	s0,sp,32
80002fd8:	fea42623          	sw	a0,-20(s0)
    while (1) {
        //uart_puts("-----------Task 56-----------\n");
        uart_puts("Task 56 priority = 36 \n");
80002fdc:	800097b7          	lui	a5,0x80009
80002fe0:	a1878513          	addi	a0,a5,-1512 # 80008a18 <_memory_end+0xf8008a18>
80002fe4:	f15fd0ef          	jal	ra,80000ef8 <uart_puts>
        task_yield();
80002fe8:	bb5fe0ef          	jal	ra,80001b9c <task_yield>
        uart_puts("Task 56 priority = 36 \n");
80002fec:	ff1ff06f          	j	80002fdc <user_task56+0x14>

80002ff0 <user_task57>:
        //uart_puts("return Task 29 \n");
    }
}

void user_task57(void *p) {
80002ff0:	fe010113          	addi	sp,sp,-32
80002ff4:	00112e23          	sw	ra,28(sp)
80002ff8:	00812c23          	sw	s0,24(sp)
80002ffc:	02010413          	addi	s0,sp,32
80003000:	fea42623          	sw	a0,-20(s0)
    while (1) {
        //uart_puts("-----------Task 57-----------\n");
        uart_puts("Task 57 priority = 68 \n");
80003004:	800097b7          	lui	a5,0x80009
80003008:	a3078513          	addi	a0,a5,-1488 # 80008a30 <_memory_end+0xf8008a30>
8000300c:	eedfd0ef          	jal	ra,80000ef8 <uart_puts>
        task_yield();
80003010:	b8dfe0ef          	jal	ra,80001b9c <task_yield>
        uart_puts("Task 57 priority = 68 \n");
80003014:	ff1ff06f          	j	80003004 <user_task57+0x14>

80003018 <user_task58>:
        //uart_puts("return Task 29 \n");
    }
}

void user_task58(void *p) {
80003018:	fe010113          	addi	sp,sp,-32
8000301c:	00112e23          	sw	ra,28(sp)
80003020:	00812c23          	sw	s0,24(sp)
80003024:	02010413          	addi	s0,sp,32
80003028:	fea42623          	sw	a0,-20(s0)
    while (1) {
        //uart_puts("-----------Task 58-----------\n");
        uart_puts("Task 58 priority = 176 \n");
8000302c:	800097b7          	lui	a5,0x80009
80003030:	a4878513          	addi	a0,a5,-1464 # 80008a48 <_memory_end+0xf8008a48>
80003034:	ec5fd0ef          	jal	ra,80000ef8 <uart_puts>
        task_yield();
80003038:	b65fe0ef          	jal	ra,80001b9c <task_yield>
        uart_puts("Task 58 priority = 176 \n");
8000303c:	ff1ff06f          	j	8000302c <user_task58+0x14>

80003040 <user_task59>:
        //uart_puts("return Task 20 \n");
    }
}

void user_task59(void *p) {
80003040:	fe010113          	addi	sp,sp,-32
80003044:	00112e23          	sw	ra,28(sp)
80003048:	00812c23          	sw	s0,24(sp)
8000304c:	02010413          	addi	s0,sp,32
80003050:	fea42623          	sw	a0,-20(s0)
    while (1) {
        //uart_puts("-----------Task 59-----------\n");
        uart_puts("Task 59 priority = 93 \n");
80003054:	800097b7          	lui	a5,0x80009
80003058:	a6478513          	addi	a0,a5,-1436 # 80008a64 <_memory_end+0xf8008a64>
8000305c:	e9dfd0ef          	jal	ra,80000ef8 <uart_puts>
        task_yield();
80003060:	b3dfe0ef          	jal	ra,80001b9c <task_yield>
        uart_puts("Task 59 priority = 93 \n");
80003064:	ff1ff06f          	j	80003054 <user_task59+0x14>

80003068 <user_task60>:
        //uart_puts("return Task 2 \n");
    }
}

void user_task60(void *p) {
80003068:	fe010113          	addi	sp,sp,-32
8000306c:	00112e23          	sw	ra,28(sp)
80003070:	00812c23          	sw	s0,24(sp)
80003074:	02010413          	addi	s0,sp,32
80003078:	fea42623          	sw	a0,-20(s0)
    while (1) {
        //uart_puts("-----------Task 60-----------\n");
        uart_puts("Task 60 priority = 149 \n");
8000307c:	800097b7          	lui	a5,0x80009
80003080:	a7c78513          	addi	a0,a5,-1412 # 80008a7c <_memory_end+0xf8008a7c>
80003084:	e75fd0ef          	jal	ra,80000ef8 <uart_puts>
        task_yield();
80003088:	b15fe0ef          	jal	ra,80001b9c <task_yield>
        uart_puts("Task 60 priority = 149 \n");
8000308c:	ff1ff06f          	j	8000307c <user_task60+0x14>

80003090 <user_task61>:
        //uart_puts("return Task 20 \n");
    }
}

void user_task61(void *p) {
80003090:	fe010113          	addi	sp,sp,-32
80003094:	00112e23          	sw	ra,28(sp)
80003098:	00812c23          	sw	s0,24(sp)
8000309c:	02010413          	addi	s0,sp,32
800030a0:	fea42623          	sw	a0,-20(s0)
    while (1) {
        //uart_puts("-----------Task 61-----------\n");
        uart_puts("Task 61 priority = 154 \n");
800030a4:	800097b7          	lui	a5,0x80009
800030a8:	a9878513          	addi	a0,a5,-1384 # 80008a98 <_memory_end+0xf8008a98>
800030ac:	e4dfd0ef          	jal	ra,80000ef8 <uart_puts>
        task_yield();
800030b0:	aedfe0ef          	jal	ra,80001b9c <task_yield>
        uart_puts("Task 61 priority = 154 \n");
800030b4:	ff1ff06f          	j	800030a4 <user_task61+0x14>

800030b8 <user_task62>:
        //uart_puts("return Task 35 \n");
    }
}

void user_task62(void *p) {
800030b8:	fe010113          	addi	sp,sp,-32
800030bc:	00112e23          	sw	ra,28(sp)
800030c0:	00812c23          	sw	s0,24(sp)
800030c4:	02010413          	addi	s0,sp,32
800030c8:	fea42623          	sw	a0,-20(s0)
    while (1) {
        //uart_puts("-----------Task 62-----------\n");
        uart_puts("Task 62 priority = 95 \n");
800030cc:	800097b7          	lui	a5,0x80009
800030d0:	ab478513          	addi	a0,a5,-1356 # 80008ab4 <_memory_end+0xf8008ab4>
800030d4:	e25fd0ef          	jal	ra,80000ef8 <uart_puts>
        task_yield();
800030d8:	ac5fe0ef          	jal	ra,80001b9c <task_yield>
        uart_puts("Task 62 priority = 95 \n");
800030dc:	ff1ff06f          	j	800030cc <user_task62+0x14>

800030e0 <user_task63>:
        //uart_puts("return Task 10 \n");
    }
}

void user_task63(void *p) {
800030e0:	fe010113          	addi	sp,sp,-32
800030e4:	00112e23          	sw	ra,28(sp)
800030e8:	00812c23          	sw	s0,24(sp)
800030ec:	02010413          	addi	s0,sp,32
800030f0:	fea42623          	sw	a0,-20(s0)
    while (1) {
        //uart_puts("-----------Task 63-----------\n");
        uart_puts("Task 63 priority = 195 \n");
800030f4:	800097b7          	lui	a5,0x80009
800030f8:	acc78513          	addi	a0,a5,-1332 # 80008acc <_memory_end+0xf8008acc>
800030fc:	dfdfd0ef          	jal	ra,80000ef8 <uart_puts>
        task_yield();
80003100:	a9dfe0ef          	jal	ra,80001b9c <task_yield>
        uart_puts("Task 63 priority = 195 \n");
80003104:	ff1ff06f          	j	800030f4 <user_task63+0x14>

80003108 <user_task64>:
        //uart_puts("return Task 28 \n");
    }
}

void user_task64(void *p) {
80003108:	fe010113          	addi	sp,sp,-32
8000310c:	00112e23          	sw	ra,28(sp)
80003110:	00812c23          	sw	s0,24(sp)
80003114:	02010413          	addi	s0,sp,32
80003118:	fea42623          	sw	a0,-20(s0)
    while (1) {
        //uart_puts("-----------Task 64-----------\n");
        uart_puts("Task 64 priority = 234 \n");
8000311c:	800097b7          	lui	a5,0x80009
80003120:	ae878513          	addi	a0,a5,-1304 # 80008ae8 <_memory_end+0xf8008ae8>
80003124:	dd5fd0ef          	jal	ra,80000ef8 <uart_puts>
        task_yield();
80003128:	a75fe0ef          	jal	ra,80001b9c <task_yield>
        uart_puts("Task 64 priority = 234 \n");
8000312c:	ff1ff06f          	j	8000311c <user_task64+0x14>

80003130 <user_task65>:
        //uart_puts("return Task 46 \n");
    }
}

void user_task65(void *p) {
80003130:	fe010113          	addi	sp,sp,-32
80003134:	00112e23          	sw	ra,28(sp)
80003138:	00812c23          	sw	s0,24(sp)
8000313c:	02010413          	addi	s0,sp,32
80003140:	fea42623          	sw	a0,-20(s0)
    while (1) {
        //uart_puts("-----------Task 65-----------\n");
        uart_puts("Task 65 priority = 91 \n");
80003144:	800097b7          	lui	a5,0x80009
80003148:	b0478513          	addi	a0,a5,-1276 # 80008b04 <_memory_end+0xf8008b04>
8000314c:	dadfd0ef          	jal	ra,80000ef8 <uart_puts>
        task_yield();
80003150:	a4dfe0ef          	jal	ra,80001b9c <task_yield>
        uart_puts("Task 65 priority = 91 \n");
80003154:	ff1ff06f          	j	80003144 <user_task65+0x14>

80003158 <user_task66>:
        //uart_puts("return Task 2 \n");
    }
}

void user_task66(void *p) {
80003158:	fe010113          	addi	sp,sp,-32
8000315c:	00112e23          	sw	ra,28(sp)
80003160:	00812c23          	sw	s0,24(sp)
80003164:	02010413          	addi	s0,sp,32
80003168:	fea42623          	sw	a0,-20(s0)
    while (1) {
        //uart_puts("-----------Task 66-----------\n");
        uart_puts("Task 66 priority = 67 \n");
8000316c:	800097b7          	lui	a5,0x80009
80003170:	b1c78513          	addi	a0,a5,-1252 # 80008b1c <_memory_end+0xf8008b1c>
80003174:	d85fd0ef          	jal	ra,80000ef8 <uart_puts>
        task_yield();
80003178:	a25fe0ef          	jal	ra,80001b9c <task_yield>
        uart_puts("Task 66 priority = 67 \n");
8000317c:	ff1ff06f          	j	8000316c <user_task66+0x14>

80003180 <user_task67>:
        //uart_puts("return Task 40 \n");
    }
}

void user_task67(void *p) {
80003180:	fe010113          	addi	sp,sp,-32
80003184:	00112e23          	sw	ra,28(sp)
80003188:	00812c23          	sw	s0,24(sp)
8000318c:	02010413          	addi	s0,sp,32
80003190:	fea42623          	sw	a0,-20(s0)
    while (1) {
        //uart_puts("-----------Task 67-----------\n");
        uart_puts("Task 67 priority = 27 \n");
80003194:	800097b7          	lui	a5,0x80009
80003198:	b3478513          	addi	a0,a5,-1228 # 80008b34 <_memory_end+0xf8008b34>
8000319c:	d5dfd0ef          	jal	ra,80000ef8 <uart_puts>
        task_yield();
800031a0:	9fdfe0ef          	jal	ra,80001b9c <task_yield>
        uart_puts("Task 67 priority = 27 \n");
800031a4:	ff1ff06f          	j	80003194 <user_task67+0x14>

800031a8 <user_task68>:
        //uart_puts("return Task 7 \n");
    }
}

void user_task68(void *p) {
800031a8:	fe010113          	addi	sp,sp,-32
800031ac:	00112e23          	sw	ra,28(sp)
800031b0:	00812c23          	sw	s0,24(sp)
800031b4:	02010413          	addi	s0,sp,32
800031b8:	fea42623          	sw	a0,-20(s0)
    while (1) {
        //uart_puts("-----------Task 68-----------\n");
        uart_puts("Task 68 priority = 109 \n");
800031bc:	800097b7          	lui	a5,0x80009
800031c0:	b4c78513          	addi	a0,a5,-1204 # 80008b4c <_memory_end+0xf8008b4c>
800031c4:	d35fd0ef          	jal	ra,80000ef8 <uart_puts>
        task_yield();
800031c8:	9d5fe0ef          	jal	ra,80001b9c <task_yield>
        uart_puts("Task 68 priority = 109 \n");
800031cc:	ff1ff06f          	j	800031bc <user_task68+0x14>

800031d0 <user_task69>:
        //uart_puts("return Task 22 \n");
    }
}

void user_task69(void *p) {
800031d0:	fe010113          	addi	sp,sp,-32
800031d4:	00112e23          	sw	ra,28(sp)
800031d8:	00812c23          	sw	s0,24(sp)
800031dc:	02010413          	addi	s0,sp,32
800031e0:	fea42623          	sw	a0,-20(s0)
    while (1) {
        //uart_puts("-----------Task 69-----------\n");
        uart_puts("Task 69 priority = 247 \n");
800031e4:	800097b7          	lui	a5,0x80009
800031e8:	b6878513          	addi	a0,a5,-1176 # 80008b68 <_memory_end+0xf8008b68>
800031ec:	d0dfd0ef          	jal	ra,80000ef8 <uart_puts>
        task_yield();
800031f0:	9adfe0ef          	jal	ra,80001b9c <task_yield>
        uart_puts("Task 69 priority = 247 \n");
800031f4:	ff1ff06f          	j	800031e4 <user_task69+0x14>

800031f8 <user_task70>:
        //uart_puts("return Task 20 \n");
    }
}

void user_task70(void *p) {
800031f8:	fe010113          	addi	sp,sp,-32
800031fc:	00112e23          	sw	ra,28(sp)
80003200:	00812c23          	sw	s0,24(sp)
80003204:	02010413          	addi	s0,sp,32
80003208:	fea42623          	sw	a0,-20(s0)
    while (1) {
        //uart_puts("-----------Task 70-----------\n");
        uart_puts("Task 70 priority = 95 \n");
8000320c:	800097b7          	lui	a5,0x80009
80003210:	b8478513          	addi	a0,a5,-1148 # 80008b84 <_memory_end+0xf8008b84>
80003214:	ce5fd0ef          	jal	ra,80000ef8 <uart_puts>
        task_yield();
80003218:	985fe0ef          	jal	ra,80001b9c <task_yield>
        uart_puts("Task 70 priority = 95 \n");
8000321c:	ff1ff06f          	j	8000320c <user_task70+0x14>

80003220 <user_task71>:
        //uart_puts("return Task 8 \n");
    }
}

void user_task71(void *p) {
80003220:	fe010113          	addi	sp,sp,-32
80003224:	00112e23          	sw	ra,28(sp)
80003228:	00812c23          	sw	s0,24(sp)
8000322c:	02010413          	addi	s0,sp,32
80003230:	fea42623          	sw	a0,-20(s0)
    while (1) {
        //uart_puts("-----------Task 71-----------\n");
        uart_puts("Task 71 priority = 154 \n");
80003234:	800097b7          	lui	a5,0x80009
80003238:	b9c78513          	addi	a0,a5,-1124 # 80008b9c <_memory_end+0xf8008b9c>
8000323c:	cbdfd0ef          	jal	ra,80000ef8 <uart_puts>
        task_yield();
80003240:	95dfe0ef          	jal	ra,80001b9c <task_yield>
        uart_puts("Task 71 priority = 154 \n");
80003244:	ff1ff06f          	j	80003234 <user_task71+0x14>

80003248 <user_task72>:
        //uart_puts("return Task 41 \n");
    }
}

void user_task72(void *p) {
80003248:	fe010113          	addi	sp,sp,-32
8000324c:	00112e23          	sw	ra,28(sp)
80003250:	00812c23          	sw	s0,24(sp)
80003254:	02010413          	addi	s0,sp,32
80003258:	fea42623          	sw	a0,-20(s0)
    while (1) {
        //uart_puts("-----------Task 72-----------\n");
        uart_puts("Task 72 priority = 181 \n");
8000325c:	800097b7          	lui	a5,0x80009
80003260:	bb878513          	addi	a0,a5,-1096 # 80008bb8 <_memory_end+0xf8008bb8>
80003264:	c95fd0ef          	jal	ra,80000ef8 <uart_puts>
        task_yield();
80003268:	935fe0ef          	jal	ra,80001b9c <task_yield>
        uart_puts("Task 72 priority = 181 \n");
8000326c:	ff1ff06f          	j	8000325c <user_task72+0x14>

80003270 <user_task73>:
        //uart_puts("return Task 11 \n");
    }
}

void user_task73(void *p) {
80003270:	fe010113          	addi	sp,sp,-32
80003274:	00112e23          	sw	ra,28(sp)
80003278:	00812c23          	sw	s0,24(sp)
8000327c:	02010413          	addi	s0,sp,32
80003280:	fea42623          	sw	a0,-20(s0)
    while (1) {
        //uart_puts("-----------Task 73-----------\n");
        uart_puts("Task 73 priority = 148 \n");
80003284:	800097b7          	lui	a5,0x80009
80003288:	bd478513          	addi	a0,a5,-1068 # 80008bd4 <_memory_end+0xf8008bd4>
8000328c:	c6dfd0ef          	jal	ra,80000ef8 <uart_puts>
        task_yield();
80003290:	90dfe0ef          	jal	ra,80001b9c <task_yield>
        uart_puts("Task 73 priority = 148 \n");
80003294:	ff1ff06f          	j	80003284 <user_task73+0x14>

80003298 <user_task74>:
        //uart_puts("return Task 19 \n");
    }
}

void user_task74(void *p) {
80003298:	fe010113          	addi	sp,sp,-32
8000329c:	00112e23          	sw	ra,28(sp)
800032a0:	00812c23          	sw	s0,24(sp)
800032a4:	02010413          	addi	s0,sp,32
800032a8:	fea42623          	sw	a0,-20(s0)
    while (1) {
        //uart_puts("-----------Task 74-----------\n");
        uart_puts("Task 74 priority = 96 \n");
800032ac:	800097b7          	lui	a5,0x80009
800032b0:	bf078513          	addi	a0,a5,-1040 # 80008bf0 <_memory_end+0xf8008bf0>
800032b4:	c45fd0ef          	jal	ra,80000ef8 <uart_puts>
        task_yield();
800032b8:	8e5fe0ef          	jal	ra,80001b9c <task_yield>
        uart_puts("Task 74 priority = 96 \n");
800032bc:	ff1ff06f          	j	800032ac <user_task74+0x14>

800032c0 <user_task75>:
        //uart_puts("return Task 35 \n");
    }
}

void user_task75(void *p) {
800032c0:	fe010113          	addi	sp,sp,-32
800032c4:	00112e23          	sw	ra,28(sp)
800032c8:	00812c23          	sw	s0,24(sp)
800032cc:	02010413          	addi	s0,sp,32
800032d0:	fea42623          	sw	a0,-20(s0)
    while (1) {
        //uart_puts("-----------Task 75-----------\n");
        uart_puts("Task 75 priority = 23 \n");
800032d4:	800097b7          	lui	a5,0x80009
800032d8:	c0878513          	addi	a0,a5,-1016 # 80008c08 <_memory_end+0xf8008c08>
800032dc:	c1dfd0ef          	jal	ra,80000ef8 <uart_puts>
        task_yield();
800032e0:	8bdfe0ef          	jal	ra,80001b9c <task_yield>
        uart_puts("Task 75 priority = 23 \n");
800032e4:	ff1ff06f          	j	800032d4 <user_task75+0x14>

800032e8 <user_task76>:
        //uart_puts("return Task 12 \n");
    }
}

void user_task76(void *p) {
800032e8:	fe010113          	addi	sp,sp,-32
800032ec:	00112e23          	sw	ra,28(sp)
800032f0:	00812c23          	sw	s0,24(sp)
800032f4:	02010413          	addi	s0,sp,32
800032f8:	fea42623          	sw	a0,-20(s0)
    while (1) {
        //uart_puts("-----------Task 76-----------\n");
        uart_puts("Task 76 priority = 248 \n");
800032fc:	800097b7          	lui	a5,0x80009
80003300:	c2078513          	addi	a0,a5,-992 # 80008c20 <_memory_end+0xf8008c20>
80003304:	bf5fd0ef          	jal	ra,80000ef8 <uart_puts>
        task_yield();
80003308:	895fe0ef          	jal	ra,80001b9c <task_yield>
        uart_puts("Task 76 priority = 248 \n");
8000330c:	ff1ff06f          	j	800032fc <user_task76+0x14>

80003310 <user_task77>:
        //uart_puts("return Task 37 \n");
    }
}

void user_task77(void *p) {
80003310:	fe010113          	addi	sp,sp,-32
80003314:	00112e23          	sw	ra,28(sp)
80003318:	00812c23          	sw	s0,24(sp)
8000331c:	02010413          	addi	s0,sp,32
80003320:	fea42623          	sw	a0,-20(s0)
    while (1) {
        //uart_puts("-----------Task 77-----------\n");
        uart_puts("Task 77 priority = 193 \n");
80003324:	800097b7          	lui	a5,0x80009
80003328:	c3c78513          	addi	a0,a5,-964 # 80008c3c <_memory_end+0xf8008c3c>
8000332c:	bcdfd0ef          	jal	ra,80000ef8 <uart_puts>
        task_yield();
80003330:	86dfe0ef          	jal	ra,80001b9c <task_yield>
        uart_puts("Task 77 priority = 193 \n");
80003334:	ff1ff06f          	j	80003324 <user_task77+0x14>

80003338 <user_task78>:
        //uart_puts("return Task 26 \n");
    }
}

void user_task78(void *p) {
80003338:	fe010113          	addi	sp,sp,-32
8000333c:	00112e23          	sw	ra,28(sp)
80003340:	00812c23          	sw	s0,24(sp)
80003344:	02010413          	addi	s0,sp,32
80003348:	fea42623          	sw	a0,-20(s0)
    while (1) {
        //uart_puts("-----------Task 78-----------\n");
        uart_puts("Task 78 priority = 200 \n");
8000334c:	800097b7          	lui	a5,0x80009
80003350:	c5878513          	addi	a0,a5,-936 # 80008c58 <_memory_end+0xf8008c58>
80003354:	ba5fd0ef          	jal	ra,80000ef8 <uart_puts>
        task_yield();
80003358:	845fe0ef          	jal	ra,80001b9c <task_yield>
        uart_puts("Task 78 priority = 200 \n");
8000335c:	ff1ff06f          	j	8000334c <user_task78+0x14>

80003360 <user_task79>:
        //uart_puts("return Task 17 \n");
    }
}

void user_task79(void *p) {
80003360:	fe010113          	addi	sp,sp,-32
80003364:	00112e23          	sw	ra,28(sp)
80003368:	00812c23          	sw	s0,24(sp)
8000336c:	02010413          	addi	s0,sp,32
80003370:	fea42623          	sw	a0,-20(s0)
    while (1) {
        //uart_puts("-----------Task 79-----------\n");
        uart_puts("Task 79 priority = 126 \n");
80003374:	800097b7          	lui	a5,0x80009
80003378:	c7478513          	addi	a0,a5,-908 # 80008c74 <_memory_end+0xf8008c74>
8000337c:	b7dfd0ef          	jal	ra,80000ef8 <uart_puts>
        task_yield();
80003380:	81dfe0ef          	jal	ra,80001b9c <task_yield>
        uart_puts("Task 79 priority = 126 \n");
80003384:	ff1ff06f          	j	80003374 <user_task79+0x14>

80003388 <user_task80>:
        //uart_puts("return Task 24 \n");
    }
}

void user_task80(void *p) {
80003388:	fe010113          	addi	sp,sp,-32
8000338c:	00112e23          	sw	ra,28(sp)
80003390:	00812c23          	sw	s0,24(sp)
80003394:	02010413          	addi	s0,sp,32
80003398:	fea42623          	sw	a0,-20(s0)
    while (1) {
        //uart_puts("-----------Task 80-----------\n");
        uart_puts("Task 80 priority = 253 \n");
8000339c:	800097b7          	lui	a5,0x80009
800033a0:	c9078513          	addi	a0,a5,-880 # 80008c90 <_memory_end+0xf8008c90>
800033a4:	b55fd0ef          	jal	ra,80000ef8 <uart_puts>
        task_yield();
800033a8:	ff4fe0ef          	jal	ra,80001b9c <task_yield>
        uart_puts("Task 80 priority = 253 \n");
800033ac:	ff1ff06f          	j	8000339c <user_task80+0x14>

800033b0 <user_task81>:
        //uart_puts("return Task 18 \n");
    }
}

void user_task81(void *p) {
800033b0:	fe010113          	addi	sp,sp,-32
800033b4:	00112e23          	sw	ra,28(sp)
800033b8:	00812c23          	sw	s0,24(sp)
800033bc:	02010413          	addi	s0,sp,32
800033c0:	fea42623          	sw	a0,-20(s0)
    while (1) {
        //uart_puts("-----------Task 81-----------\n");
        uart_puts("Task 81 priority = 117 \n");
800033c4:	800097b7          	lui	a5,0x80009
800033c8:	cac78513          	addi	a0,a5,-852 # 80008cac <_memory_end+0xf8008cac>
800033cc:	b2dfd0ef          	jal	ra,80000ef8 <uart_puts>
        task_yield();
800033d0:	fccfe0ef          	jal	ra,80001b9c <task_yield>
        uart_puts("Task 81 priority = 117 \n");
800033d4:	ff1ff06f          	j	800033c4 <user_task81+0x14>

800033d8 <user_task82>:
        //uart_puts("return Task 47 \n");
    }
}

void user_task82(void *p) {
800033d8:	fe010113          	addi	sp,sp,-32
800033dc:	00112e23          	sw	ra,28(sp)
800033e0:	00812c23          	sw	s0,24(sp)
800033e4:	02010413          	addi	s0,sp,32
800033e8:	fea42623          	sw	a0,-20(s0)
    while (1) {
        //uart_puts("-----------Task 82-----------\n");
        uart_puts("Task 82 priority = 1 \n");
800033ec:	800097b7          	lui	a5,0x80009
800033f0:	cc878513          	addi	a0,a5,-824 # 80008cc8 <_memory_end+0xf8008cc8>
800033f4:	b05fd0ef          	jal	ra,80000ef8 <uart_puts>
        task_yield();
800033f8:	fa4fe0ef          	jal	ra,80001b9c <task_yield>
        uart_puts("Task 82 priority = 1 \n");
800033fc:	ff1ff06f          	j	800033ec <user_task82+0x14>

80003400 <user_task83>:
        //uart_puts("return Task 11 \n");
    }
}

void user_task83(void *p) {
80003400:	fe010113          	addi	sp,sp,-32
80003404:	00112e23          	sw	ra,28(sp)
80003408:	00812c23          	sw	s0,24(sp)
8000340c:	02010413          	addi	s0,sp,32
80003410:	fea42623          	sw	a0,-20(s0)
    while (1) {
        //uart_puts("-----------Task 83-----------\n");
        uart_puts("Task 83 priority = 158 \n");
80003414:	800097b7          	lui	a5,0x80009
80003418:	ce078513          	addi	a0,a5,-800 # 80008ce0 <_memory_end+0xf8008ce0>
8000341c:	addfd0ef          	jal	ra,80000ef8 <uart_puts>
        task_yield();
80003420:	f7cfe0ef          	jal	ra,80001b9c <task_yield>
        uart_puts("Task 83 priority = 158 \n");
80003424:	ff1ff06f          	j	80003414 <user_task83+0x14>

80003428 <user_task84>:
        //uart_puts("return Task 8 \n");
    }
}

void user_task84(void *p) {
80003428:	fe010113          	addi	sp,sp,-32
8000342c:	00112e23          	sw	ra,28(sp)
80003430:	00812c23          	sw	s0,24(sp)
80003434:	02010413          	addi	s0,sp,32
80003438:	fea42623          	sw	a0,-20(s0)
    while (1) {
        //uart_puts("-----------Task 84-----------\n");
        uart_puts("Task 84 priority = 166 \n");
8000343c:	800097b7          	lui	a5,0x80009
80003440:	cfc78513          	addi	a0,a5,-772 # 80008cfc <_memory_end+0xf8008cfc>
80003444:	ab5fd0ef          	jal	ra,80000ef8 <uart_puts>
        task_yield();
80003448:	f54fe0ef          	jal	ra,80001b9c <task_yield>
        uart_puts("Task 84 priority = 166 \n");
8000344c:	ff1ff06f          	j	8000343c <user_task84+0x14>

80003450 <user_task85>:
        //uart_puts("return Task 20 \n");
    }
}

void user_task85(void *p) {
80003450:	fe010113          	addi	sp,sp,-32
80003454:	00112e23          	sw	ra,28(sp)
80003458:	00812c23          	sw	s0,24(sp)
8000345c:	02010413          	addi	s0,sp,32
80003460:	fea42623          	sw	a0,-20(s0)
    while (1) {
        //uart_puts("-----------Task 85-----------\n");
        uart_puts("Task 85 priority = 41 \n");
80003464:	800097b7          	lui	a5,0x80009
80003468:	d1878513          	addi	a0,a5,-744 # 80008d18 <_memory_end+0xf8008d18>
8000346c:	a8dfd0ef          	jal	ra,80000ef8 <uart_puts>
        task_yield();
80003470:	f2cfe0ef          	jal	ra,80001b9c <task_yield>
        uart_puts("Task 85 priority = 41 \n");
80003474:	ff1ff06f          	j	80003464 <user_task85+0x14>

80003478 <user_task86>:
        //uart_puts("return Task 29 \n");
    }
}

void user_task86(void *p) {
80003478:	fe010113          	addi	sp,sp,-32
8000347c:	00112e23          	sw	ra,28(sp)
80003480:	00812c23          	sw	s0,24(sp)
80003484:	02010413          	addi	s0,sp,32
80003488:	fea42623          	sw	a0,-20(s0)
    while (1) {
        //uart_puts("-----------Task 86-----------\n");
        uart_puts("Task 86 priority = 118 \n");
8000348c:	800097b7          	lui	a5,0x80009
80003490:	d3078513          	addi	a0,a5,-720 # 80008d30 <_memory_end+0xf8008d30>
80003494:	a65fd0ef          	jal	ra,80000ef8 <uart_puts>
        task_yield();
80003498:	f04fe0ef          	jal	ra,80001b9c <task_yield>
        uart_puts("Task 86 priority = 118 \n");
8000349c:	ff1ff06f          	j	8000348c <user_task86+0x14>

800034a0 <user_task87>:
        //uart_puts("return Task 10 \n");
    }
}

void user_task87(void *p) {
800034a0:	fe010113          	addi	sp,sp,-32
800034a4:	00112e23          	sw	ra,28(sp)
800034a8:	00812c23          	sw	s0,24(sp)
800034ac:	02010413          	addi	s0,sp,32
800034b0:	fea42623          	sw	a0,-20(s0)
    while (1) {
        //uart_puts("-----------Task 87-----------\n");
        uart_puts("Task 87 priority = 193 \n");
800034b4:	800097b7          	lui	a5,0x80009
800034b8:	d4c78513          	addi	a0,a5,-692 # 80008d4c <_memory_end+0xf8008d4c>
800034bc:	a3dfd0ef          	jal	ra,80000ef8 <uart_puts>
        task_yield();
800034c0:	edcfe0ef          	jal	ra,80001b9c <task_yield>
        uart_puts("Task 87 priority = 193 \n");
800034c4:	ff1ff06f          	j	800034b4 <user_task87+0x14>

800034c8 <user_task88>:
        //uart_puts("return Task 19 \n");
    }
}

void user_task88(void *p) {
800034c8:	fe010113          	addi	sp,sp,-32
800034cc:	00112e23          	sw	ra,28(sp)
800034d0:	00812c23          	sw	s0,24(sp)
800034d4:	02010413          	addi	s0,sp,32
800034d8:	fea42623          	sw	a0,-20(s0)
    while (1) {
        //uart_puts("-----------Task 88-----------\n");
        uart_puts("Task 88 priority = 89 \n");
800034dc:	800097b7          	lui	a5,0x80009
800034e0:	d6878513          	addi	a0,a5,-664 # 80008d68 <_memory_end+0xf8008d68>
800034e4:	a15fd0ef          	jal	ra,80000ef8 <uart_puts>
        task_yield();
800034e8:	eb4fe0ef          	jal	ra,80001b9c <task_yield>
        uart_puts("Task 88 priority = 89 \n");
800034ec:	ff1ff06f          	j	800034dc <user_task88+0x14>

800034f0 <user_task89>:
        //uart_puts("return Task 6 \n");
    }
}

void user_task89(void *p) {
800034f0:	fe010113          	addi	sp,sp,-32
800034f4:	00112e23          	sw	ra,28(sp)
800034f8:	00812c23          	sw	s0,24(sp)
800034fc:	02010413          	addi	s0,sp,32
80003500:	fea42623          	sw	a0,-20(s0)
    while (1) {
        //uart_puts("-----------Task 89-----------\n");
        uart_puts("Task 89 priority = 224 \n");
80003504:	800097b7          	lui	a5,0x80009
80003508:	d8078513          	addi	a0,a5,-640 # 80008d80 <_memory_end+0xf8008d80>
8000350c:	9edfd0ef          	jal	ra,80000ef8 <uart_puts>
        task_yield();
80003510:	e8cfe0ef          	jal	ra,80001b9c <task_yield>
        uart_puts("Task 89 priority = 224 \n");
80003514:	ff1ff06f          	j	80003504 <user_task89+0x14>

80003518 <user_task90>:
        //uart_puts("return Task 18 \n");
    }
}

void user_task90(void *p) {
80003518:	fe010113          	addi	sp,sp,-32
8000351c:	00112e23          	sw	ra,28(sp)
80003520:	00812c23          	sw	s0,24(sp)
80003524:	02010413          	addi	s0,sp,32
80003528:	fea42623          	sw	a0,-20(s0)
    while (1) {
        //uart_puts("-----------Task 90-----------\n");
        uart_puts("Task 90 priority = 195 \n");
8000352c:	800097b7          	lui	a5,0x80009
80003530:	d9c78513          	addi	a0,a5,-612 # 80008d9c <_memory_end+0xf8008d9c>
80003534:	9c5fd0ef          	jal	ra,80000ef8 <uart_puts>
        task_yield();
80003538:	e64fe0ef          	jal	ra,80001b9c <task_yield>
        uart_puts("Task 90 priority = 195 \n");
8000353c:	ff1ff06f          	j	8000352c <user_task90+0x14>

80003540 <user_task91>:
        //uart_puts("return Task 2 \n");
    }
}

void user_task91(void *p) {
80003540:	fe010113          	addi	sp,sp,-32
80003544:	00112e23          	sw	ra,28(sp)
80003548:	00812c23          	sw	s0,24(sp)
8000354c:	02010413          	addi	s0,sp,32
80003550:	fea42623          	sw	a0,-20(s0)
    while (1) {
        //uart_puts("-----------Task 91-----------\n");
        uart_puts("Task 91 priority = 70 \n");
80003554:	800097b7          	lui	a5,0x80009
80003558:	db878513          	addi	a0,a5,-584 # 80008db8 <_memory_end+0xf8008db8>
8000355c:	99dfd0ef          	jal	ra,80000ef8 <uart_puts>
        task_yield();
80003560:	e3cfe0ef          	jal	ra,80001b9c <task_yield>
        uart_puts("Task 91 priority = 70 \n");
80003564:	ff1ff06f          	j	80003554 <user_task91+0x14>

80003568 <user_task92>:
        //uart_puts("return Task 27 \n");
    }
}

void user_task92(void *p) {
80003568:	fe010113          	addi	sp,sp,-32
8000356c:	00112e23          	sw	ra,28(sp)
80003570:	00812c23          	sw	s0,24(sp)
80003574:	02010413          	addi	s0,sp,32
80003578:	fea42623          	sw	a0,-20(s0)
    while (1) {
        //uart_puts("-----------Task 92-----------\n");
        uart_puts("Task 92 priority = 173 \n");
8000357c:	800097b7          	lui	a5,0x80009
80003580:	dd078513          	addi	a0,a5,-560 # 80008dd0 <_memory_end+0xf8008dd0>
80003584:	975fd0ef          	jal	ra,80000ef8 <uart_puts>
        task_yield();
80003588:	e14fe0ef          	jal	ra,80001b9c <task_yield>
        uart_puts("Task 92 priority = 173 \n");
8000358c:	ff1ff06f          	j	8000357c <user_task92+0x14>

80003590 <user_task93>:
        //uart_puts("return Task 31 \n");
    }
}

void user_task93(void *p) {
80003590:	fe010113          	addi	sp,sp,-32
80003594:	00112e23          	sw	ra,28(sp)
80003598:	00812c23          	sw	s0,24(sp)
8000359c:	02010413          	addi	s0,sp,32
800035a0:	fea42623          	sw	a0,-20(s0)
    while (1) {
        //uart_puts("-----------Task 93-----------\n");
        uart_puts("Task 93 priority = 129 \n");
800035a4:	800097b7          	lui	a5,0x80009
800035a8:	dec78513          	addi	a0,a5,-532 # 80008dec <_memory_end+0xf8008dec>
800035ac:	94dfd0ef          	jal	ra,80000ef8 <uart_puts>
        task_yield();
800035b0:	decfe0ef          	jal	ra,80001b9c <task_yield>
        uart_puts("Task 93 priority = 129 \n");
800035b4:	ff1ff06f          	j	800035a4 <user_task93+0x14>

800035b8 <user_task94>:
        //uart_puts("return Task 16 \n");
    }
}

void user_task94(void *p) {
800035b8:	fe010113          	addi	sp,sp,-32
800035bc:	00112e23          	sw	ra,28(sp)
800035c0:	00812c23          	sw	s0,24(sp)
800035c4:	02010413          	addi	s0,sp,32
800035c8:	fea42623          	sw	a0,-20(s0)
    while (1) {
        //uart_puts("-----------Task 94-----------\n");
        uart_puts("Task 94 priority = 104 \n");
800035cc:	800097b7          	lui	a5,0x80009
800035d0:	e0878513          	addi	a0,a5,-504 # 80008e08 <_memory_end+0xf8008e08>
800035d4:	925fd0ef          	jal	ra,80000ef8 <uart_puts>
        task_yield();
800035d8:	dc4fe0ef          	jal	ra,80001b9c <task_yield>
        uart_puts("Task 94 priority = 104 \n");
800035dc:	ff1ff06f          	j	800035cc <user_task94+0x14>

800035e0 <user_task95>:
        //uart_puts("return Task 11 \n");
    }
}

void user_task95(void *p) {
800035e0:	fe010113          	addi	sp,sp,-32
800035e4:	00112e23          	sw	ra,28(sp)
800035e8:	00812c23          	sw	s0,24(sp)
800035ec:	02010413          	addi	s0,sp,32
800035f0:	fea42623          	sw	a0,-20(s0)
    while (1) {
        //uart_puts("-----------Task 95-----------\n");
        uart_puts("Task 95 priority = 132 \n");
800035f4:	800097b7          	lui	a5,0x80009
800035f8:	e2478513          	addi	a0,a5,-476 # 80008e24 <_memory_end+0xf8008e24>
800035fc:	8fdfd0ef          	jal	ra,80000ef8 <uart_puts>
        task_yield();
80003600:	d9cfe0ef          	jal	ra,80001b9c <task_yield>
        uart_puts("Task 95 priority = 132 \n");
80003604:	ff1ff06f          	j	800035f4 <user_task95+0x14>

80003608 <user_task96>:
        //uart_puts("return Task 16 \n");
    }
}

void user_task96(void *p) {
80003608:	fe010113          	addi	sp,sp,-32
8000360c:	00112e23          	sw	ra,28(sp)
80003610:	00812c23          	sw	s0,24(sp)
80003614:	02010413          	addi	s0,sp,32
80003618:	fea42623          	sw	a0,-20(s0)
    while (1) {
        //uart_puts("-----------Task 96-----------\n");
        uart_puts("Task 96 priority = 85 \n");
8000361c:	800097b7          	lui	a5,0x80009
80003620:	e4078513          	addi	a0,a5,-448 # 80008e40 <_memory_end+0xf8008e40>
80003624:	8d5fd0ef          	jal	ra,80000ef8 <uart_puts>
        task_yield();
80003628:	d74fe0ef          	jal	ra,80001b9c <task_yield>
        uart_puts("Task 96 priority = 85 \n");
8000362c:	ff1ff06f          	j	8000361c <user_task96+0x14>

80003630 <user_task97>:
        //uart_puts("return Task 2 \n");
    }
}

void user_task97(void *p) {
80003630:	fe010113          	addi	sp,sp,-32
80003634:	00112e23          	sw	ra,28(sp)
80003638:	00812c23          	sw	s0,24(sp)
8000363c:	02010413          	addi	s0,sp,32
80003640:	fea42623          	sw	a0,-20(s0)
    while (1) {
        //uart_puts("-----------Task 97-----------\n");
        uart_puts("Task 97 priority = 151 \n");
80003644:	800097b7          	lui	a5,0x80009
80003648:	e5878513          	addi	a0,a5,-424 # 80008e58 <_memory_end+0xf8008e58>
8000364c:	8adfd0ef          	jal	ra,80000ef8 <uart_puts>
        task_yield();
80003650:	d4cfe0ef          	jal	ra,80001b9c <task_yield>
        uart_puts("Task 97 priority = 151 \n");
80003654:	ff1ff06f          	j	80003644 <user_task97+0x14>

80003658 <user_task98>:
        //uart_puts("return Task 5 \n");
    }
}

void user_task98(void *p) {
80003658:	fe010113          	addi	sp,sp,-32
8000365c:	00112e23          	sw	ra,28(sp)
80003660:	00812c23          	sw	s0,24(sp)
80003664:	02010413          	addi	s0,sp,32
80003668:	fea42623          	sw	a0,-20(s0)
    while (1) {
        //uart_puts("-----------Task 98-----------\n");
        uart_puts("Task 98 priority = 182 \n");
8000366c:	800097b7          	lui	a5,0x80009
80003670:	e7478513          	addi	a0,a5,-396 # 80008e74 <_memory_end+0xf8008e74>
80003674:	885fd0ef          	jal	ra,80000ef8 <uart_puts>
        task_yield();
80003678:	d24fe0ef          	jal	ra,80001b9c <task_yield>
        uart_puts("Task 98 priority = 182 \n");
8000367c:	ff1ff06f          	j	8000366c <user_task98+0x14>

80003680 <user_task99>:
        //uart_puts("return Task 30 \n");
    }
}

void user_task99(void *p) {
80003680:	fe010113          	addi	sp,sp,-32
80003684:	00112e23          	sw	ra,28(sp)
80003688:	00812c23          	sw	s0,24(sp)
8000368c:	02010413          	addi	s0,sp,32
80003690:	fea42623          	sw	a0,-20(s0)
    while (1) {
        //uart_puts("-----------Task 99-----------\n");
        uart_puts("Task 99 priority = 57 \n");
80003694:	800097b7          	lui	a5,0x80009
80003698:	e9078513          	addi	a0,a5,-368 # 80008e90 <_memory_end+0xf8008e90>
8000369c:	85dfd0ef          	jal	ra,80000ef8 <uart_puts>
        task_yield();
800036a0:	cfcfe0ef          	jal	ra,80001b9c <task_yield>
        uart_puts("Task 99 priority = 57 \n");
800036a4:	ff1ff06f          	j	80003694 <user_task99+0x14>

800036a8 <user_task100>:
        //uart_puts("return Task 35 \n");
    }
}

void user_task100(void *p) {
800036a8:	fe010113          	addi	sp,sp,-32
800036ac:	00112e23          	sw	ra,28(sp)
800036b0:	00812c23          	sw	s0,24(sp)
800036b4:	02010413          	addi	s0,sp,32
800036b8:	fea42623          	sw	a0,-20(s0)
    while (1) {
        //uart_puts("-----------Task 100-----------\n");
        uart_puts("Task 100 priority = 72 \n");
800036bc:	800097b7          	lui	a5,0x80009
800036c0:	ea878513          	addi	a0,a5,-344 # 80008ea8 <_memory_end+0xf8008ea8>
800036c4:	835fd0ef          	jal	ra,80000ef8 <uart_puts>
        task_yield();
800036c8:	cd4fe0ef          	jal	ra,80001b9c <task_yield>
        uart_puts("Task 100 priority = 72 \n");
800036cc:	ff1ff06f          	j	800036bc <user_task100+0x14>

800036d0 <user_task101>:
        //uart_puts("return Task 17 \n");
    }
}

void user_task101(void *p) {
800036d0:	fe010113          	addi	sp,sp,-32
800036d4:	00112e23          	sw	ra,28(sp)
800036d8:	00812c23          	sw	s0,24(sp)
800036dc:	02010413          	addi	s0,sp,32
800036e0:	fea42623          	sw	a0,-20(s0)
    while (1) {
        //uart_puts("-----------Task 101-----------\n");
        uart_puts("Task 101 priority = 130 \n");
800036e4:	800097b7          	lui	a5,0x80009
800036e8:	ec478513          	addi	a0,a5,-316 # 80008ec4 <_memory_end+0xf8008ec4>
800036ec:	80dfd0ef          	jal	ra,80000ef8 <uart_puts>
        task_yield();
800036f0:	cacfe0ef          	jal	ra,80001b9c <task_yield>
        uart_puts("Task 101 priority = 130 \n");
800036f4:	ff1ff06f          	j	800036e4 <user_task101+0x14>

800036f8 <user_task102>:
        //uart_puts("return Task 47 \n");
    }
}

void user_task102(void *p) {
800036f8:	fe010113          	addi	sp,sp,-32
800036fc:	00112e23          	sw	ra,28(sp)
80003700:	00812c23          	sw	s0,24(sp)
80003704:	02010413          	addi	s0,sp,32
80003708:	fea42623          	sw	a0,-20(s0)
    while (1) {
        //uart_puts("-----------Task 102-----------\n");
        uart_puts("Task 102 priority = 215 \n");
8000370c:	800097b7          	lui	a5,0x80009
80003710:	ee078513          	addi	a0,a5,-288 # 80008ee0 <_memory_end+0xf8008ee0>
80003714:	fe4fd0ef          	jal	ra,80000ef8 <uart_puts>
        task_yield();
80003718:	c84fe0ef          	jal	ra,80001b9c <task_yield>
        uart_puts("Task 102 priority = 215 \n");
8000371c:	ff1ff06f          	j	8000370c <user_task102+0x14>

80003720 <user_task103>:
        //uart_puts("return Task 34 \n");
    }
}

void user_task103(void *p) {
80003720:	fe010113          	addi	sp,sp,-32
80003724:	00112e23          	sw	ra,28(sp)
80003728:	00812c23          	sw	s0,24(sp)
8000372c:	02010413          	addi	s0,sp,32
80003730:	fea42623          	sw	a0,-20(s0)
    while (1) {
        //uart_puts("-----------Task 103-----------\n");
        uart_puts("Task 103 priority = 100 \n");
80003734:	800097b7          	lui	a5,0x80009
80003738:	efc78513          	addi	a0,a5,-260 # 80008efc <_memory_end+0xf8008efc>
8000373c:	fbcfd0ef          	jal	ra,80000ef8 <uart_puts>
        task_yield();
80003740:	c5cfe0ef          	jal	ra,80001b9c <task_yield>
        uart_puts("Task 103 priority = 100 \n");
80003744:	ff1ff06f          	j	80003734 <user_task103+0x14>

80003748 <user_task104>:
        //uart_puts("return Task 24 \n");
    }
}

void user_task104(void *p) {
80003748:	fe010113          	addi	sp,sp,-32
8000374c:	00112e23          	sw	ra,28(sp)
80003750:	00812c23          	sw	s0,24(sp)
80003754:	02010413          	addi	s0,sp,32
80003758:	fea42623          	sw	a0,-20(s0)
    while (1) {
        //uart_puts("-----------Task 104-----------\n");
        uart_puts("Task 104 priority = 27 \n");
8000375c:	800097b7          	lui	a5,0x80009
80003760:	f1878513          	addi	a0,a5,-232 # 80008f18 <_memory_end+0xf8008f18>
80003764:	f94fd0ef          	jal	ra,80000ef8 <uart_puts>
        task_yield();
80003768:	c34fe0ef          	jal	ra,80001b9c <task_yield>
        uart_puts("Task 104 priority = 27 \n");
8000376c:	ff1ff06f          	j	8000375c <user_task104+0x14>

80003770 <user_task105>:
        //uart_puts("return Task 22 \n");
    }
}

void user_task105(void *p) {
80003770:	fe010113          	addi	sp,sp,-32
80003774:	00112e23          	sw	ra,28(sp)
80003778:	00812c23          	sw	s0,24(sp)
8000377c:	02010413          	addi	s0,sp,32
80003780:	fea42623          	sw	a0,-20(s0)
    while (1) {
        //uart_puts("-----------Task 105-----------\n");
        uart_puts("Task 105 priority = 13 \n");
80003784:	800097b7          	lui	a5,0x80009
80003788:	f3478513          	addi	a0,a5,-204 # 80008f34 <_memory_end+0xf8008f34>
8000378c:	f6cfd0ef          	jal	ra,80000ef8 <uart_puts>
        task_yield();
80003790:	c0cfe0ef          	jal	ra,80001b9c <task_yield>
        uart_puts("Task 105 priority = 13 \n");
80003794:	ff1ff06f          	j	80003784 <user_task105+0x14>

80003798 <user_task106>:
        //uart_puts("return Task 42 \n");
    }
}

void user_task106(void *p) {
80003798:	fe010113          	addi	sp,sp,-32
8000379c:	00112e23          	sw	ra,28(sp)
800037a0:	00812c23          	sw	s0,24(sp)
800037a4:	02010413          	addi	s0,sp,32
800037a8:	fea42623          	sw	a0,-20(s0)
    while (1) {
        //uart_puts("-----------Task 106-----------\n");
        uart_puts("Task 106 priority = 163 \n");
800037ac:	800097b7          	lui	a5,0x80009
800037b0:	f5078513          	addi	a0,a5,-176 # 80008f50 <_memory_end+0xf8008f50>
800037b4:	f44fd0ef          	jal	ra,80000ef8 <uart_puts>
        task_yield();
800037b8:	be4fe0ef          	jal	ra,80001b9c <task_yield>
        uart_puts("Task 106 priority = 163 \n");
800037bc:	ff1ff06f          	j	800037ac <user_task106+0x14>

800037c0 <user_task107>:
        //uart_puts("return Task 29 \n");
    }
}

void user_task107(void *p) {
800037c0:	fe010113          	addi	sp,sp,-32
800037c4:	00112e23          	sw	ra,28(sp)
800037c8:	00812c23          	sw	s0,24(sp)
800037cc:	02010413          	addi	s0,sp,32
800037d0:	fea42623          	sw	a0,-20(s0)
    while (1) {
        //uart_puts("-----------Task 107-----------\n");
        uart_puts("Task 107 priority = 118 \n");
800037d4:	800097b7          	lui	a5,0x80009
800037d8:	f6c78513          	addi	a0,a5,-148 # 80008f6c <_memory_end+0xf8008f6c>
800037dc:	f1cfd0ef          	jal	ra,80000ef8 <uart_puts>
        task_yield();
800037e0:	bbcfe0ef          	jal	ra,80001b9c <task_yield>
        uart_puts("Task 107 priority = 118 \n");
800037e4:	ff1ff06f          	j	800037d4 <user_task107+0x14>

800037e8 <user_task108>:
        //uart_puts("return Task 45 \n");
    }
}

void user_task108(void *p) {
800037e8:	fe010113          	addi	sp,sp,-32
800037ec:	00112e23          	sw	ra,28(sp)
800037f0:	00812c23          	sw	s0,24(sp)
800037f4:	02010413          	addi	s0,sp,32
800037f8:	fea42623          	sw	a0,-20(s0)
    while (1) {
        //uart_puts("-----------Task 108-----------\n");
        uart_puts("Task 108 priority = 155 \n");
800037fc:	800097b7          	lui	a5,0x80009
80003800:	f8878513          	addi	a0,a5,-120 # 80008f88 <_memory_end+0xf8008f88>
80003804:	ef4fd0ef          	jal	ra,80000ef8 <uart_puts>
        task_yield();
80003808:	b94fe0ef          	jal	ra,80001b9c <task_yield>
        uart_puts("Task 108 priority = 155 \n");
8000380c:	ff1ff06f          	j	800037fc <user_task108+0x14>

80003810 <user_task109>:
        //uart_puts("return Task 24 \n");
    }
}

void user_task109(void *p) {
80003810:	fe010113          	addi	sp,sp,-32
80003814:	00112e23          	sw	ra,28(sp)
80003818:	00812c23          	sw	s0,24(sp)
8000381c:	02010413          	addi	s0,sp,32
80003820:	fea42623          	sw	a0,-20(s0)
    while (1) {
        //uart_puts("-----------Task 109-----------\n");
        uart_puts("Task 109 priority = 113 \n");
80003824:	800097b7          	lui	a5,0x80009
80003828:	fa478513          	addi	a0,a5,-92 # 80008fa4 <_memory_end+0xf8008fa4>
8000382c:	eccfd0ef          	jal	ra,80000ef8 <uart_puts>
        task_yield();
80003830:	b6cfe0ef          	jal	ra,80001b9c <task_yield>
        uart_puts("Task 109 priority = 113 \n");
80003834:	ff1ff06f          	j	80003824 <user_task109+0x14>

80003838 <user_task110>:
        //uart_puts("return Task 27 \n");
    }
}

void user_task110(void *p) {
80003838:	fe010113          	addi	sp,sp,-32
8000383c:	00112e23          	sw	ra,28(sp)
80003840:	00812c23          	sw	s0,24(sp)
80003844:	02010413          	addi	s0,sp,32
80003848:	fea42623          	sw	a0,-20(s0)
    while (1) {
        //uart_puts("-----------Task 110-----------\n");
        uart_puts("Task 110 priority = 66 \n");
8000384c:	800097b7          	lui	a5,0x80009
80003850:	fc078513          	addi	a0,a5,-64 # 80008fc0 <_memory_end+0xf8008fc0>
80003854:	ea4fd0ef          	jal	ra,80000ef8 <uart_puts>
        task_yield();
80003858:	b44fe0ef          	jal	ra,80001b9c <task_yield>
        uart_puts("Task 110 priority = 66 \n");
8000385c:	ff1ff06f          	j	8000384c <user_task110+0x14>

80003860 <user_task111>:
        //uart_puts("return Task 26 \n");
    }
}

void user_task111(void *p) {
80003860:	fe010113          	addi	sp,sp,-32
80003864:	00112e23          	sw	ra,28(sp)
80003868:	00812c23          	sw	s0,24(sp)
8000386c:	02010413          	addi	s0,sp,32
80003870:	fea42623          	sw	a0,-20(s0)
    while (1) {
        //uart_puts("-----------Task 111-----------\n");
        uart_puts("Task 111 priority = 6 \n");
80003874:	800097b7          	lui	a5,0x80009
80003878:	fdc78513          	addi	a0,a5,-36 # 80008fdc <_memory_end+0xf8008fdc>
8000387c:	e7cfd0ef          	jal	ra,80000ef8 <uart_puts>
        task_yield();
80003880:	b1cfe0ef          	jal	ra,80001b9c <task_yield>
        uart_puts("Task 111 priority = 6 \n");
80003884:	ff1ff06f          	j	80003874 <user_task111+0x14>

80003888 <user_task112>:
        //uart_puts("return Task 9 \n");
    }
}

void user_task112(void *p) {
80003888:	fe010113          	addi	sp,sp,-32
8000388c:	00112e23          	sw	ra,28(sp)
80003890:	00812c23          	sw	s0,24(sp)
80003894:	02010413          	addi	s0,sp,32
80003898:	fea42623          	sw	a0,-20(s0)
    while (1) {
        //uart_puts("-----------Task 112-----------\n");
        uart_puts("Task 112 priority = 24 \n");
8000389c:	800097b7          	lui	a5,0x80009
800038a0:	ff478513          	addi	a0,a5,-12 # 80008ff4 <_memory_end+0xf8008ff4>
800038a4:	e54fd0ef          	jal	ra,80000ef8 <uart_puts>
        task_yield();
800038a8:	af4fe0ef          	jal	ra,80001b9c <task_yield>
        uart_puts("Task 112 priority = 24 \n");
800038ac:	ff1ff06f          	j	8000389c <user_task112+0x14>

800038b0 <user_task113>:
        //uart_puts("return Task 41 \n");
    }
}

void user_task113(void *p) {
800038b0:	fe010113          	addi	sp,sp,-32
800038b4:	00112e23          	sw	ra,28(sp)
800038b8:	00812c23          	sw	s0,24(sp)
800038bc:	02010413          	addi	s0,sp,32
800038c0:	fea42623          	sw	a0,-20(s0)
    while (1) {
        //uart_puts("-----------Task 113-----------\n");
        uart_puts("Task 113 priority = 62 \n");
800038c4:	800097b7          	lui	a5,0x80009
800038c8:	01078513          	addi	a0,a5,16 # 80009010 <_memory_end+0xf8009010>
800038cc:	e2cfd0ef          	jal	ra,80000ef8 <uart_puts>
        task_yield();
800038d0:	accfe0ef          	jal	ra,80001b9c <task_yield>
        uart_puts("Task 113 priority = 62 \n");
800038d4:	ff1ff06f          	j	800038c4 <user_task113+0x14>

800038d8 <user_task114>:
        //uart_puts("return Task 6 \n");
    }
}

void user_task114(void *p) {
800038d8:	fe010113          	addi	sp,sp,-32
800038dc:	00112e23          	sw	ra,28(sp)
800038e0:	00812c23          	sw	s0,24(sp)
800038e4:	02010413          	addi	s0,sp,32
800038e8:	fea42623          	sw	a0,-20(s0)
    while (1) {
        //uart_puts("-----------Task 114-----------\n");
        uart_puts("Task 114 priority = 238 \n");
800038ec:	800097b7          	lui	a5,0x80009
800038f0:	02c78513          	addi	a0,a5,44 # 8000902c <_memory_end+0xf800902c>
800038f4:	e04fd0ef          	jal	ra,80000ef8 <uart_puts>
        task_yield();
800038f8:	aa4fe0ef          	jal	ra,80001b9c <task_yield>
        uart_puts("Task 114 priority = 238 \n");
800038fc:	ff1ff06f          	j	800038ec <user_task114+0x14>

80003900 <user_task115>:
        //uart_puts("return Task 7 \n");
    }
}

void user_task115(void *p) {
80003900:	fe010113          	addi	sp,sp,-32
80003904:	00112e23          	sw	ra,28(sp)
80003908:	00812c23          	sw	s0,24(sp)
8000390c:	02010413          	addi	s0,sp,32
80003910:	fea42623          	sw	a0,-20(s0)
    while (1) {
        //uart_puts("-----------Task 115-----------\n");
        uart_puts("Task 115 priority = 190 \n");
80003914:	800097b7          	lui	a5,0x80009
80003918:	04878513          	addi	a0,a5,72 # 80009048 <_memory_end+0xf8009048>
8000391c:	ddcfd0ef          	jal	ra,80000ef8 <uart_puts>
        task_yield();
80003920:	a7cfe0ef          	jal	ra,80001b9c <task_yield>
        uart_puts("Task 115 priority = 190 \n");
80003924:	ff1ff06f          	j	80003914 <user_task115+0x14>

80003928 <user_task116>:
        //uart_puts("return Task 25 \n");
    }
}

void user_task116(void *p) {
80003928:	fe010113          	addi	sp,sp,-32
8000392c:	00112e23          	sw	ra,28(sp)
80003930:	00812c23          	sw	s0,24(sp)
80003934:	02010413          	addi	s0,sp,32
80003938:	fea42623          	sw	a0,-20(s0)
    while (1) {
        //uart_puts("-----------Task 116-----------\n");
        uart_puts("Task 116 priority = 25 \n");
8000393c:	800097b7          	lui	a5,0x80009
80003940:	06478513          	addi	a0,a5,100 # 80009064 <_memory_end+0xf8009064>
80003944:	db4fd0ef          	jal	ra,80000ef8 <uart_puts>
        task_yield();
80003948:	a54fe0ef          	jal	ra,80001b9c <task_yield>
        uart_puts("Task 116 priority = 25 \n");
8000394c:	ff1ff06f          	j	8000393c <user_task116+0x14>

80003950 <user_task117>:
        //uart_puts("return Task 2 \n");
    }
}

void user_task117(void *p) {
80003950:	fe010113          	addi	sp,sp,-32
80003954:	00112e23          	sw	ra,28(sp)
80003958:	00812c23          	sw	s0,24(sp)
8000395c:	02010413          	addi	s0,sp,32
80003960:	fea42623          	sw	a0,-20(s0)
    while (1) {
        //uart_puts("-----------Task 117-----------\n");
        uart_puts("Task 117 priority = 4 \n");
80003964:	800097b7          	lui	a5,0x80009
80003968:	08078513          	addi	a0,a5,128 # 80009080 <_memory_end+0xf8009080>
8000396c:	d8cfd0ef          	jal	ra,80000ef8 <uart_puts>
        task_yield();
80003970:	a2cfe0ef          	jal	ra,80001b9c <task_yield>
        uart_puts("Task 117 priority = 4 \n");
80003974:	ff1ff06f          	j	80003964 <user_task117+0x14>

80003978 <user_task118>:
        //uart_puts("return Task 2 \n");
    }
}

void user_task118(void *p) {
80003978:	fe010113          	addi	sp,sp,-32
8000397c:	00112e23          	sw	ra,28(sp)
80003980:	00812c23          	sw	s0,24(sp)
80003984:	02010413          	addi	s0,sp,32
80003988:	fea42623          	sw	a0,-20(s0)
    while (1) {
        //uart_puts("-----------Task 118-----------\n");
        uart_puts("Task 118 priority = 254 \n");
8000398c:	800097b7          	lui	a5,0x80009
80003990:	09878513          	addi	a0,a5,152 # 80009098 <_memory_end+0xf8009098>
80003994:	d64fd0ef          	jal	ra,80000ef8 <uart_puts>
        task_yield();
80003998:	a04fe0ef          	jal	ra,80001b9c <task_yield>
        uart_puts("Task 118 priority = 254 \n");
8000399c:	ff1ff06f          	j	8000398c <user_task118+0x14>

800039a0 <user_task119>:
        //uart_puts("return Task 22 \n");
    }
}

void user_task119(void *p) {
800039a0:	fe010113          	addi	sp,sp,-32
800039a4:	00112e23          	sw	ra,28(sp)
800039a8:	00812c23          	sw	s0,24(sp)
800039ac:	02010413          	addi	s0,sp,32
800039b0:	fea42623          	sw	a0,-20(s0)
    while (1) {
        //uart_puts("-----------Task 119-----------\n");
        uart_puts("Task 119 priority = 141 \n");
800039b4:	800097b7          	lui	a5,0x80009
800039b8:	0b478513          	addi	a0,a5,180 # 800090b4 <_memory_end+0xf80090b4>
800039bc:	d3cfd0ef          	jal	ra,80000ef8 <uart_puts>
        task_yield();
800039c0:	9dcfe0ef          	jal	ra,80001b9c <task_yield>
        uart_puts("Task 119 priority = 141 \n");
800039c4:	ff1ff06f          	j	800039b4 <user_task119+0x14>

800039c8 <user_task120>:
        //uart_puts("return Task 21 \n");
    }
}

void user_task120(void *p) {
800039c8:	fe010113          	addi	sp,sp,-32
800039cc:	00112e23          	sw	ra,28(sp)
800039d0:	00812c23          	sw	s0,24(sp)
800039d4:	02010413          	addi	s0,sp,32
800039d8:	fea42623          	sw	a0,-20(s0)
    while (1) {
        //uart_puts("-----------Task 120-----------\n");
        uart_puts("Task 120 priority = 126 \n");
800039dc:	800097b7          	lui	a5,0x80009
800039e0:	0d078513          	addi	a0,a5,208 # 800090d0 <_memory_end+0xf80090d0>
800039e4:	d14fd0ef          	jal	ra,80000ef8 <uart_puts>
        task_yield();
800039e8:	9b4fe0ef          	jal	ra,80001b9c <task_yield>
        uart_puts("Task 120 priority = 126 \n");
800039ec:	ff1ff06f          	j	800039dc <user_task120+0x14>

800039f0 <user_task121>:
        //uart_puts("return Task 3 \n");
    }
}

void user_task121(void *p) {
800039f0:	fe010113          	addi	sp,sp,-32
800039f4:	00112e23          	sw	ra,28(sp)
800039f8:	00812c23          	sw	s0,24(sp)
800039fc:	02010413          	addi	s0,sp,32
80003a00:	fea42623          	sw	a0,-20(s0)
    while (1) {
        //uart_puts("-----------Task 121-----------\n");
        uart_puts("Task 121 priority = 245 \n");
80003a04:	800097b7          	lui	a5,0x80009
80003a08:	0ec78513          	addi	a0,a5,236 # 800090ec <_memory_end+0xf80090ec>
80003a0c:	cecfd0ef          	jal	ra,80000ef8 <uart_puts>
        task_yield();
80003a10:	98cfe0ef          	jal	ra,80001b9c <task_yield>
        uart_puts("Task 121 priority = 245 \n");
80003a14:	ff1ff06f          	j	80003a04 <user_task121+0x14>

80003a18 <user_task122>:
        //uart_puts("return Task 48 \n");
    }
}

void user_task122(void *p) {
80003a18:	fe010113          	addi	sp,sp,-32
80003a1c:	00112e23          	sw	ra,28(sp)
80003a20:	00812c23          	sw	s0,24(sp)
80003a24:	02010413          	addi	s0,sp,32
80003a28:	fea42623          	sw	a0,-20(s0)
    while (1) {
        //uart_puts("-----------Task 122-----------\n");
        uart_puts("Task 122 priority = 14 \n");
80003a2c:	800097b7          	lui	a5,0x80009
80003a30:	10878513          	addi	a0,a5,264 # 80009108 <_memory_end+0xf8009108>
80003a34:	cc4fd0ef          	jal	ra,80000ef8 <uart_puts>
        task_yield();
80003a38:	964fe0ef          	jal	ra,80001b9c <task_yield>
        uart_puts("Task 122 priority = 14 \n");
80003a3c:	ff1ff06f          	j	80003a2c <user_task122+0x14>

80003a40 <user_task123>:
        //uart_puts("return Task 37 \n");
    }
}

void user_task123(void *p) {
80003a40:	fe010113          	addi	sp,sp,-32
80003a44:	00112e23          	sw	ra,28(sp)
80003a48:	00812c23          	sw	s0,24(sp)
80003a4c:	02010413          	addi	s0,sp,32
80003a50:	fea42623          	sw	a0,-20(s0)
    while (1) {
        //uart_puts("-----------Task 123-----------\n");
        uart_puts("Task 123 priority = 96 \n");
80003a54:	800097b7          	lui	a5,0x80009
80003a58:	12478513          	addi	a0,a5,292 # 80009124 <_memory_end+0xf8009124>
80003a5c:	c9cfd0ef          	jal	ra,80000ef8 <uart_puts>
        task_yield();
80003a60:	93cfe0ef          	jal	ra,80001b9c <task_yield>
        uart_puts("Task 123 priority = 96 \n");
80003a64:	ff1ff06f          	j	80003a54 <user_task123+0x14>

80003a68 <user_task124>:
        //uart_puts("return Task 24 \n");
    }
}

void user_task124(void *p) {
80003a68:	fe010113          	addi	sp,sp,-32
80003a6c:	00112e23          	sw	ra,28(sp)
80003a70:	00812c23          	sw	s0,24(sp)
80003a74:	02010413          	addi	s0,sp,32
80003a78:	fea42623          	sw	a0,-20(s0)
    while (1) {
        //uart_puts("-----------Task 124-----------\n");
        uart_puts("Task 124 priority = 177 \n");
80003a7c:	800097b7          	lui	a5,0x80009
80003a80:	14078513          	addi	a0,a5,320 # 80009140 <_memory_end+0xf8009140>
80003a84:	c74fd0ef          	jal	ra,80000ef8 <uart_puts>
        task_yield();
80003a88:	914fe0ef          	jal	ra,80001b9c <task_yield>
        uart_puts("Task 124 priority = 177 \n");
80003a8c:	ff1ff06f          	j	80003a7c <user_task124+0x14>

80003a90 <user_task125>:
        //uart_puts("return Task 43 \n");
    }
}

void user_task125(void *p) {
80003a90:	fe010113          	addi	sp,sp,-32
80003a94:	00112e23          	sw	ra,28(sp)
80003a98:	00812c23          	sw	s0,24(sp)
80003a9c:	02010413          	addi	s0,sp,32
80003aa0:	fea42623          	sw	a0,-20(s0)
    while (1) {
        //uart_puts("-----------Task 125-----------\n");
        uart_puts("Task 125 priority = 193 \n");
80003aa4:	800097b7          	lui	a5,0x80009
80003aa8:	15c78513          	addi	a0,a5,348 # 8000915c <_memory_end+0xf800915c>
80003aac:	c4cfd0ef          	jal	ra,80000ef8 <uart_puts>
        task_yield();
80003ab0:	8ecfe0ef          	jal	ra,80001b9c <task_yield>
        uart_puts("Task 125 priority = 193 \n");
80003ab4:	ff1ff06f          	j	80003aa4 <user_task125+0x14>

80003ab8 <user_task126>:
        //uart_puts("return Task 35 \n");
    }
}

void user_task126(void *p) {
80003ab8:	fe010113          	addi	sp,sp,-32
80003abc:	00112e23          	sw	ra,28(sp)
80003ac0:	00812c23          	sw	s0,24(sp)
80003ac4:	02010413          	addi	s0,sp,32
80003ac8:	fea42623          	sw	a0,-20(s0)
    while (1) {
        //uart_puts("-----------Task 126-----------\n");
        uart_puts("Task 126 priority = 232 \n");
80003acc:	800097b7          	lui	a5,0x80009
80003ad0:	17878513          	addi	a0,a5,376 # 80009178 <_memory_end+0xf8009178>
80003ad4:	c24fd0ef          	jal	ra,80000ef8 <uart_puts>
        task_yield();
80003ad8:	8c4fe0ef          	jal	ra,80001b9c <task_yield>
        uart_puts("Task 126 priority = 232 \n");
80003adc:	ff1ff06f          	j	80003acc <user_task126+0x14>

80003ae0 <user_task127>:
        //uart_puts("return Task 9 \n");
    }
}

void user_task127(void *p) {
80003ae0:	fe010113          	addi	sp,sp,-32
80003ae4:	00112e23          	sw	ra,28(sp)
80003ae8:	00812c23          	sw	s0,24(sp)
80003aec:	02010413          	addi	s0,sp,32
80003af0:	fea42623          	sw	a0,-20(s0)
    while (1) {
        //uart_puts("-----------Task 127-----------\n");
        uart_puts("Task 127 priority = 137 \n");
80003af4:	800097b7          	lui	a5,0x80009
80003af8:	19478513          	addi	a0,a5,404 # 80009194 <_memory_end+0xf8009194>
80003afc:	bfcfd0ef          	jal	ra,80000ef8 <uart_puts>
        task_yield();
80003b00:	89cfe0ef          	jal	ra,80001b9c <task_yield>
        uart_puts("Task 127 priority = 137 \n");
80003b04:	ff1ff06f          	j	80003af4 <user_task127+0x14>

80003b08 <user_task128>:
        //uart_puts("return Task 37 \n");
    }
}

void user_task128(void *p) {
80003b08:	fe010113          	addi	sp,sp,-32
80003b0c:	00112e23          	sw	ra,28(sp)
80003b10:	00812c23          	sw	s0,24(sp)
80003b14:	02010413          	addi	s0,sp,32
80003b18:	fea42623          	sw	a0,-20(s0)
    while (1) {
        //uart_puts("-----------Task 128-----------\n");
        uart_puts("Task 128 priority = 142 \n");
80003b1c:	800097b7          	lui	a5,0x80009
80003b20:	1b078513          	addi	a0,a5,432 # 800091b0 <_memory_end+0xf80091b0>
80003b24:	bd4fd0ef          	jal	ra,80000ef8 <uart_puts>
        task_yield();
80003b28:	874fe0ef          	jal	ra,80001b9c <task_yield>
        uart_puts("Task 128 priority = 142 \n");
80003b2c:	ff1ff06f          	j	80003b1c <user_task128+0x14>

80003b30 <user_task129>:
        //uart_puts("return Task 21 \n");
    }
}

void user_task129(void *p) {
80003b30:	fe010113          	addi	sp,sp,-32
80003b34:	00112e23          	sw	ra,28(sp)
80003b38:	00812c23          	sw	s0,24(sp)
80003b3c:	02010413          	addi	s0,sp,32
80003b40:	fea42623          	sw	a0,-20(s0)
    while (1) {
        //uart_puts("-----------Task 129-----------\n");
        uart_puts("Task 129 priority = 193 \n");
80003b44:	800097b7          	lui	a5,0x80009
80003b48:	1cc78513          	addi	a0,a5,460 # 800091cc <_memory_end+0xf80091cc>
80003b4c:	bacfd0ef          	jal	ra,80000ef8 <uart_puts>
        task_yield();
80003b50:	84cfe0ef          	jal	ra,80001b9c <task_yield>
        uart_puts("Task 129 priority = 193 \n");
80003b54:	ff1ff06f          	j	80003b44 <user_task129+0x14>

80003b58 <user_task130>:
        //uart_puts("return Task 21 \n");
    }
}

void user_task130(void *p) {
80003b58:	fe010113          	addi	sp,sp,-32
80003b5c:	00112e23          	sw	ra,28(sp)
80003b60:	00812c23          	sw	s0,24(sp)
80003b64:	02010413          	addi	s0,sp,32
80003b68:	fea42623          	sw	a0,-20(s0)
    while (1) {
        //uart_puts("-----------Task 130-----------\n");
        uart_puts("Task 130 priority = 84 \n");
80003b6c:	800097b7          	lui	a5,0x80009
80003b70:	1e878513          	addi	a0,a5,488 # 800091e8 <_memory_end+0xf80091e8>
80003b74:	b84fd0ef          	jal	ra,80000ef8 <uart_puts>
        task_yield();
80003b78:	824fe0ef          	jal	ra,80001b9c <task_yield>
        uart_puts("Task 130 priority = 84 \n");
80003b7c:	ff1ff06f          	j	80003b6c <user_task130+0x14>

80003b80 <user_task131>:
        //uart_puts("return Task 39 \n");
    }
}

void user_task131(void *p) {
80003b80:	fe010113          	addi	sp,sp,-32
80003b84:	00112e23          	sw	ra,28(sp)
80003b88:	00812c23          	sw	s0,24(sp)
80003b8c:	02010413          	addi	s0,sp,32
80003b90:	fea42623          	sw	a0,-20(s0)
    while (1) {
        //uart_puts("-----------Task 131-----------\n");
        uart_puts("Task 131 priority = 64 \n");
80003b94:	800097b7          	lui	a5,0x80009
80003b98:	20478513          	addi	a0,a5,516 # 80009204 <_memory_end+0xf8009204>
80003b9c:	b5cfd0ef          	jal	ra,80000ef8 <uart_puts>
        task_yield();
80003ba0:	ffdfd0ef          	jal	ra,80001b9c <task_yield>
        uart_puts("Task 131 priority = 64 \n");
80003ba4:	ff1ff06f          	j	80003b94 <user_task131+0x14>

80003ba8 <user_task132>:
        //uart_puts("return Task 50 \n");
    }
}

void user_task132(void *p) {
80003ba8:	fe010113          	addi	sp,sp,-32
80003bac:	00112e23          	sw	ra,28(sp)
80003bb0:	00812c23          	sw	s0,24(sp)
80003bb4:	02010413          	addi	s0,sp,32
80003bb8:	fea42623          	sw	a0,-20(s0)
    while (1) {
        //uart_puts("-----------Task 132-----------\n");
        uart_puts("Task 132 priority = 62 \n");
80003bbc:	800097b7          	lui	a5,0x80009
80003bc0:	22078513          	addi	a0,a5,544 # 80009220 <_memory_end+0xf8009220>
80003bc4:	b34fd0ef          	jal	ra,80000ef8 <uart_puts>
        task_yield();
80003bc8:	fd5fd0ef          	jal	ra,80001b9c <task_yield>
        uart_puts("Task 132 priority = 62 \n");
80003bcc:	ff1ff06f          	j	80003bbc <user_task132+0x14>

80003bd0 <user_task133>:
        //uart_puts("return Task 10 \n");
    }
}

void user_task133(void *p) {
80003bd0:	fe010113          	addi	sp,sp,-32
80003bd4:	00112e23          	sw	ra,28(sp)
80003bd8:	00812c23          	sw	s0,24(sp)
80003bdc:	02010413          	addi	s0,sp,32
80003be0:	fea42623          	sw	a0,-20(s0)
    while (1) {
        //uart_puts("-----------Task 133-----------\n");
        uart_puts("Task 133 priority = 192 \n");
80003be4:	800097b7          	lui	a5,0x80009
80003be8:	23c78513          	addi	a0,a5,572 # 8000923c <_memory_end+0xf800923c>
80003bec:	b0cfd0ef          	jal	ra,80000ef8 <uart_puts>
        task_yield();
80003bf0:	fadfd0ef          	jal	ra,80001b9c <task_yield>
        uart_puts("Task 133 priority = 192 \n");
80003bf4:	ff1ff06f          	j	80003be4 <user_task133+0x14>

80003bf8 <user_task134>:
        //uart_puts("return Task 37 \n");
    }
}

void user_task134(void *p) {
80003bf8:	fe010113          	addi	sp,sp,-32
80003bfc:	00112e23          	sw	ra,28(sp)
80003c00:	00812c23          	sw	s0,24(sp)
80003c04:	02010413          	addi	s0,sp,32
80003c08:	fea42623          	sw	a0,-20(s0)
    while (1) {
        //uart_puts("-----------Task 134-----------\n");
        uart_puts("Task 134 priority = 199 \n");
80003c0c:	800097b7          	lui	a5,0x80009
80003c10:	25878513          	addi	a0,a5,600 # 80009258 <_memory_end+0xf8009258>
80003c14:	ae4fd0ef          	jal	ra,80000ef8 <uart_puts>
        task_yield();
80003c18:	f85fd0ef          	jal	ra,80001b9c <task_yield>
        uart_puts("Task 134 priority = 199 \n");
80003c1c:	ff1ff06f          	j	80003c0c <user_task134+0x14>

80003c20 <user_task135>:
        //uart_puts("return Task 45 \n");
    }
}

void user_task135(void *p) {
80003c20:	fe010113          	addi	sp,sp,-32
80003c24:	00112e23          	sw	ra,28(sp)
80003c28:	00812c23          	sw	s0,24(sp)
80003c2c:	02010413          	addi	s0,sp,32
80003c30:	fea42623          	sw	a0,-20(s0)
    while (1) {
        //uart_puts("-----------Task 135-----------\n");
        uart_puts("Task 135 priority = 149 \n");
80003c34:	800097b7          	lui	a5,0x80009
80003c38:	27478513          	addi	a0,a5,628 # 80009274 <_memory_end+0xf8009274>
80003c3c:	abcfd0ef          	jal	ra,80000ef8 <uart_puts>
        task_yield();
80003c40:	f5dfd0ef          	jal	ra,80001b9c <task_yield>
        uart_puts("Task 135 priority = 149 \n");
80003c44:	ff1ff06f          	j	80003c34 <user_task135+0x14>

80003c48 <user_task136>:
        //uart_puts("return Task 23 \n");
    }
}

void user_task136(void *p) {
80003c48:	fe010113          	addi	sp,sp,-32
80003c4c:	00112e23          	sw	ra,28(sp)
80003c50:	00812c23          	sw	s0,24(sp)
80003c54:	02010413          	addi	s0,sp,32
80003c58:	fea42623          	sw	a0,-20(s0)
    while (1) {
        //uart_puts("-----------Task 136-----------\n");
        uart_puts("Task 136 priority = 223 \n");
80003c5c:	800097b7          	lui	a5,0x80009
80003c60:	29078513          	addi	a0,a5,656 # 80009290 <_memory_end+0xf8009290>
80003c64:	a94fd0ef          	jal	ra,80000ef8 <uart_puts>
        task_yield();
80003c68:	f35fd0ef          	jal	ra,80001b9c <task_yield>
        uart_puts("Task 136 priority = 223 \n");
80003c6c:	ff1ff06f          	j	80003c5c <user_task136+0x14>

80003c70 <user_task137>:
        //uart_puts("return Task 10 \n");
    }
}

void user_task137(void *p) {
80003c70:	fe010113          	addi	sp,sp,-32
80003c74:	00112e23          	sw	ra,28(sp)
80003c78:	00812c23          	sw	s0,24(sp)
80003c7c:	02010413          	addi	s0,sp,32
80003c80:	fea42623          	sw	a0,-20(s0)
    while (1) {
        //uart_puts("-----------Task 137-----------\n");
        uart_puts("Task 137 priority = 163 \n");
80003c84:	800097b7          	lui	a5,0x80009
80003c88:	2ac78513          	addi	a0,a5,684 # 800092ac <_memory_end+0xf80092ac>
80003c8c:	a6cfd0ef          	jal	ra,80000ef8 <uart_puts>
        task_yield();
80003c90:	f0dfd0ef          	jal	ra,80001b9c <task_yield>
        uart_puts("Task 137 priority = 163 \n");
80003c94:	ff1ff06f          	j	80003c84 <user_task137+0x14>

80003c98 <user_task138>:
        //uart_puts("return Task 2 \n");
    }
}

void user_task138(void *p) {
80003c98:	fe010113          	addi	sp,sp,-32
80003c9c:	00112e23          	sw	ra,28(sp)
80003ca0:	00812c23          	sw	s0,24(sp)
80003ca4:	02010413          	addi	s0,sp,32
80003ca8:	fea42623          	sw	a0,-20(s0)
    while (1) {
        //uart_puts("-----------Task 138-----------\n");
        uart_puts("Task 138 priority = 77 \n");
80003cac:	800097b7          	lui	a5,0x80009
80003cb0:	2c878513          	addi	a0,a5,712 # 800092c8 <_memory_end+0xf80092c8>
80003cb4:	a44fd0ef          	jal	ra,80000ef8 <uart_puts>
        task_yield();
80003cb8:	ee5fd0ef          	jal	ra,80001b9c <task_yield>
        uart_puts("Task 138 priority = 77 \n");
80003cbc:	ff1ff06f          	j	80003cac <user_task138+0x14>

80003cc0 <user_task139>:
        //uart_puts("return Task 3 \n");
    }
}

void user_task139(void *p) {
80003cc0:	fe010113          	addi	sp,sp,-32
80003cc4:	00112e23          	sw	ra,28(sp)
80003cc8:	00812c23          	sw	s0,24(sp)
80003ccc:	02010413          	addi	s0,sp,32
80003cd0:	fea42623          	sw	a0,-20(s0)
    while (1) {
        //uart_puts("-----------Task 139-----------\n");
        uart_puts("Task 139 priority = 209 \n");
80003cd4:	800097b7          	lui	a5,0x80009
80003cd8:	2e478513          	addi	a0,a5,740 # 800092e4 <_memory_end+0xf80092e4>
80003cdc:	a1cfd0ef          	jal	ra,80000ef8 <uart_puts>
        task_yield();
80003ce0:	ebdfd0ef          	jal	ra,80001b9c <task_yield>
        uart_puts("Task 139 priority = 209 \n");
80003ce4:	ff1ff06f          	j	80003cd4 <user_task139+0x14>

80003ce8 <user_task140>:
        //uart_puts("return Task 27 \n");
    }
}

void user_task140(void *p) {
80003ce8:	fe010113          	addi	sp,sp,-32
80003cec:	00112e23          	sw	ra,28(sp)
80003cf0:	00812c23          	sw	s0,24(sp)
80003cf4:	02010413          	addi	s0,sp,32
80003cf8:	fea42623          	sw	a0,-20(s0)
    while (1) {
        //uart_puts("-----------Task 140-----------\n");
        uart_puts("Task 140 priority = 176 \n");
80003cfc:	800097b7          	lui	a5,0x80009
80003d00:	30078513          	addi	a0,a5,768 # 80009300 <_memory_end+0xf8009300>
80003d04:	9f4fd0ef          	jal	ra,80000ef8 <uart_puts>
        task_yield();
80003d08:	e95fd0ef          	jal	ra,80001b9c <task_yield>
        uart_puts("Task 140 priority = 176 \n");
80003d0c:	ff1ff06f          	j	80003cfc <user_task140+0x14>

80003d10 <user_task141>:
        //uart_puts("return Task 21 \n");
    }
}

void user_task141(void *p) {
80003d10:	fe010113          	addi	sp,sp,-32
80003d14:	00112e23          	sw	ra,28(sp)
80003d18:	00812c23          	sw	s0,24(sp)
80003d1c:	02010413          	addi	s0,sp,32
80003d20:	fea42623          	sw	a0,-20(s0)
    while (1) {
        //uart_puts("-----------Task 141-----------\n");
        uart_puts("Task 141 priority = 230 \n");
80003d24:	800097b7          	lui	a5,0x80009
80003d28:	31c78513          	addi	a0,a5,796 # 8000931c <_memory_end+0xf800931c>
80003d2c:	9ccfd0ef          	jal	ra,80000ef8 <uart_puts>
        task_yield();
80003d30:	e6dfd0ef          	jal	ra,80001b9c <task_yield>
        uart_puts("Task 141 priority = 230 \n");
80003d34:	ff1ff06f          	j	80003d24 <user_task141+0x14>

80003d38 <user_task142>:
        //uart_puts("return Task 24 \n");
    }
}

void user_task142(void *p) {
80003d38:	fe010113          	addi	sp,sp,-32
80003d3c:	00112e23          	sw	ra,28(sp)
80003d40:	00812c23          	sw	s0,24(sp)
80003d44:	02010413          	addi	s0,sp,32
80003d48:	fea42623          	sw	a0,-20(s0)
    while (1) {
        //uart_puts("-----------Task 142-----------\n");
        uart_puts("Task 142 priority = 162 \n");
80003d4c:	800097b7          	lui	a5,0x80009
80003d50:	33878513          	addi	a0,a5,824 # 80009338 <_memory_end+0xf8009338>
80003d54:	9a4fd0ef          	jal	ra,80000ef8 <uart_puts>
        task_yield();
80003d58:	e45fd0ef          	jal	ra,80001b9c <task_yield>
        uart_puts("Task 142 priority = 162 \n");
80003d5c:	ff1ff06f          	j	80003d4c <user_task142+0x14>

80003d60 <user_task143>:
        //uart_puts("return Task 6 \n");
    }
}

void user_task143(void *p) {
80003d60:	fe010113          	addi	sp,sp,-32
80003d64:	00112e23          	sw	ra,28(sp)
80003d68:	00812c23          	sw	s0,24(sp)
80003d6c:	02010413          	addi	s0,sp,32
80003d70:	fea42623          	sw	a0,-20(s0)
    while (1) {
        //uart_puts("-----------Task 143-----------\n");
        uart_puts("Task 143 priority = 134 \n");
80003d74:	800097b7          	lui	a5,0x80009
80003d78:	35478513          	addi	a0,a5,852 # 80009354 <_memory_end+0xf8009354>
80003d7c:	97cfd0ef          	jal	ra,80000ef8 <uart_puts>
        task_yield();
80003d80:	e1dfd0ef          	jal	ra,80001b9c <task_yield>
        uart_puts("Task 143 priority = 134 \n");
80003d84:	ff1ff06f          	j	80003d74 <user_task143+0x14>

80003d88 <user_task144>:
        //uart_puts("return Task 28 \n");
    }
}

void user_task144(void *p) {
80003d88:	fe010113          	addi	sp,sp,-32
80003d8c:	00112e23          	sw	ra,28(sp)
80003d90:	00812c23          	sw	s0,24(sp)
80003d94:	02010413          	addi	s0,sp,32
80003d98:	fea42623          	sw	a0,-20(s0)
    while (1) {
        //uart_puts("-----------Task 144-----------\n");
        uart_puts("Task 144 priority = 168 \n");
80003d9c:	800097b7          	lui	a5,0x80009
80003da0:	37078513          	addi	a0,a5,880 # 80009370 <_memory_end+0xf8009370>
80003da4:	954fd0ef          	jal	ra,80000ef8 <uart_puts>
        task_yield();
80003da8:	df5fd0ef          	jal	ra,80001b9c <task_yield>
        uart_puts("Task 144 priority = 168 \n");
80003dac:	ff1ff06f          	j	80003d9c <user_task144+0x14>

80003db0 <user_task145>:
        //uart_puts("return Task 14 \n");
    }
}

void user_task145(void *p) {
80003db0:	fe010113          	addi	sp,sp,-32
80003db4:	00112e23          	sw	ra,28(sp)
80003db8:	00812c23          	sw	s0,24(sp)
80003dbc:	02010413          	addi	s0,sp,32
80003dc0:	fea42623          	sw	a0,-20(s0)
    while (1) {
        //uart_puts("-----------Task 145-----------\n");
        uart_puts("Task 145 priority = 218 \n");
80003dc4:	800097b7          	lui	a5,0x80009
80003dc8:	38c78513          	addi	a0,a5,908 # 8000938c <_memory_end+0xf800938c>
80003dcc:	92cfd0ef          	jal	ra,80000ef8 <uart_puts>
        task_yield();
80003dd0:	dcdfd0ef          	jal	ra,80001b9c <task_yield>
        uart_puts("Task 145 priority = 218 \n");
80003dd4:	ff1ff06f          	j	80003dc4 <user_task145+0x14>

80003dd8 <user_task146>:
        //uart_puts("return Task 19 \n");
    }
}

void user_task146(void *p) {
80003dd8:	fe010113          	addi	sp,sp,-32
80003ddc:	00112e23          	sw	ra,28(sp)
80003de0:	00812c23          	sw	s0,24(sp)
80003de4:	02010413          	addi	s0,sp,32
80003de8:	fea42623          	sw	a0,-20(s0)
    while (1) {
        //uart_puts("-----------Task 146-----------\n");
        uart_puts("Task 146 priority = 51 \n");
80003dec:	800097b7          	lui	a5,0x80009
80003df0:	3a878513          	addi	a0,a5,936 # 800093a8 <_memory_end+0xf80093a8>
80003df4:	904fd0ef          	jal	ra,80000ef8 <uart_puts>
        task_yield();
80003df8:	da5fd0ef          	jal	ra,80001b9c <task_yield>
        uart_puts("Task 146 priority = 51 \n");
80003dfc:	ff1ff06f          	j	80003dec <user_task146+0x14>

80003e00 <user_task147>:
        //uart_puts("return Task 20 \n");
    }
}

void user_task147(void *p) {
80003e00:	fe010113          	addi	sp,sp,-32
80003e04:	00112e23          	sw	ra,28(sp)
80003e08:	00812c23          	sw	s0,24(sp)
80003e0c:	02010413          	addi	s0,sp,32
80003e10:	fea42623          	sw	a0,-20(s0)
    while (1) {
        //uart_puts("-----------Task 147-----------\n");
        uart_puts("Task 147 priority = 86 \n");
80003e14:	800097b7          	lui	a5,0x80009
80003e18:	3c478513          	addi	a0,a5,964 # 800093c4 <_memory_end+0xf80093c4>
80003e1c:	8dcfd0ef          	jal	ra,80000ef8 <uart_puts>
        task_yield();
80003e20:	d7dfd0ef          	jal	ra,80001b9c <task_yield>
        uart_puts("Task 147 priority = 86 \n");
80003e24:	ff1ff06f          	j	80003e14 <user_task147+0x14>

80003e28 <user_task148>:
        //uart_puts("return Task 2 \n");
    }
}

void user_task148(void *p) {
80003e28:	fe010113          	addi	sp,sp,-32
80003e2c:	00112e23          	sw	ra,28(sp)
80003e30:	00812c23          	sw	s0,24(sp)
80003e34:	02010413          	addi	s0,sp,32
80003e38:	fea42623          	sw	a0,-20(s0)
    while (1) {
        //uart_puts("-----------Task 148-----------\n");
        uart_puts("Task 148 priority = 21 \n");
80003e3c:	800097b7          	lui	a5,0x80009
80003e40:	3e078513          	addi	a0,a5,992 # 800093e0 <_memory_end+0xf80093e0>
80003e44:	8b4fd0ef          	jal	ra,80000ef8 <uart_puts>
        task_yield();
80003e48:	d55fd0ef          	jal	ra,80001b9c <task_yield>
        uart_puts("Task 148 priority = 21 \n");
80003e4c:	ff1ff06f          	j	80003e3c <user_task148+0x14>

80003e50 <user_task149>:
        //uart_puts("return Task 31 \n");
    }
}

void user_task149(void *p) {
80003e50:	fe010113          	addi	sp,sp,-32
80003e54:	00112e23          	sw	ra,28(sp)
80003e58:	00812c23          	sw	s0,24(sp)
80003e5c:	02010413          	addi	s0,sp,32
80003e60:	fea42623          	sw	a0,-20(s0)
    while (1) {
        //uart_puts("-----------Task 149-----------\n");
        uart_puts("Task 149 priority = 213 \n");
80003e64:	800097b7          	lui	a5,0x80009
80003e68:	3fc78513          	addi	a0,a5,1020 # 800093fc <_memory_end+0xf80093fc>
80003e6c:	88cfd0ef          	jal	ra,80000ef8 <uart_puts>
        task_yield();
80003e70:	d2dfd0ef          	jal	ra,80001b9c <task_yield>
        uart_puts("Task 149 priority = 213 \n");
80003e74:	ff1ff06f          	j	80003e64 <user_task149+0x14>

80003e78 <user_task150>:
        //uart_puts("return Task 9 \n");
    }
}

void user_task150(void *p) {
80003e78:	fe010113          	addi	sp,sp,-32
80003e7c:	00112e23          	sw	ra,28(sp)
80003e80:	00812c23          	sw	s0,24(sp)
80003e84:	02010413          	addi	s0,sp,32
80003e88:	fea42623          	sw	a0,-20(s0)
    while (1) {
        //uart_puts("-----------Task 150-----------\n");
        uart_puts("Task 150 priority = 177 \n");
80003e8c:	800097b7          	lui	a5,0x80009
80003e90:	41878513          	addi	a0,a5,1048 # 80009418 <_memory_end+0xf8009418>
80003e94:	864fd0ef          	jal	ra,80000ef8 <uart_puts>
        task_yield();
80003e98:	d05fd0ef          	jal	ra,80001b9c <task_yield>
        uart_puts("Task 150 priority = 177 \n");
80003e9c:	ff1ff06f          	j	80003e8c <user_task150+0x14>

80003ea0 <user_task151>:
        //uart_puts("return Task 38 \n");
    }
}

void user_task151(void *p) {
80003ea0:	fe010113          	addi	sp,sp,-32
80003ea4:	00112e23          	sw	ra,28(sp)
80003ea8:	00812c23          	sw	s0,24(sp)
80003eac:	02010413          	addi	s0,sp,32
80003eb0:	fea42623          	sw	a0,-20(s0)
    while (1) {
        //uart_puts("-----------Task 151-----------\n");
        uart_puts("Task 151 priority = 98 \n");
80003eb4:	800097b7          	lui	a5,0x80009
80003eb8:	43478513          	addi	a0,a5,1076 # 80009434 <_memory_end+0xf8009434>
80003ebc:	83cfd0ef          	jal	ra,80000ef8 <uart_puts>
        task_yield();
80003ec0:	cddfd0ef          	jal	ra,80001b9c <task_yield>
        uart_puts("Task 151 priority = 98 \n");
80003ec4:	ff1ff06f          	j	80003eb4 <user_task151+0x14>

80003ec8 <user_task152>:
        //uart_puts("return Task 16 \n");
    }
}

void user_task152(void *p) {
80003ec8:	fe010113          	addi	sp,sp,-32
80003ecc:	00112e23          	sw	ra,28(sp)
80003ed0:	00812c23          	sw	s0,24(sp)
80003ed4:	02010413          	addi	s0,sp,32
80003ed8:	fea42623          	sw	a0,-20(s0)
    while (1) {
        //uart_puts("-----------Task 152-----------\n");
        uart_puts("Task 152 priority = 196 \n");
80003edc:	800097b7          	lui	a5,0x80009
80003ee0:	45078513          	addi	a0,a5,1104 # 80009450 <_memory_end+0xf8009450>
80003ee4:	814fd0ef          	jal	ra,80000ef8 <uart_puts>
        task_yield();
80003ee8:	cb5fd0ef          	jal	ra,80001b9c <task_yield>
        uart_puts("Task 152 priority = 196 \n");
80003eec:	ff1ff06f          	j	80003edc <user_task152+0x14>

80003ef0 <user_task153>:
        //uart_puts("return Task 50 \n");
    }
}

void user_task153(void *p) {
80003ef0:	fe010113          	addi	sp,sp,-32
80003ef4:	00112e23          	sw	ra,28(sp)
80003ef8:	00812c23          	sw	s0,24(sp)
80003efc:	02010413          	addi	s0,sp,32
80003f00:	fea42623          	sw	a0,-20(s0)
    while (1) {
        //uart_puts("-----------Task 153-----------\n");
        uart_puts("Task 153 priority = 92 \n");
80003f04:	800097b7          	lui	a5,0x80009
80003f08:	46c78513          	addi	a0,a5,1132 # 8000946c <_memory_end+0xf800946c>
80003f0c:	fedfc0ef          	jal	ra,80000ef8 <uart_puts>
        task_yield();
80003f10:	c8dfd0ef          	jal	ra,80001b9c <task_yield>
        uart_puts("Task 153 priority = 92 \n");
80003f14:	ff1ff06f          	j	80003f04 <user_task153+0x14>

80003f18 <user_task154>:
        //uart_puts("return Task 4 \n");
    }
}

void user_task154(void *p) {
80003f18:	fe010113          	addi	sp,sp,-32
80003f1c:	00112e23          	sw	ra,28(sp)
80003f20:	00812c23          	sw	s0,24(sp)
80003f24:	02010413          	addi	s0,sp,32
80003f28:	fea42623          	sw	a0,-20(s0)
    while (1) {
        //uart_puts("-----------Task 154-----------\n");
        uart_puts("Task 154 priority = 42 \n");
80003f2c:	800097b7          	lui	a5,0x80009
80003f30:	48878513          	addi	a0,a5,1160 # 80009488 <_memory_end+0xf8009488>
80003f34:	fc5fc0ef          	jal	ra,80000ef8 <uart_puts>
        task_yield();
80003f38:	c65fd0ef          	jal	ra,80001b9c <task_yield>
        uart_puts("Task 154 priority = 42 \n");
80003f3c:	ff1ff06f          	j	80003f2c <user_task154+0x14>

80003f40 <user_task155>:
        //uart_puts("return Task 22 \n");
    }
}

void user_task155(void *p) {
80003f40:	fe010113          	addi	sp,sp,-32
80003f44:	00112e23          	sw	ra,28(sp)
80003f48:	00812c23          	sw	s0,24(sp)
80003f4c:	02010413          	addi	s0,sp,32
80003f50:	fea42623          	sw	a0,-20(s0)
    while (1) {
        //uart_puts("-----------Task 155-----------\n");
        uart_puts("Task 155 priority = 225 \n");
80003f54:	800097b7          	lui	a5,0x80009
80003f58:	4a478513          	addi	a0,a5,1188 # 800094a4 <_memory_end+0xf80094a4>
80003f5c:	f9dfc0ef          	jal	ra,80000ef8 <uart_puts>
        task_yield();
80003f60:	c3dfd0ef          	jal	ra,80001b9c <task_yield>
        uart_puts("Task 155 priority = 225 \n");
80003f64:	ff1ff06f          	j	80003f54 <user_task155+0x14>

80003f68 <user_task156>:
        //uart_puts("return Task 39 \n");
    }
}

void user_task156(void *p) {
80003f68:	fe010113          	addi	sp,sp,-32
80003f6c:	00112e23          	sw	ra,28(sp)
80003f70:	00812c23          	sw	s0,24(sp)
80003f74:	02010413          	addi	s0,sp,32
80003f78:	fea42623          	sw	a0,-20(s0)
    while (1) {
        //uart_puts("-----------Task 156-----------\n");
        uart_puts("Task 156 priority = 240 \n");
80003f7c:	800097b7          	lui	a5,0x80009
80003f80:	4c078513          	addi	a0,a5,1216 # 800094c0 <_memory_end+0xf80094c0>
80003f84:	f75fc0ef          	jal	ra,80000ef8 <uart_puts>
        task_yield();
80003f88:	c15fd0ef          	jal	ra,80001b9c <task_yield>
        uart_puts("Task 156 priority = 240 \n");
80003f8c:	ff1ff06f          	j	80003f7c <user_task156+0x14>

80003f90 <user_task157>:
        //uart_puts("return Task 10 \n");
    }
}

void user_task157(void *p) {
80003f90:	fe010113          	addi	sp,sp,-32
80003f94:	00112e23          	sw	ra,28(sp)
80003f98:	00812c23          	sw	s0,24(sp)
80003f9c:	02010413          	addi	s0,sp,32
80003fa0:	fea42623          	sw	a0,-20(s0)
    while (1) {
        //uart_puts("-----------Task 157-----------\n");
        uart_puts("Task 157 priority = 66 \n");
80003fa4:	800097b7          	lui	a5,0x80009
80003fa8:	4dc78513          	addi	a0,a5,1244 # 800094dc <_memory_end+0xf80094dc>
80003fac:	f4dfc0ef          	jal	ra,80000ef8 <uart_puts>
        task_yield();
80003fb0:	bedfd0ef          	jal	ra,80001b9c <task_yield>
        uart_puts("Task 157 priority = 66 \n");
80003fb4:	ff1ff06f          	j	80003fa4 <user_task157+0x14>

80003fb8 <user_task158>:
        //uart_puts("return Task 42 \n");
    }
}

void user_task158(void *p) {
80003fb8:	fe010113          	addi	sp,sp,-32
80003fbc:	00112e23          	sw	ra,28(sp)
80003fc0:	00812c23          	sw	s0,24(sp)
80003fc4:	02010413          	addi	s0,sp,32
80003fc8:	fea42623          	sw	a0,-20(s0)
    while (1) {
        //uart_puts("-----------Task 158-----------\n");
        uart_puts("Task 158 priority = 94 \n");
80003fcc:	800097b7          	lui	a5,0x80009
80003fd0:	4f878513          	addi	a0,a5,1272 # 800094f8 <_memory_end+0xf80094f8>
80003fd4:	f25fc0ef          	jal	ra,80000ef8 <uart_puts>
        task_yield();
80003fd8:	bc5fd0ef          	jal	ra,80001b9c <task_yield>
        uart_puts("Task 158 priority = 94 \n");
80003fdc:	ff1ff06f          	j	80003fcc <user_task158+0x14>

80003fe0 <user_task159>:
        //uart_puts("return Task 9 \n");
    }
}

void user_task159(void *p) {
80003fe0:	fe010113          	addi	sp,sp,-32
80003fe4:	00112e23          	sw	ra,28(sp)
80003fe8:	00812c23          	sw	s0,24(sp)
80003fec:	02010413          	addi	s0,sp,32
80003ff0:	fea42623          	sw	a0,-20(s0)
    while (1) {
        //uart_puts("-----------Task 159-----------\n");
        uart_puts("Task 159 priority = 166 \n");
80003ff4:	800097b7          	lui	a5,0x80009
80003ff8:	51478513          	addi	a0,a5,1300 # 80009514 <_memory_end+0xf8009514>
80003ffc:	efdfc0ef          	jal	ra,80000ef8 <uart_puts>
        task_yield();
80004000:	b9dfd0ef          	jal	ra,80001b9c <task_yield>
        uart_puts("Task 159 priority = 166 \n");
80004004:	ff1ff06f          	j	80003ff4 <user_task159+0x14>

80004008 <user_task160>:
        //uart_puts("return Task 49 \n");
    }
}

void user_task160(void *p) {
80004008:	fe010113          	addi	sp,sp,-32
8000400c:	00112e23          	sw	ra,28(sp)
80004010:	00812c23          	sw	s0,24(sp)
80004014:	02010413          	addi	s0,sp,32
80004018:	fea42623          	sw	a0,-20(s0)
    while (1) {
        //uart_puts("-----------Task 160-----------\n");
        uart_puts("Task 160 priority = 31 \n");
8000401c:	800097b7          	lui	a5,0x80009
80004020:	53078513          	addi	a0,a5,1328 # 80009530 <_memory_end+0xf8009530>
80004024:	ed5fc0ef          	jal	ra,80000ef8 <uart_puts>
        task_yield();
80004028:	b75fd0ef          	jal	ra,80001b9c <task_yield>
        uart_puts("Task 160 priority = 31 \n");
8000402c:	ff1ff06f          	j	8000401c <user_task160+0x14>

80004030 <user_task161>:
        //uart_puts("return Task 38 \n");
    }
}

void user_task161(void *p) {
80004030:	fe010113          	addi	sp,sp,-32
80004034:	00112e23          	sw	ra,28(sp)
80004038:	00812c23          	sw	s0,24(sp)
8000403c:	02010413          	addi	s0,sp,32
80004040:	fea42623          	sw	a0,-20(s0)
    while (1) {
        //uart_puts("-----------Task 161-----------\n");
        uart_puts("Task 161 priority = 22 \n");
80004044:	800097b7          	lui	a5,0x80009
80004048:	54c78513          	addi	a0,a5,1356 # 8000954c <_memory_end+0xf800954c>
8000404c:	eadfc0ef          	jal	ra,80000ef8 <uart_puts>
        task_yield();
80004050:	b4dfd0ef          	jal	ra,80001b9c <task_yield>
        uart_puts("Task 161 priority = 22 \n");
80004054:	ff1ff06f          	j	80004044 <user_task161+0x14>

80004058 <user_task162>:
        //uart_puts("return Task 38 \n");
    }
}

void user_task162(void *p) {
80004058:	fe010113          	addi	sp,sp,-32
8000405c:	00112e23          	sw	ra,28(sp)
80004060:	00812c23          	sw	s0,24(sp)
80004064:	02010413          	addi	s0,sp,32
80004068:	fea42623          	sw	a0,-20(s0)
    while (1) {
        //uart_puts("-----------Task 162-----------\n");
        uart_puts("Task 162 priority = 108 \n");
8000406c:	800097b7          	lui	a5,0x80009
80004070:	56878513          	addi	a0,a5,1384 # 80009568 <_memory_end+0xf8009568>
80004074:	e85fc0ef          	jal	ra,80000ef8 <uart_puts>
        task_yield();
80004078:	b25fd0ef          	jal	ra,80001b9c <task_yield>
        uart_puts("Task 162 priority = 108 \n");
8000407c:	ff1ff06f          	j	8000406c <user_task162+0x14>

80004080 <user_task163>:
        //uart_puts("return Task 40 \n");
    }
}

void user_task163(void *p) {
80004080:	fe010113          	addi	sp,sp,-32
80004084:	00112e23          	sw	ra,28(sp)
80004088:	00812c23          	sw	s0,24(sp)
8000408c:	02010413          	addi	s0,sp,32
80004090:	fea42623          	sw	a0,-20(s0)
    while (1) {
        //uart_puts("-----------Task 163-----------\n");
        uart_puts("Task 163 priority = 145 \n");
80004094:	800097b7          	lui	a5,0x80009
80004098:	58478513          	addi	a0,a5,1412 # 80009584 <_memory_end+0xf8009584>
8000409c:	e5dfc0ef          	jal	ra,80000ef8 <uart_puts>
        task_yield();
800040a0:	afdfd0ef          	jal	ra,80001b9c <task_yield>
        uart_puts("Task 163 priority = 145 \n");
800040a4:	ff1ff06f          	j	80004094 <user_task163+0x14>

800040a8 <user_task164>:
        //uart_puts("return Task 22 \n");
    }
}

void user_task164(void *p) {
800040a8:	fe010113          	addi	sp,sp,-32
800040ac:	00112e23          	sw	ra,28(sp)
800040b0:	00812c23          	sw	s0,24(sp)
800040b4:	02010413          	addi	s0,sp,32
800040b8:	fea42623          	sw	a0,-20(s0)
    while (1) {
        //uart_puts("-----------Task 164-----------\n");
        uart_puts("Task 164 priority = 49 \n");
800040bc:	800097b7          	lui	a5,0x80009
800040c0:	5a078513          	addi	a0,a5,1440 # 800095a0 <_memory_end+0xf80095a0>
800040c4:	e35fc0ef          	jal	ra,80000ef8 <uart_puts>
        task_yield();
800040c8:	ad5fd0ef          	jal	ra,80001b9c <task_yield>
        uart_puts("Task 164 priority = 49 \n");
800040cc:	ff1ff06f          	j	800040bc <user_task164+0x14>

800040d0 <user_task165>:
        //uart_puts("return Task 28 \n");
    }
}

void user_task165(void *p) {
800040d0:	fe010113          	addi	sp,sp,-32
800040d4:	00112e23          	sw	ra,28(sp)
800040d8:	00812c23          	sw	s0,24(sp)
800040dc:	02010413          	addi	s0,sp,32
800040e0:	fea42623          	sw	a0,-20(s0)
    while (1) {
        //uart_puts("-----------Task 165-----------\n");
        uart_puts("Task 165 priority = 154 \n");
800040e4:	800097b7          	lui	a5,0x80009
800040e8:	5bc78513          	addi	a0,a5,1468 # 800095bc <_memory_end+0xf80095bc>
800040ec:	e0dfc0ef          	jal	ra,80000ef8 <uart_puts>
        task_yield();
800040f0:	aadfd0ef          	jal	ra,80001b9c <task_yield>
        uart_puts("Task 165 priority = 154 \n");
800040f4:	ff1ff06f          	j	800040e4 <user_task165+0x14>

800040f8 <user_task166>:
        //uart_puts("return Task 37 \n");
    }
}

void user_task166(void *p) {
800040f8:	fe010113          	addi	sp,sp,-32
800040fc:	00112e23          	sw	ra,28(sp)
80004100:	00812c23          	sw	s0,24(sp)
80004104:	02010413          	addi	s0,sp,32
80004108:	fea42623          	sw	a0,-20(s0)
    while (1) {
        //uart_puts("-----------Task 166-----------\n");
        uart_puts("Task 166 priority = 33 \n");
8000410c:	800097b7          	lui	a5,0x80009
80004110:	5d878513          	addi	a0,a5,1496 # 800095d8 <_memory_end+0xf80095d8>
80004114:	de5fc0ef          	jal	ra,80000ef8 <uart_puts>
        task_yield();
80004118:	a85fd0ef          	jal	ra,80001b9c <task_yield>
        uart_puts("Task 166 priority = 33 \n");
8000411c:	ff1ff06f          	j	8000410c <user_task166+0x14>

80004120 <user_task167>:
        //uart_puts("return Task 15 \n");
    }
}

void user_task167(void *p) {
80004120:	fe010113          	addi	sp,sp,-32
80004124:	00112e23          	sw	ra,28(sp)
80004128:	00812c23          	sw	s0,24(sp)
8000412c:	02010413          	addi	s0,sp,32
80004130:	fea42623          	sw	a0,-20(s0)
    while (1) {
        //uart_puts("-----------Task 167-----------\n");
        uart_puts("Task 167 priority = 149 \n");
80004134:	800097b7          	lui	a5,0x80009
80004138:	5f478513          	addi	a0,a5,1524 # 800095f4 <_memory_end+0xf80095f4>
8000413c:	dbdfc0ef          	jal	ra,80000ef8 <uart_puts>
        task_yield();
80004140:	a5dfd0ef          	jal	ra,80001b9c <task_yield>
        uart_puts("Task 167 priority = 149 \n");
80004144:	ff1ff06f          	j	80004134 <user_task167+0x14>

80004148 <user_task168>:
        //uart_puts("return Task 27 \n");
    }
}

void user_task168(void *p) {
80004148:	fe010113          	addi	sp,sp,-32
8000414c:	00112e23          	sw	ra,28(sp)
80004150:	00812c23          	sw	s0,24(sp)
80004154:	02010413          	addi	s0,sp,32
80004158:	fea42623          	sw	a0,-20(s0)
    while (1) {
        //uart_puts("-----------Task 168-----------\n");
        uart_puts("Task 168 priority = 16 \n");
8000415c:	800097b7          	lui	a5,0x80009
80004160:	61078513          	addi	a0,a5,1552 # 80009610 <_memory_end+0xf8009610>
80004164:	d95fc0ef          	jal	ra,80000ef8 <uart_puts>
        task_yield();
80004168:	a35fd0ef          	jal	ra,80001b9c <task_yield>
        uart_puts("Task 168 priority = 16 \n");
8000416c:	ff1ff06f          	j	8000415c <user_task168+0x14>

80004170 <user_task169>:
        //uart_puts("return Task 41 \n");
    }
}

void user_task169(void *p) {
80004170:	fe010113          	addi	sp,sp,-32
80004174:	00112e23          	sw	ra,28(sp)
80004178:	00812c23          	sw	s0,24(sp)
8000417c:	02010413          	addi	s0,sp,32
80004180:	fea42623          	sw	a0,-20(s0)
    while (1) {
        //uart_puts("-----------Task 169-----------\n");
        uart_puts("Task 169 priority = 106 \n");
80004184:	800097b7          	lui	a5,0x80009
80004188:	62c78513          	addi	a0,a5,1580 # 8000962c <_memory_end+0xf800962c>
8000418c:	d6dfc0ef          	jal	ra,80000ef8 <uart_puts>
        task_yield();
80004190:	a0dfd0ef          	jal	ra,80001b9c <task_yield>
        uart_puts("Task 169 priority = 106 \n");
80004194:	ff1ff06f          	j	80004184 <user_task169+0x14>

80004198 <user_task170>:
        //uart_puts("return Task 15 \n");
    }
}

void user_task170(void *p) {
80004198:	fe010113          	addi	sp,sp,-32
8000419c:	00112e23          	sw	ra,28(sp)
800041a0:	00812c23          	sw	s0,24(sp)
800041a4:	02010413          	addi	s0,sp,32
800041a8:	fea42623          	sw	a0,-20(s0)
    while (1) {
        //uart_puts("-----------Task 170-----------\n");
        uart_puts("Task 170 priority = 168 \n");
800041ac:	800097b7          	lui	a5,0x80009
800041b0:	64878513          	addi	a0,a5,1608 # 80009648 <_memory_end+0xf8009648>
800041b4:	d45fc0ef          	jal	ra,80000ef8 <uart_puts>
        task_yield();
800041b8:	9e5fd0ef          	jal	ra,80001b9c <task_yield>
        uart_puts("Task 170 priority = 168 \n");
800041bc:	ff1ff06f          	j	800041ac <user_task170+0x14>

800041c0 <user_task171>:
        //uart_puts("return Task 48 \n");
    }
}

void user_task171(void *p) {
800041c0:	fe010113          	addi	sp,sp,-32
800041c4:	00112e23          	sw	ra,28(sp)
800041c8:	00812c23          	sw	s0,24(sp)
800041cc:	02010413          	addi	s0,sp,32
800041d0:	fea42623          	sw	a0,-20(s0)
    while (1) {
        //uart_puts("-----------Task 171-----------\n");
        uart_puts("Task 171 priority = 211 \n");
800041d4:	800097b7          	lui	a5,0x80009
800041d8:	66478513          	addi	a0,a5,1636 # 80009664 <_memory_end+0xf8009664>
800041dc:	d1dfc0ef          	jal	ra,80000ef8 <uart_puts>
        task_yield();
800041e0:	9bdfd0ef          	jal	ra,80001b9c <task_yield>
        uart_puts("Task 171 priority = 211 \n");
800041e4:	ff1ff06f          	j	800041d4 <user_task171+0x14>

800041e8 <user_task172>:
        //uart_puts("return Task 8 \n");
    }
}

void user_task172(void *p) {
800041e8:	fe010113          	addi	sp,sp,-32
800041ec:	00112e23          	sw	ra,28(sp)
800041f0:	00812c23          	sw	s0,24(sp)
800041f4:	02010413          	addi	s0,sp,32
800041f8:	fea42623          	sw	a0,-20(s0)
    while (1) {
        //uart_puts("-----------Task 172-----------\n");
        uart_puts("Task 172 priority = 74 \n");
800041fc:	800097b7          	lui	a5,0x80009
80004200:	68078513          	addi	a0,a5,1664 # 80009680 <_memory_end+0xf8009680>
80004204:	cf5fc0ef          	jal	ra,80000ef8 <uart_puts>
        task_yield();
80004208:	995fd0ef          	jal	ra,80001b9c <task_yield>
        uart_puts("Task 172 priority = 74 \n");
8000420c:	ff1ff06f          	j	800041fc <user_task172+0x14>

80004210 <user_task173>:
        //uart_puts("return Task 41 \n");
    }
}

void user_task173(void *p) {
80004210:	fe010113          	addi	sp,sp,-32
80004214:	00112e23          	sw	ra,28(sp)
80004218:	00812c23          	sw	s0,24(sp)
8000421c:	02010413          	addi	s0,sp,32
80004220:	fea42623          	sw	a0,-20(s0)
    while (1) {
        //uart_puts("-----------Task 173-----------\n");
        uart_puts("Task 173 priority = 242 \n");
80004224:	800097b7          	lui	a5,0x80009
80004228:	69c78513          	addi	a0,a5,1692 # 8000969c <_memory_end+0xf800969c>
8000422c:	ccdfc0ef          	jal	ra,80000ef8 <uart_puts>
        task_yield();
80004230:	96dfd0ef          	jal	ra,80001b9c <task_yield>
        uart_puts("Task 173 priority = 242 \n");
80004234:	ff1ff06f          	j	80004224 <user_task173+0x14>

80004238 <user_task174>:
        //uart_puts("return Task 2 \n");
    }
}

void user_task174(void *p) {
80004238:	fe010113          	addi	sp,sp,-32
8000423c:	00112e23          	sw	ra,28(sp)
80004240:	00812c23          	sw	s0,24(sp)
80004244:	02010413          	addi	s0,sp,32
80004248:	fea42623          	sw	a0,-20(s0)
    while (1) {
        //uart_puts("-----------Task 174-----------\n");
        uart_puts("Task 174 priority = 127 \n");
8000424c:	800097b7          	lui	a5,0x80009
80004250:	6b878513          	addi	a0,a5,1720 # 800096b8 <_memory_end+0xf80096b8>
80004254:	ca5fc0ef          	jal	ra,80000ef8 <uart_puts>
        task_yield();
80004258:	945fd0ef          	jal	ra,80001b9c <task_yield>
        uart_puts("Task 174 priority = 127 \n");
8000425c:	ff1ff06f          	j	8000424c <user_task174+0x14>

80004260 <user_task175>:
        //uart_puts("return Task 14 \n");
    }
}

void user_task175(void *p) {
80004260:	fe010113          	addi	sp,sp,-32
80004264:	00112e23          	sw	ra,28(sp)
80004268:	00812c23          	sw	s0,24(sp)
8000426c:	02010413          	addi	s0,sp,32
80004270:	fea42623          	sw	a0,-20(s0)
    while (1) {
        //uart_puts("-----------Task 175-----------\n");
        uart_puts("Task 175 priority = 186 \n");
80004274:	800097b7          	lui	a5,0x80009
80004278:	6d478513          	addi	a0,a5,1748 # 800096d4 <_memory_end+0xf80096d4>
8000427c:	c7dfc0ef          	jal	ra,80000ef8 <uart_puts>
        task_yield();
80004280:	91dfd0ef          	jal	ra,80001b9c <task_yield>
        uart_puts("Task 175 priority = 186 \n");
80004284:	ff1ff06f          	j	80004274 <user_task175+0x14>

80004288 <user_task176>:
        //uart_puts("return Task 20 \n");
    }
}

void user_task176(void *p) {
80004288:	fe010113          	addi	sp,sp,-32
8000428c:	00112e23          	sw	ra,28(sp)
80004290:	00812c23          	sw	s0,24(sp)
80004294:	02010413          	addi	s0,sp,32
80004298:	fea42623          	sw	a0,-20(s0)
    while (1) {
        //uart_puts("-----------Task 176-----------\n");
        uart_puts("Task 176 priority = 60 \n");
8000429c:	800097b7          	lui	a5,0x80009
800042a0:	6f078513          	addi	a0,a5,1776 # 800096f0 <_memory_end+0xf80096f0>
800042a4:	c55fc0ef          	jal	ra,80000ef8 <uart_puts>
        task_yield();
800042a8:	8f5fd0ef          	jal	ra,80001b9c <task_yield>
        uart_puts("Task 176 priority = 60 \n");
800042ac:	ff1ff06f          	j	8000429c <user_task176+0x14>

800042b0 <user_task177>:
        //uart_puts("return Task 43 \n");
    }
}

void user_task177(void *p) {
800042b0:	fe010113          	addi	sp,sp,-32
800042b4:	00112e23          	sw	ra,28(sp)
800042b8:	00812c23          	sw	s0,24(sp)
800042bc:	02010413          	addi	s0,sp,32
800042c0:	fea42623          	sw	a0,-20(s0)
    while (1) {
        //uart_puts("-----------Task 177-----------\n");
        uart_puts("Task 177 priority = 153 \n");
800042c4:	800097b7          	lui	a5,0x80009
800042c8:	70c78513          	addi	a0,a5,1804 # 8000970c <_memory_end+0xf800970c>
800042cc:	c2dfc0ef          	jal	ra,80000ef8 <uart_puts>
        task_yield();
800042d0:	8cdfd0ef          	jal	ra,80001b9c <task_yield>
        uart_puts("Task 177 priority = 153 \n");
800042d4:	ff1ff06f          	j	800042c4 <user_task177+0x14>

800042d8 <user_task178>:
        //uart_puts("return Task 31 \n");
    }
}

void user_task178(void *p) {
800042d8:	fe010113          	addi	sp,sp,-32
800042dc:	00112e23          	sw	ra,28(sp)
800042e0:	00812c23          	sw	s0,24(sp)
800042e4:	02010413          	addi	s0,sp,32
800042e8:	fea42623          	sw	a0,-20(s0)
    while (1) {
        //uart_puts("-----------Task 178-----------\n");
        uart_puts("Task 178 priority = 17 \n");
800042ec:	800097b7          	lui	a5,0x80009
800042f0:	72878513          	addi	a0,a5,1832 # 80009728 <_memory_end+0xf8009728>
800042f4:	c05fc0ef          	jal	ra,80000ef8 <uart_puts>
        task_yield();
800042f8:	8a5fd0ef          	jal	ra,80001b9c <task_yield>
        uart_puts("Task 178 priority = 17 \n");
800042fc:	ff1ff06f          	j	800042ec <user_task178+0x14>

80004300 <user_task179>:
        //uart_puts("return Task 30 \n");
    }
}

void user_task179(void *p) {
80004300:	fe010113          	addi	sp,sp,-32
80004304:	00112e23          	sw	ra,28(sp)
80004308:	00812c23          	sw	s0,24(sp)
8000430c:	02010413          	addi	s0,sp,32
80004310:	fea42623          	sw	a0,-20(s0)
    while (1) {
        //uart_puts("-----------Task 179-----------\n");
        uart_puts("Task 179 priority = 98 \n");
80004314:	800097b7          	lui	a5,0x80009
80004318:	74478513          	addi	a0,a5,1860 # 80009744 <_memory_end+0xf8009744>
8000431c:	bddfc0ef          	jal	ra,80000ef8 <uart_puts>
        task_yield();
80004320:	87dfd0ef          	jal	ra,80001b9c <task_yield>
        uart_puts("Task 179 priority = 98 \n");
80004324:	ff1ff06f          	j	80004314 <user_task179+0x14>

80004328 <user_task180>:
        //uart_puts("return Task 19 \n");
    }
}

void user_task180(void *p) {
80004328:	fe010113          	addi	sp,sp,-32
8000432c:	00112e23          	sw	ra,28(sp)
80004330:	00812c23          	sw	s0,24(sp)
80004334:	02010413          	addi	s0,sp,32
80004338:	fea42623          	sw	a0,-20(s0)
    while (1) {
        //uart_puts("-----------Task 180-----------\n");
        uart_puts("Task 180 priority = 40 \n");
8000433c:	800097b7          	lui	a5,0x80009
80004340:	76078513          	addi	a0,a5,1888 # 80009760 <_memory_end+0xf8009760>
80004344:	bb5fc0ef          	jal	ra,80000ef8 <uart_puts>
        task_yield();
80004348:	855fd0ef          	jal	ra,80001b9c <task_yield>
        uart_puts("Task 180 priority = 40 \n");
8000434c:	ff1ff06f          	j	8000433c <user_task180+0x14>

80004350 <user_task181>:
        //uart_puts("return Task 1 \n");
    }
}

void user_task181(void *p) {
80004350:	fe010113          	addi	sp,sp,-32
80004354:	00112e23          	sw	ra,28(sp)
80004358:	00812c23          	sw	s0,24(sp)
8000435c:	02010413          	addi	s0,sp,32
80004360:	fea42623          	sw	a0,-20(s0)
    while (1) {
        //uart_puts("-----------Task 181-----------\n");
        uart_puts("Task 181 priority = 61 \n");
80004364:	800097b7          	lui	a5,0x80009
80004368:	77c78513          	addi	a0,a5,1916 # 8000977c <_memory_end+0xf800977c>
8000436c:	b8dfc0ef          	jal	ra,80000ef8 <uart_puts>
        task_yield();
80004370:	82dfd0ef          	jal	ra,80001b9c <task_yield>
        uart_puts("Task 181 priority = 61 \n");
80004374:	ff1ff06f          	j	80004364 <user_task181+0x14>

80004378 <user_task182>:
        //uart_puts("return Task 14 \n");
    }
}

void user_task182(void *p) {
80004378:	fe010113          	addi	sp,sp,-32
8000437c:	00112e23          	sw	ra,28(sp)
80004380:	00812c23          	sw	s0,24(sp)
80004384:	02010413          	addi	s0,sp,32
80004388:	fea42623          	sw	a0,-20(s0)
    while (1) {
        //uart_puts("-----------Task 182-----------\n");
        uart_puts("Task 182 priority = 168 \n");
8000438c:	800097b7          	lui	a5,0x80009
80004390:	79878513          	addi	a0,a5,1944 # 80009798 <_memory_end+0xf8009798>
80004394:	b65fc0ef          	jal	ra,80000ef8 <uart_puts>
        task_yield();
80004398:	805fd0ef          	jal	ra,80001b9c <task_yield>
        uart_puts("Task 182 priority = 168 \n");
8000439c:	ff1ff06f          	j	8000438c <user_task182+0x14>

800043a0 <user_task183>:
        //uart_puts("return Task 21 \n");
    }
}

void user_task183(void *p) {
800043a0:	fe010113          	addi	sp,sp,-32
800043a4:	00112e23          	sw	ra,28(sp)
800043a8:	00812c23          	sw	s0,24(sp)
800043ac:	02010413          	addi	s0,sp,32
800043b0:	fea42623          	sw	a0,-20(s0)
    while (1) {
        //uart_puts("-----------Task 183-----------\n");
        uart_puts("Task 183 priority = 228 \n");
800043b4:	800097b7          	lui	a5,0x80009
800043b8:	7b478513          	addi	a0,a5,1972 # 800097b4 <_memory_end+0xf80097b4>
800043bc:	b3dfc0ef          	jal	ra,80000ef8 <uart_puts>
        task_yield();
800043c0:	fdcfd0ef          	jal	ra,80001b9c <task_yield>
        uart_puts("Task 183 priority = 228 \n");
800043c4:	ff1ff06f          	j	800043b4 <user_task183+0x14>

800043c8 <user_task184>:
        //uart_puts("return Task 37 \n");
    }
}

void user_task184(void *p) {
800043c8:	fe010113          	addi	sp,sp,-32
800043cc:	00112e23          	sw	ra,28(sp)
800043d0:	00812c23          	sw	s0,24(sp)
800043d4:	02010413          	addi	s0,sp,32
800043d8:	fea42623          	sw	a0,-20(s0)
    while (1) {
        //uart_puts("-----------Task 184-----------\n");
        uart_puts("Task 184 priority = 24 \n");
800043dc:	800097b7          	lui	a5,0x80009
800043e0:	7d078513          	addi	a0,a5,2000 # 800097d0 <_memory_end+0xf80097d0>
800043e4:	b15fc0ef          	jal	ra,80000ef8 <uart_puts>
        task_yield();
800043e8:	fb4fd0ef          	jal	ra,80001b9c <task_yield>
        uart_puts("Task 184 priority = 24 \n");
800043ec:	ff1ff06f          	j	800043dc <user_task184+0x14>

800043f0 <user_task185>:
        //uart_puts("return Task 10 \n");
    }
}

void user_task185(void *p) {
800043f0:	fe010113          	addi	sp,sp,-32
800043f4:	00112e23          	sw	ra,28(sp)
800043f8:	00812c23          	sw	s0,24(sp)
800043fc:	02010413          	addi	s0,sp,32
80004400:	fea42623          	sw	a0,-20(s0)
    while (1) {
        //uart_puts("-----------Task 185-----------\n");
        uart_puts("Task 185 priority = 16 \n");
80004404:	800097b7          	lui	a5,0x80009
80004408:	7ec78513          	addi	a0,a5,2028 # 800097ec <_memory_end+0xf80097ec>
8000440c:	aedfc0ef          	jal	ra,80000ef8 <uart_puts>
        task_yield();
80004410:	f8cfd0ef          	jal	ra,80001b9c <task_yield>
        uart_puts("Task 185 priority = 16 \n");
80004414:	ff1ff06f          	j	80004404 <user_task185+0x14>

80004418 <user_task186>:
        //uart_puts("return Task 47 \n");
    }
}

void user_task186(void *p) {
80004418:	fe010113          	addi	sp,sp,-32
8000441c:	00112e23          	sw	ra,28(sp)
80004420:	00812c23          	sw	s0,24(sp)
80004424:	02010413          	addi	s0,sp,32
80004428:	fea42623          	sw	a0,-20(s0)
    while (1) {
        //uart_puts("-----------Task 186-----------\n");
        uart_puts("Task 186 priority = 5 \n");
8000442c:	8000a7b7          	lui	a5,0x8000a
80004430:	80878513          	addi	a0,a5,-2040 # 80009808 <_memory_end+0xf8009808>
80004434:	ac5fc0ef          	jal	ra,80000ef8 <uart_puts>
        task_yield();
80004438:	f64fd0ef          	jal	ra,80001b9c <task_yield>
        uart_puts("Task 186 priority = 5 \n");
8000443c:	ff1ff06f          	j	8000442c <user_task186+0x14>

80004440 <user_task187>:
        //uart_puts("return Task 36 \n");
    }
}

void user_task187(void *p) {
80004440:	fe010113          	addi	sp,sp,-32
80004444:	00112e23          	sw	ra,28(sp)
80004448:	00812c23          	sw	s0,24(sp)
8000444c:	02010413          	addi	s0,sp,32
80004450:	fea42623          	sw	a0,-20(s0)
    while (1) {
        //uart_puts("-----------Task 187-----------\n");
        uart_puts("Task 187 priority = 26 \n");
80004454:	8000a7b7          	lui	a5,0x8000a
80004458:	82078513          	addi	a0,a5,-2016 # 80009820 <_memory_end+0xf8009820>
8000445c:	a9dfc0ef          	jal	ra,80000ef8 <uart_puts>
        task_yield();
80004460:	f3cfd0ef          	jal	ra,80001b9c <task_yield>
        uart_puts("Task 187 priority = 26 \n");
80004464:	ff1ff06f          	j	80004454 <user_task187+0x14>

80004468 <user_task188>:
        //uart_puts("return Task 19 \n");
    }
}

void user_task188(void *p) {
80004468:	fe010113          	addi	sp,sp,-32
8000446c:	00112e23          	sw	ra,28(sp)
80004470:	00812c23          	sw	s0,24(sp)
80004474:	02010413          	addi	s0,sp,32
80004478:	fea42623          	sw	a0,-20(s0)
    while (1) {
        //uart_puts("-----------Task 188-----------\n");
        uart_puts("Task 188 priority = 154 \n");
8000447c:	8000a7b7          	lui	a5,0x8000a
80004480:	83c78513          	addi	a0,a5,-1988 # 8000983c <_memory_end+0xf800983c>
80004484:	a75fc0ef          	jal	ra,80000ef8 <uart_puts>
        task_yield();
80004488:	f14fd0ef          	jal	ra,80001b9c <task_yield>
        uart_puts("Task 188 priority = 154 \n");
8000448c:	ff1ff06f          	j	8000447c <user_task188+0x14>

80004490 <user_task189>:
        //uart_puts("return Task 27 \n");
    }
}

void user_task189(void *p) {
80004490:	fe010113          	addi	sp,sp,-32
80004494:	00112e23          	sw	ra,28(sp)
80004498:	00812c23          	sw	s0,24(sp)
8000449c:	02010413          	addi	s0,sp,32
800044a0:	fea42623          	sw	a0,-20(s0)
    while (1) {
        //uart_puts("-----------Task 189-----------\n");
        uart_puts("Task 189 priority = 146 \n");
800044a4:	8000a7b7          	lui	a5,0x8000a
800044a8:	85878513          	addi	a0,a5,-1960 # 80009858 <_memory_end+0xf8009858>
800044ac:	a4dfc0ef          	jal	ra,80000ef8 <uart_puts>
        task_yield();
800044b0:	eecfd0ef          	jal	ra,80001b9c <task_yield>
        uart_puts("Task 189 priority = 146 \n");
800044b4:	ff1ff06f          	j	800044a4 <user_task189+0x14>

800044b8 <user_task190>:
        //uart_puts("return Task 21 \n");
    }
}

void user_task190(void *p) {
800044b8:	fe010113          	addi	sp,sp,-32
800044bc:	00112e23          	sw	ra,28(sp)
800044c0:	00812c23          	sw	s0,24(sp)
800044c4:	02010413          	addi	s0,sp,32
800044c8:	fea42623          	sw	a0,-20(s0)
    while (1) {
        //uart_puts("-----------Task 190-----------\n");
        uart_puts("Task 190 priority = 30 \n");
800044cc:	8000a7b7          	lui	a5,0x8000a
800044d0:	87478513          	addi	a0,a5,-1932 # 80009874 <_memory_end+0xf8009874>
800044d4:	a25fc0ef          	jal	ra,80000ef8 <uart_puts>
        task_yield();
800044d8:	ec4fd0ef          	jal	ra,80001b9c <task_yield>
        uart_puts("Task 190 priority = 30 \n");
800044dc:	ff1ff06f          	j	800044cc <user_task190+0x14>

800044e0 <user_task191>:
        //uart_puts("return Task 28 \n");
    }
}

void user_task191(void *p) {
800044e0:	fe010113          	addi	sp,sp,-32
800044e4:	00112e23          	sw	ra,28(sp)
800044e8:	00812c23          	sw	s0,24(sp)
800044ec:	02010413          	addi	s0,sp,32
800044f0:	fea42623          	sw	a0,-20(s0)
    while (1) {
        //uart_puts("-----------Task 191-----------\n");
        uart_puts("Task 191 priority = 22 \n");
800044f4:	8000a7b7          	lui	a5,0x8000a
800044f8:	89078513          	addi	a0,a5,-1904 # 80009890 <_memory_end+0xf8009890>
800044fc:	9fdfc0ef          	jal	ra,80000ef8 <uart_puts>
        task_yield();
80004500:	e9cfd0ef          	jal	ra,80001b9c <task_yield>
        uart_puts("Task 191 priority = 22 \n");
80004504:	ff1ff06f          	j	800044f4 <user_task191+0x14>

80004508 <user_task192>:
        //uart_puts("return Task 6 \n");
    }
}

void user_task192(void *p) {
80004508:	fe010113          	addi	sp,sp,-32
8000450c:	00112e23          	sw	ra,28(sp)
80004510:	00812c23          	sw	s0,24(sp)
80004514:	02010413          	addi	s0,sp,32
80004518:	fea42623          	sw	a0,-20(s0)
    while (1) {
        //uart_puts("-----------Task 192-----------\n");
        uart_puts("Task 192 priority = 14 \n");
8000451c:	8000a7b7          	lui	a5,0x8000a
80004520:	8ac78513          	addi	a0,a5,-1876 # 800098ac <_memory_end+0xf80098ac>
80004524:	9d5fc0ef          	jal	ra,80000ef8 <uart_puts>
        task_yield();
80004528:	e74fd0ef          	jal	ra,80001b9c <task_yield>
        uart_puts("Task 192 priority = 14 \n");
8000452c:	ff1ff06f          	j	8000451c <user_task192+0x14>

80004530 <user_task193>:
        //uart_puts("return Task 41 \n");
    }
}

void user_task193(void *p) {
80004530:	fe010113          	addi	sp,sp,-32
80004534:	00112e23          	sw	ra,28(sp)
80004538:	00812c23          	sw	s0,24(sp)
8000453c:	02010413          	addi	s0,sp,32
80004540:	fea42623          	sw	a0,-20(s0)
    while (1) {
        //uart_puts("-----------Task 193-----------\n");
        uart_puts("Task 193 priority = 175 \n");
80004544:	8000a7b7          	lui	a5,0x8000a
80004548:	8c878513          	addi	a0,a5,-1848 # 800098c8 <_memory_end+0xf80098c8>
8000454c:	9adfc0ef          	jal	ra,80000ef8 <uart_puts>
        task_yield();
80004550:	e4cfd0ef          	jal	ra,80001b9c <task_yield>
        uart_puts("Task 193 priority = 175 \n");
80004554:	ff1ff06f          	j	80004544 <user_task193+0x14>

80004558 <user_task194>:
        //uart_puts("return Task 37 \n");
    }
}

void user_task194(void *p) {
80004558:	fe010113          	addi	sp,sp,-32
8000455c:	00112e23          	sw	ra,28(sp)
80004560:	00812c23          	sw	s0,24(sp)
80004564:	02010413          	addi	s0,sp,32
80004568:	fea42623          	sw	a0,-20(s0)
    while (1) {
        //uart_puts("-----------Task 194-----------\n");
        uart_puts("Task 194 priority = 12 \n");
8000456c:	8000a7b7          	lui	a5,0x8000a
80004570:	8e478513          	addi	a0,a5,-1820 # 800098e4 <_memory_end+0xf80098e4>
80004574:	985fc0ef          	jal	ra,80000ef8 <uart_puts>
        task_yield();
80004578:	e24fd0ef          	jal	ra,80001b9c <task_yield>
        uart_puts("Task 194 priority = 12 \n");
8000457c:	ff1ff06f          	j	8000456c <user_task194+0x14>

80004580 <user_task195>:
        //uart_puts("return Task 1 \n");
    }
}

void user_task195(void *p) {
80004580:	fe010113          	addi	sp,sp,-32
80004584:	00112e23          	sw	ra,28(sp)
80004588:	00812c23          	sw	s0,24(sp)
8000458c:	02010413          	addi	s0,sp,32
80004590:	fea42623          	sw	a0,-20(s0)
    while (1) {
        //uart_puts("-----------Task 195-----------\n");
        uart_puts("Task 195 priority = 6 \n");
80004594:	8000a7b7          	lui	a5,0x8000a
80004598:	90078513          	addi	a0,a5,-1792 # 80009900 <_memory_end+0xf8009900>
8000459c:	95dfc0ef          	jal	ra,80000ef8 <uart_puts>
        task_yield();
800045a0:	dfcfd0ef          	jal	ra,80001b9c <task_yield>
        uart_puts("Task 195 priority = 6 \n");
800045a4:	ff1ff06f          	j	80004594 <user_task195+0x14>

800045a8 <user_task196>:
        //uart_puts("return Task 29 \n");
    }
}

void user_task196(void *p) {
800045a8:	fe010113          	addi	sp,sp,-32
800045ac:	00112e23          	sw	ra,28(sp)
800045b0:	00812c23          	sw	s0,24(sp)
800045b4:	02010413          	addi	s0,sp,32
800045b8:	fea42623          	sw	a0,-20(s0)
    while (1) {
        //uart_puts("-----------Task 196-----------\n");
        uart_puts("Task 196 priority = 146 \n");
800045bc:	8000a7b7          	lui	a5,0x8000a
800045c0:	91878513          	addi	a0,a5,-1768 # 80009918 <_memory_end+0xf8009918>
800045c4:	935fc0ef          	jal	ra,80000ef8 <uart_puts>
        task_yield();
800045c8:	dd4fd0ef          	jal	ra,80001b9c <task_yield>
        uart_puts("Task 196 priority = 146 \n");
800045cc:	ff1ff06f          	j	800045bc <user_task196+0x14>

800045d0 <user_task197>:
        //uart_puts("return Task 14 \n");
    }
}

void user_task197(void *p) {
800045d0:	fe010113          	addi	sp,sp,-32
800045d4:	00112e23          	sw	ra,28(sp)
800045d8:	00812c23          	sw	s0,24(sp)
800045dc:	02010413          	addi	s0,sp,32
800045e0:	fea42623          	sw	a0,-20(s0)
    while (1) {
        //uart_puts("-----------Task 197-----------\n");
        uart_puts("Task 197 priority = 84 \n");
800045e4:	8000a7b7          	lui	a5,0x8000a
800045e8:	93478513          	addi	a0,a5,-1740 # 80009934 <_memory_end+0xf8009934>
800045ec:	90dfc0ef          	jal	ra,80000ef8 <uart_puts>
        task_yield();
800045f0:	dacfd0ef          	jal	ra,80001b9c <task_yield>
        uart_puts("Task 197 priority = 84 \n");
800045f4:	ff1ff06f          	j	800045e4 <user_task197+0x14>

800045f8 <user_task198>:
        //uart_puts("return Task 46 \n");
    }
}

void user_task198(void *p) {
800045f8:	fe010113          	addi	sp,sp,-32
800045fc:	00112e23          	sw	ra,28(sp)
80004600:	00812c23          	sw	s0,24(sp)
80004604:	02010413          	addi	s0,sp,32
80004608:	fea42623          	sw	a0,-20(s0)
    while (1) {
        //uart_puts("-----------Task 198-----------\n");
        uart_puts("Task 198 priority = 245 \n");
8000460c:	8000a7b7          	lui	a5,0x8000a
80004610:	95078513          	addi	a0,a5,-1712 # 80009950 <_memory_end+0xf8009950>
80004614:	8e5fc0ef          	jal	ra,80000ef8 <uart_puts>
        task_yield();
80004618:	d84fd0ef          	jal	ra,80001b9c <task_yield>
        uart_puts("Task 198 priority = 245 \n");
8000461c:	ff1ff06f          	j	8000460c <user_task198+0x14>

80004620 <user_task199>:
        //uart_puts("return Task 35 \n");
    }
}

void user_task199(void *p) {
80004620:	fe010113          	addi	sp,sp,-32
80004624:	00112e23          	sw	ra,28(sp)
80004628:	00812c23          	sw	s0,24(sp)
8000462c:	02010413          	addi	s0,sp,32
80004630:	fea42623          	sw	a0,-20(s0)
    while (1) {
        //uart_puts("-----------Task 199-----------\n");
        uart_puts("Task 199 priority = 5 \n");
80004634:	8000a7b7          	lui	a5,0x8000a
80004638:	96c78513          	addi	a0,a5,-1684 # 8000996c <_memory_end+0xf800996c>
8000463c:	8bdfc0ef          	jal	ra,80000ef8 <uart_puts>
        task_yield();
80004640:	d5cfd0ef          	jal	ra,80001b9c <task_yield>
        uart_puts("Task 199 priority = 5 \n");
80004644:	ff1ff06f          	j	80004634 <user_task199+0x14>

80004648 <user_task200>:
        //uart_puts("return Task 27 \n");
    }
}

void user_task200(void *p) {
80004648:	fe010113          	addi	sp,sp,-32
8000464c:	00112e23          	sw	ra,28(sp)
80004650:	00812c23          	sw	s0,24(sp)
80004654:	02010413          	addi	s0,sp,32
80004658:	fea42623          	sw	a0,-20(s0)
    while (1) {
        //uart_puts("-----------Task 200-----------\n");
        uart_puts("Task 200 priority = 141 \n");
8000465c:	8000a7b7          	lui	a5,0x8000a
80004660:	98478513          	addi	a0,a5,-1660 # 80009984 <_memory_end+0xf8009984>
80004664:	895fc0ef          	jal	ra,80000ef8 <uart_puts>
        task_yield();
80004668:	d34fd0ef          	jal	ra,80001b9c <task_yield>
        uart_puts("Task 200 priority = 141 \n");
8000466c:	ff1ff06f          	j	8000465c <user_task200+0x14>

80004670 <user_task201>:
        //uart_puts("return Task 21 \n");
    }
}

void user_task201(void *p) {
80004670:	fe010113          	addi	sp,sp,-32
80004674:	00112e23          	sw	ra,28(sp)
80004678:	00812c23          	sw	s0,24(sp)
8000467c:	02010413          	addi	s0,sp,32
80004680:	fea42623          	sw	a0,-20(s0)
    while (1) {
        //uart_puts("-----------Task 201-----------\n");
        uart_puts("Task 201 priority = 84 \n");
80004684:	8000a7b7          	lui	a5,0x8000a
80004688:	9a078513          	addi	a0,a5,-1632 # 800099a0 <_memory_end+0xf80099a0>
8000468c:	86dfc0ef          	jal	ra,80000ef8 <uart_puts>
        task_yield();
80004690:	d0cfd0ef          	jal	ra,80001b9c <task_yield>
        uart_puts("Task 201 priority = 84 \n");
80004694:	ff1ff06f          	j	80004684 <user_task201+0x14>

80004698 <user_task202>:
        //uart_puts("return Task 3 \n");
    }
}

void user_task202(void *p) {
80004698:	fe010113          	addi	sp,sp,-32
8000469c:	00112e23          	sw	ra,28(sp)
800046a0:	00812c23          	sw	s0,24(sp)
800046a4:	02010413          	addi	s0,sp,32
800046a8:	fea42623          	sw	a0,-20(s0)
    while (1) {
        //uart_puts("-----------Task 202-----------\n");
        uart_puts("Task 202 priority = 76 \n");
800046ac:	8000a7b7          	lui	a5,0x8000a
800046b0:	9bc78513          	addi	a0,a5,-1604 # 800099bc <_memory_end+0xf80099bc>
800046b4:	845fc0ef          	jal	ra,80000ef8 <uart_puts>
        task_yield();
800046b8:	ce4fd0ef          	jal	ra,80001b9c <task_yield>
        uart_puts("Task 202 priority = 76 \n");
800046bc:	ff1ff06f          	j	800046ac <user_task202+0x14>

800046c0 <user_task203>:
        //uart_puts("return Task 40 \n");
    }
}

void user_task203(void *p) {
800046c0:	fe010113          	addi	sp,sp,-32
800046c4:	00112e23          	sw	ra,28(sp)
800046c8:	00812c23          	sw	s0,24(sp)
800046cc:	02010413          	addi	s0,sp,32
800046d0:	fea42623          	sw	a0,-20(s0)
    while (1) {
        //uart_puts("-----------Task 203-----------\n");
        uart_puts("Task 203 priority = 247 \n");
800046d4:	8000a7b7          	lui	a5,0x8000a
800046d8:	9d878513          	addi	a0,a5,-1576 # 800099d8 <_memory_end+0xf80099d8>
800046dc:	81dfc0ef          	jal	ra,80000ef8 <uart_puts>
        task_yield();
800046e0:	cbcfd0ef          	jal	ra,80001b9c <task_yield>
        uart_puts("Task 203 priority = 247 \n");
800046e4:	ff1ff06f          	j	800046d4 <user_task203+0x14>

800046e8 <user_task204>:
        //uart_puts("return Task 39 \n");
    }
}

void user_task204(void *p) {
800046e8:	fe010113          	addi	sp,sp,-32
800046ec:	00112e23          	sw	ra,28(sp)
800046f0:	00812c23          	sw	s0,24(sp)
800046f4:	02010413          	addi	s0,sp,32
800046f8:	fea42623          	sw	a0,-20(s0)
    while (1) {
        //uart_puts("-----------Task 204-----------\n");
        uart_puts("Task 204 priority = 253 \n");
800046fc:	8000a7b7          	lui	a5,0x8000a
80004700:	9f478513          	addi	a0,a5,-1548 # 800099f4 <_memory_end+0xf80099f4>
80004704:	ff4fc0ef          	jal	ra,80000ef8 <uart_puts>
        task_yield();
80004708:	c94fd0ef          	jal	ra,80001b9c <task_yield>
        uart_puts("Task 204 priority = 253 \n");
8000470c:	ff1ff06f          	j	800046fc <user_task204+0x14>

80004710 <user_task205>:
        //uart_puts("return Task 26 \n");
    }
}

void user_task205(void *p) {
80004710:	fe010113          	addi	sp,sp,-32
80004714:	00112e23          	sw	ra,28(sp)
80004718:	00812c23          	sw	s0,24(sp)
8000471c:	02010413          	addi	s0,sp,32
80004720:	fea42623          	sw	a0,-20(s0)
    while (1) {
        //uart_puts("-----------Task 205-----------\n");
        uart_puts("Task 205 priority = 151 \n");
80004724:	8000a7b7          	lui	a5,0x8000a
80004728:	a1078513          	addi	a0,a5,-1520 # 80009a10 <_memory_end+0xf8009a10>
8000472c:	fccfc0ef          	jal	ra,80000ef8 <uart_puts>
        task_yield();
80004730:	c6cfd0ef          	jal	ra,80001b9c <task_yield>
        uart_puts("Task 205 priority = 151 \n");
80004734:	ff1ff06f          	j	80004724 <user_task205+0x14>

80004738 <user_task206>:
        //uart_puts("return Task 5 \n");
    }
}

void user_task206(void *p) {
80004738:	fe010113          	addi	sp,sp,-32
8000473c:	00112e23          	sw	ra,28(sp)
80004740:	00812c23          	sw	s0,24(sp)
80004744:	02010413          	addi	s0,sp,32
80004748:	fea42623          	sw	a0,-20(s0)
    while (1) {
        //uart_puts("-----------Task 206-----------\n");
        uart_puts("Task 206 priority = 179 \n");
8000474c:	8000a7b7          	lui	a5,0x8000a
80004750:	a2c78513          	addi	a0,a5,-1492 # 80009a2c <_memory_end+0xf8009a2c>
80004754:	fa4fc0ef          	jal	ra,80000ef8 <uart_puts>
        task_yield();
80004758:	c44fd0ef          	jal	ra,80001b9c <task_yield>
        uart_puts("Task 206 priority = 179 \n");
8000475c:	ff1ff06f          	j	8000474c <user_task206+0x14>

80004760 <user_task207>:
        //uart_puts("return Task 6 \n");
    }
}

void user_task207(void *p) {
80004760:	fe010113          	addi	sp,sp,-32
80004764:	00112e23          	sw	ra,28(sp)
80004768:	00812c23          	sw	s0,24(sp)
8000476c:	02010413          	addi	s0,sp,32
80004770:	fea42623          	sw	a0,-20(s0)
    while (1) {
        //uart_puts("-----------Task 207-----------\n");
        uart_puts("Task 207 priority = 92 \n");
80004774:	8000a7b7          	lui	a5,0x8000a
80004778:	a4878513          	addi	a0,a5,-1464 # 80009a48 <_memory_end+0xf8009a48>
8000477c:	f7cfc0ef          	jal	ra,80000ef8 <uart_puts>
        task_yield();
80004780:	c1cfd0ef          	jal	ra,80001b9c <task_yield>
        uart_puts("Task 207 priority = 92 \n");
80004784:	ff1ff06f          	j	80004774 <user_task207+0x14>

80004788 <user_task208>:
        //uart_puts("return Task 16 \n");
    }
}

void user_task208(void *p) {
80004788:	fe010113          	addi	sp,sp,-32
8000478c:	00112e23          	sw	ra,28(sp)
80004790:	00812c23          	sw	s0,24(sp)
80004794:	02010413          	addi	s0,sp,32
80004798:	fea42623          	sw	a0,-20(s0)
    while (1) {
        //uart_puts("-----------Task 208-----------\n");
        uart_puts("Task 208 priority = 103 \n");
8000479c:	8000a7b7          	lui	a5,0x8000a
800047a0:	a6478513          	addi	a0,a5,-1436 # 80009a64 <_memory_end+0xf8009a64>
800047a4:	f54fc0ef          	jal	ra,80000ef8 <uart_puts>
        task_yield();
800047a8:	bf4fd0ef          	jal	ra,80001b9c <task_yield>
        uart_puts("Task 208 priority = 103 \n");
800047ac:	ff1ff06f          	j	8000479c <user_task208+0x14>

800047b0 <user_task209>:
        //uart_puts("return Task 12 \n");
    }
}

void user_task209(void *p) {
800047b0:	fe010113          	addi	sp,sp,-32
800047b4:	00112e23          	sw	ra,28(sp)
800047b8:	00812c23          	sw	s0,24(sp)
800047bc:	02010413          	addi	s0,sp,32
800047c0:	fea42623          	sw	a0,-20(s0)
    while (1) {
        //uart_puts("-----------Task 209-----------\n");
        uart_puts("Task 209 priority = 72 \n");
800047c4:	8000a7b7          	lui	a5,0x8000a
800047c8:	a8078513          	addi	a0,a5,-1408 # 80009a80 <_memory_end+0xf8009a80>
800047cc:	f2cfc0ef          	jal	ra,80000ef8 <uart_puts>
        task_yield();
800047d0:	bccfd0ef          	jal	ra,80001b9c <task_yield>
        uart_puts("Task 209 priority = 72 \n");
800047d4:	ff1ff06f          	j	800047c4 <user_task209+0x14>

800047d8 <user_task210>:
        //uart_puts("return Task 7 \n");
    }
}

void user_task210(void *p) {
800047d8:	fe010113          	addi	sp,sp,-32
800047dc:	00112e23          	sw	ra,28(sp)
800047e0:	00812c23          	sw	s0,24(sp)
800047e4:	02010413          	addi	s0,sp,32
800047e8:	fea42623          	sw	a0,-20(s0)
    while (1) {
        //uart_puts("-----------Task 210-----------\n");
        uart_puts("Task 210 priority = 125 \n");
800047ec:	8000a7b7          	lui	a5,0x8000a
800047f0:	a9c78513          	addi	a0,a5,-1380 # 80009a9c <_memory_end+0xf8009a9c>
800047f4:	f04fc0ef          	jal	ra,80000ef8 <uart_puts>
        task_yield();
800047f8:	ba4fd0ef          	jal	ra,80001b9c <task_yield>
        uart_puts("Task 210 priority = 125 \n");
800047fc:	ff1ff06f          	j	800047ec <user_task210+0x14>

80004800 <user_task211>:
        //uart_puts("return Task 8 \n");
    }
}

void user_task211(void *p) {
80004800:	fe010113          	addi	sp,sp,-32
80004804:	00112e23          	sw	ra,28(sp)
80004808:	00812c23          	sw	s0,24(sp)
8000480c:	02010413          	addi	s0,sp,32
80004810:	fea42623          	sw	a0,-20(s0)
    while (1) {
        //uart_puts("-----------Task 211-----------\n");
        uart_puts("Task 211 priority = 241 \n");
80004814:	8000a7b7          	lui	a5,0x8000a
80004818:	ab878513          	addi	a0,a5,-1352 # 80009ab8 <_memory_end+0xf8009ab8>
8000481c:	edcfc0ef          	jal	ra,80000ef8 <uart_puts>
        task_yield();
80004820:	b7cfd0ef          	jal	ra,80001b9c <task_yield>
        uart_puts("Task 211 priority = 241 \n");
80004824:	ff1ff06f          	j	80004814 <user_task211+0x14>

80004828 <user_task212>:
        //uart_puts("return Task 29 \n");
    }
}

void user_task212(void *p) {
80004828:	fe010113          	addi	sp,sp,-32
8000482c:	00112e23          	sw	ra,28(sp)
80004830:	00812c23          	sw	s0,24(sp)
80004834:	02010413          	addi	s0,sp,32
80004838:	fea42623          	sw	a0,-20(s0)
    while (1) {
        //uart_puts("-----------Task 212-----------\n");
        uart_puts("Task 212 priority = 143 \n");
8000483c:	8000a7b7          	lui	a5,0x8000a
80004840:	ad478513          	addi	a0,a5,-1324 # 80009ad4 <_memory_end+0xf8009ad4>
80004844:	eb4fc0ef          	jal	ra,80000ef8 <uart_puts>
        task_yield();
80004848:	b54fd0ef          	jal	ra,80001b9c <task_yield>
        uart_puts("Task 212 priority = 143 \n");
8000484c:	ff1ff06f          	j	8000483c <user_task212+0x14>

80004850 <user_task213>:
        //uart_puts("return Task 15 \n");
    }
}

void user_task213(void *p) {
80004850:	fe010113          	addi	sp,sp,-32
80004854:	00112e23          	sw	ra,28(sp)
80004858:	00812c23          	sw	s0,24(sp)
8000485c:	02010413          	addi	s0,sp,32
80004860:	fea42623          	sw	a0,-20(s0)
    while (1) {
        //uart_puts("-----------Task 213-----------\n");
        uart_puts("Task 213 priority = 255 \n");
80004864:	8000a7b7          	lui	a5,0x8000a
80004868:	af078513          	addi	a0,a5,-1296 # 80009af0 <_memory_end+0xf8009af0>
8000486c:	e8cfc0ef          	jal	ra,80000ef8 <uart_puts>
        task_yield();
80004870:	b2cfd0ef          	jal	ra,80001b9c <task_yield>
        uart_puts("Task 213 priority = 255 \n");
80004874:	ff1ff06f          	j	80004864 <user_task213+0x14>

80004878 <user_task214>:
        //uart_puts("return Task 1 \n");
    }
}

void user_task214(void *p) {
80004878:	fe010113          	addi	sp,sp,-32
8000487c:	00112e23          	sw	ra,28(sp)
80004880:	00812c23          	sw	s0,24(sp)
80004884:	02010413          	addi	s0,sp,32
80004888:	fea42623          	sw	a0,-20(s0)
    while (1) {
        //uart_puts("-----------Task 214-----------\n");
        uart_puts("Task 214 priority = 107 \n");
8000488c:	8000a7b7          	lui	a5,0x8000a
80004890:	b0c78513          	addi	a0,a5,-1268 # 80009b0c <_memory_end+0xf8009b0c>
80004894:	e64fc0ef          	jal	ra,80000ef8 <uart_puts>
        task_yield();
80004898:	b04fd0ef          	jal	ra,80001b9c <task_yield>
        uart_puts("Task 214 priority = 107 \n");
8000489c:	ff1ff06f          	j	8000488c <user_task214+0x14>

800048a0 <user_task215>:
        //uart_puts("return Task 11 \n");
    }
}

void user_task215(void *p) {
800048a0:	fe010113          	addi	sp,sp,-32
800048a4:	00112e23          	sw	ra,28(sp)
800048a8:	00812c23          	sw	s0,24(sp)
800048ac:	02010413          	addi	s0,sp,32
800048b0:	fea42623          	sw	a0,-20(s0)
    while (1) {
        //uart_puts("-----------Task 215-----------\n");
        uart_puts("Task 215 priority = 183 \n");
800048b4:	8000a7b7          	lui	a5,0x8000a
800048b8:	b2878513          	addi	a0,a5,-1240 # 80009b28 <_memory_end+0xf8009b28>
800048bc:	e3cfc0ef          	jal	ra,80000ef8 <uart_puts>
        task_yield();
800048c0:	adcfd0ef          	jal	ra,80001b9c <task_yield>
        uart_puts("Task 215 priority = 183 \n");
800048c4:	ff1ff06f          	j	800048b4 <user_task215+0x14>

800048c8 <user_task216>:
        //uart_puts("return Task 15 \n");
    }
}

void user_task216(void *p) {
800048c8:	fe010113          	addi	sp,sp,-32
800048cc:	00112e23          	sw	ra,28(sp)
800048d0:	00812c23          	sw	s0,24(sp)
800048d4:	02010413          	addi	s0,sp,32
800048d8:	fea42623          	sw	a0,-20(s0)
    while (1) {
        //uart_puts("-----------Task 216-----------\n");
        uart_puts("Task 216 priority = 190 \n");
800048dc:	8000a7b7          	lui	a5,0x8000a
800048e0:	b4478513          	addi	a0,a5,-1212 # 80009b44 <_memory_end+0xf8009b44>
800048e4:	e14fc0ef          	jal	ra,80000ef8 <uart_puts>
        task_yield();
800048e8:	ab4fd0ef          	jal	ra,80001b9c <task_yield>
        uart_puts("Task 216 priority = 190 \n");
800048ec:	ff1ff06f          	j	800048dc <user_task216+0x14>

800048f0 <user_task217>:
        //uart_puts("return Task 17 \n");
    }
}

void user_task217(void *p) {
800048f0:	fe010113          	addi	sp,sp,-32
800048f4:	00112e23          	sw	ra,28(sp)
800048f8:	00812c23          	sw	s0,24(sp)
800048fc:	02010413          	addi	s0,sp,32
80004900:	fea42623          	sw	a0,-20(s0)
    while (1) {
        //uart_puts("-----------Task 217-----------\n");
        uart_puts("Task 217 priority = 54 \n");
80004904:	8000a7b7          	lui	a5,0x8000a
80004908:	b6078513          	addi	a0,a5,-1184 # 80009b60 <_memory_end+0xf8009b60>
8000490c:	decfc0ef          	jal	ra,80000ef8 <uart_puts>
        task_yield();
80004910:	a8cfd0ef          	jal	ra,80001b9c <task_yield>
        uart_puts("Task 217 priority = 54 \n");
80004914:	ff1ff06f          	j	80004904 <user_task217+0x14>

80004918 <user_task218>:
        //uart_puts("return Task 37 \n");
    }
}

void user_task218(void *p) {
80004918:	fe010113          	addi	sp,sp,-32
8000491c:	00112e23          	sw	ra,28(sp)
80004920:	00812c23          	sw	s0,24(sp)
80004924:	02010413          	addi	s0,sp,32
80004928:	fea42623          	sw	a0,-20(s0)
    while (1) {
        //uart_puts("-----------Task 218-----------\n");
        uart_puts("Task 218 priority = 31 \n");
8000492c:	8000a7b7          	lui	a5,0x8000a
80004930:	b7c78513          	addi	a0,a5,-1156 # 80009b7c <_memory_end+0xf8009b7c>
80004934:	dc4fc0ef          	jal	ra,80000ef8 <uart_puts>
        task_yield();
80004938:	a64fd0ef          	jal	ra,80001b9c <task_yield>
        uart_puts("Task 218 priority = 31 \n");
8000493c:	ff1ff06f          	j	8000492c <user_task218+0x14>

80004940 <user_task219>:
        //uart_puts("return Task 6 \n");
    }
}

void user_task219(void *p) {
80004940:	fe010113          	addi	sp,sp,-32
80004944:	00112e23          	sw	ra,28(sp)
80004948:	00812c23          	sw	s0,24(sp)
8000494c:	02010413          	addi	s0,sp,32
80004950:	fea42623          	sw	a0,-20(s0)
    while (1) {
        //uart_puts("-----------Task 219-----------\n");
        uart_puts("Task 219 priority = 254 \n");
80004954:	8000a7b7          	lui	a5,0x8000a
80004958:	b9878513          	addi	a0,a5,-1128 # 80009b98 <_memory_end+0xf8009b98>
8000495c:	d9cfc0ef          	jal	ra,80000ef8 <uart_puts>
        task_yield();
80004960:	a3cfd0ef          	jal	ra,80001b9c <task_yield>
        uart_puts("Task 219 priority = 254 \n");
80004964:	ff1ff06f          	j	80004954 <user_task219+0x14>

80004968 <user_task220>:
        //uart_puts("return Task 31 \n");
    }
}

void user_task220(void *p) {
80004968:	fe010113          	addi	sp,sp,-32
8000496c:	00112e23          	sw	ra,28(sp)
80004970:	00812c23          	sw	s0,24(sp)
80004974:	02010413          	addi	s0,sp,32
80004978:	fea42623          	sw	a0,-20(s0)
    while (1) {
        //uart_puts("-----------Task 220-----------\n");
        uart_puts("Task 220 priority = 120 \n");
8000497c:	8000a7b7          	lui	a5,0x8000a
80004980:	bb478513          	addi	a0,a5,-1100 # 80009bb4 <_memory_end+0xf8009bb4>
80004984:	d74fc0ef          	jal	ra,80000ef8 <uart_puts>
        task_yield();
80004988:	a14fd0ef          	jal	ra,80001b9c <task_yield>
        uart_puts("Task 220 priority = 120 \n");
8000498c:	ff1ff06f          	j	8000497c <user_task220+0x14>

80004990 <user_task221>:
        //uart_puts("return Task 2 \n");
    }
}

void user_task221(void *p) {
80004990:	fe010113          	addi	sp,sp,-32
80004994:	00112e23          	sw	ra,28(sp)
80004998:	00812c23          	sw	s0,24(sp)
8000499c:	02010413          	addi	s0,sp,32
800049a0:	fea42623          	sw	a0,-20(s0)
    while (1) {
        //uart_puts("-----------Task 221-----------\n");
        uart_puts("Task 221 priority = 140 \n");
800049a4:	8000a7b7          	lui	a5,0x8000a
800049a8:	bd078513          	addi	a0,a5,-1072 # 80009bd0 <_memory_end+0xf8009bd0>
800049ac:	d4cfc0ef          	jal	ra,80000ef8 <uart_puts>
        task_yield();
800049b0:	9ecfd0ef          	jal	ra,80001b9c <task_yield>
        uart_puts("Task 221 priority = 140 \n");
800049b4:	ff1ff06f          	j	800049a4 <user_task221+0x14>

800049b8 <user_task222>:
        //uart_puts("return Task 40 \n");
    }
}

void user_task222(void *p) {
800049b8:	fe010113          	addi	sp,sp,-32
800049bc:	00112e23          	sw	ra,28(sp)
800049c0:	00812c23          	sw	s0,24(sp)
800049c4:	02010413          	addi	s0,sp,32
800049c8:	fea42623          	sw	a0,-20(s0)
    while (1) {
        //uart_puts("-----------Task 222-----------\n");
        uart_puts("Task 222 priority = 196 \n");
800049cc:	8000a7b7          	lui	a5,0x8000a
800049d0:	bec78513          	addi	a0,a5,-1044 # 80009bec <_memory_end+0xf8009bec>
800049d4:	d24fc0ef          	jal	ra,80000ef8 <uart_puts>
        task_yield();
800049d8:	9c4fd0ef          	jal	ra,80001b9c <task_yield>
        uart_puts("Task 222 priority = 196 \n");
800049dc:	ff1ff06f          	j	800049cc <user_task222+0x14>

800049e0 <user_task223>:
        //uart_puts("return Task 1 \n");
    }
}

void user_task223(void *p) {
800049e0:	fe010113          	addi	sp,sp,-32
800049e4:	00112e23          	sw	ra,28(sp)
800049e8:	00812c23          	sw	s0,24(sp)
800049ec:	02010413          	addi	s0,sp,32
800049f0:	fea42623          	sw	a0,-20(s0)
    while (1) {
        //uart_puts("-----------Task 223-----------\n");
        uart_puts("Task 223 priority = 193 \n");
800049f4:	8000a7b7          	lui	a5,0x8000a
800049f8:	c0878513          	addi	a0,a5,-1016 # 80009c08 <_memory_end+0xf8009c08>
800049fc:	cfcfc0ef          	jal	ra,80000ef8 <uart_puts>
        task_yield();
80004a00:	99cfd0ef          	jal	ra,80001b9c <task_yield>
        uart_puts("Task 223 priority = 193 \n");
80004a04:	ff1ff06f          	j	800049f4 <user_task223+0x14>

80004a08 <user_task224>:
        //uart_puts("return Task 45 \n");
    }
}

void user_task224(void *p) {
80004a08:	fe010113          	addi	sp,sp,-32
80004a0c:	00112e23          	sw	ra,28(sp)
80004a10:	00812c23          	sw	s0,24(sp)
80004a14:	02010413          	addi	s0,sp,32
80004a18:	fea42623          	sw	a0,-20(s0)
    while (1) {
        //uart_puts("-----------Task 224-----------\n");
        uart_puts("Task 224 priority = 160 \n");
80004a1c:	8000a7b7          	lui	a5,0x8000a
80004a20:	c2478513          	addi	a0,a5,-988 # 80009c24 <_memory_end+0xf8009c24>
80004a24:	cd4fc0ef          	jal	ra,80000ef8 <uart_puts>
        task_yield();
80004a28:	974fd0ef          	jal	ra,80001b9c <task_yield>
        uart_puts("Task 224 priority = 160 \n");
80004a2c:	ff1ff06f          	j	80004a1c <user_task224+0x14>

80004a30 <user_task225>:
        //uart_puts("return Task 21 \n");
    }
}

void user_task225(void *p) {
80004a30:	fe010113          	addi	sp,sp,-32
80004a34:	00112e23          	sw	ra,28(sp)
80004a38:	00812c23          	sw	s0,24(sp)
80004a3c:	02010413          	addi	s0,sp,32
80004a40:	fea42623          	sw	a0,-20(s0)
    while (1) {
        //uart_puts("-----------Task 225-----------\n");
        uart_puts("Task 225 priority = 66 \n");
80004a44:	8000a7b7          	lui	a5,0x8000a
80004a48:	c4078513          	addi	a0,a5,-960 # 80009c40 <_memory_end+0xf8009c40>
80004a4c:	cacfc0ef          	jal	ra,80000ef8 <uart_puts>
        task_yield();
80004a50:	94cfd0ef          	jal	ra,80001b9c <task_yield>
        uart_puts("Task 225 priority = 66 \n");
80004a54:	ff1ff06f          	j	80004a44 <user_task225+0x14>

80004a58 <user_task226>:
        //uart_puts("return Task 21 \n");
    }
}

void user_task226(void *p) {
80004a58:	fe010113          	addi	sp,sp,-32
80004a5c:	00112e23          	sw	ra,28(sp)
80004a60:	00812c23          	sw	s0,24(sp)
80004a64:	02010413          	addi	s0,sp,32
80004a68:	fea42623          	sw	a0,-20(s0)
    while (1) {
        //uart_puts("-----------Task 226-----------\n");
        uart_puts("Task 226 priority = 99 \n");
80004a6c:	8000a7b7          	lui	a5,0x8000a
80004a70:	c5c78513          	addi	a0,a5,-932 # 80009c5c <_memory_end+0xf8009c5c>
80004a74:	c84fc0ef          	jal	ra,80000ef8 <uart_puts>
        task_yield();
80004a78:	924fd0ef          	jal	ra,80001b9c <task_yield>
        uart_puts("Task 226 priority = 99 \n");
80004a7c:	ff1ff06f          	j	80004a6c <user_task226+0x14>

80004a80 <user_task227>:
        //uart_puts("return Task 4 \n");
    }
}

void user_task227(void *p) {
80004a80:	fe010113          	addi	sp,sp,-32
80004a84:	00112e23          	sw	ra,28(sp)
80004a88:	00812c23          	sw	s0,24(sp)
80004a8c:	02010413          	addi	s0,sp,32
80004a90:	fea42623          	sw	a0,-20(s0)
    while (1) {
        //uart_puts("-----------Task 227-----------\n");
        uart_puts("Task 227 priority = 34 \n");
80004a94:	8000a7b7          	lui	a5,0x8000a
80004a98:	c7878513          	addi	a0,a5,-904 # 80009c78 <_memory_end+0xf8009c78>
80004a9c:	c5cfc0ef          	jal	ra,80000ef8 <uart_puts>
        task_yield();
80004aa0:	8fcfd0ef          	jal	ra,80001b9c <task_yield>
        uart_puts("Task 227 priority = 34 \n");
80004aa4:	ff1ff06f          	j	80004a94 <user_task227+0x14>

80004aa8 <user_task228>:
        //uart_puts("return Task 15 \n");
    }
}

void user_task228(void *p) {
80004aa8:	fe010113          	addi	sp,sp,-32
80004aac:	00112e23          	sw	ra,28(sp)
80004ab0:	00812c23          	sw	s0,24(sp)
80004ab4:	02010413          	addi	s0,sp,32
80004ab8:	fea42623          	sw	a0,-20(s0)
    while (1) {
        //uart_puts("-----------Task 228-----------\n");
        uart_puts("Task 228 priority = 58 \n");
80004abc:	8000a7b7          	lui	a5,0x8000a
80004ac0:	c9478513          	addi	a0,a5,-876 # 80009c94 <_memory_end+0xf8009c94>
80004ac4:	c34fc0ef          	jal	ra,80000ef8 <uart_puts>
        task_yield();
80004ac8:	8d4fd0ef          	jal	ra,80001b9c <task_yield>
        uart_puts("Task 228 priority = 58 \n");
80004acc:	ff1ff06f          	j	80004abc <user_task228+0x14>

80004ad0 <user_task229>:
        //uart_puts("return Task 45 \n");
    }
}

void user_task229(void *p) {
80004ad0:	fe010113          	addi	sp,sp,-32
80004ad4:	00112e23          	sw	ra,28(sp)
80004ad8:	00812c23          	sw	s0,24(sp)
80004adc:	02010413          	addi	s0,sp,32
80004ae0:	fea42623          	sw	a0,-20(s0)
    while (1) {
        //uart_puts("-----------Task 229-----------\n");
        uart_puts("Task 229 priority = 130 \n");
80004ae4:	8000a7b7          	lui	a5,0x8000a
80004ae8:	cb078513          	addi	a0,a5,-848 # 80009cb0 <_memory_end+0xf8009cb0>
80004aec:	c0cfc0ef          	jal	ra,80000ef8 <uart_puts>
        task_yield();
80004af0:	8acfd0ef          	jal	ra,80001b9c <task_yield>
        uart_puts("Task 229 priority = 130 \n");
80004af4:	ff1ff06f          	j	80004ae4 <user_task229+0x14>

80004af8 <user_task230>:
        //uart_puts("return Task 49 \n");
    }
}

void user_task230(void *p) {
80004af8:	fe010113          	addi	sp,sp,-32
80004afc:	00112e23          	sw	ra,28(sp)
80004b00:	00812c23          	sw	s0,24(sp)
80004b04:	02010413          	addi	s0,sp,32
80004b08:	fea42623          	sw	a0,-20(s0)
    while (1) {
        //uart_puts("-----------Task 230-----------\n");
        uart_puts("Task 230 priority = 202 \n");
80004b0c:	8000a7b7          	lui	a5,0x8000a
80004b10:	ccc78513          	addi	a0,a5,-820 # 80009ccc <_memory_end+0xf8009ccc>
80004b14:	be4fc0ef          	jal	ra,80000ef8 <uart_puts>
        task_yield();
80004b18:	884fd0ef          	jal	ra,80001b9c <task_yield>
        uart_puts("Task 230 priority = 202 \n");
80004b1c:	ff1ff06f          	j	80004b0c <user_task230+0x14>

80004b20 <user_task231>:
        //uart_puts("return Task 42 \n");
    }
}

void user_task231(void *p) {
80004b20:	fe010113          	addi	sp,sp,-32
80004b24:	00112e23          	sw	ra,28(sp)
80004b28:	00812c23          	sw	s0,24(sp)
80004b2c:	02010413          	addi	s0,sp,32
80004b30:	fea42623          	sw	a0,-20(s0)
    while (1) {
        //uart_puts("-----------Task 231-----------\n");
        uart_puts("Task 231 priority = 125 \n");
80004b34:	8000a7b7          	lui	a5,0x8000a
80004b38:	ce878513          	addi	a0,a5,-792 # 80009ce8 <_memory_end+0xf8009ce8>
80004b3c:	bbcfc0ef          	jal	ra,80000ef8 <uart_puts>
        task_yield();
80004b40:	85cfd0ef          	jal	ra,80001b9c <task_yield>
        uart_puts("Task 231 priority = 125 \n");
80004b44:	ff1ff06f          	j	80004b34 <user_task231+0x14>

80004b48 <user_task232>:
        //uart_puts("return Task 44 \n");
    }
}

void user_task232(void *p) {
80004b48:	fe010113          	addi	sp,sp,-32
80004b4c:	00112e23          	sw	ra,28(sp)
80004b50:	00812c23          	sw	s0,24(sp)
80004b54:	02010413          	addi	s0,sp,32
80004b58:	fea42623          	sw	a0,-20(s0)
    while (1) {
        //uart_puts("-----------Task 232-----------\n");
        uart_puts("Task 232 priority = 130 \n");
80004b5c:	8000a7b7          	lui	a5,0x8000a
80004b60:	d0478513          	addi	a0,a5,-764 # 80009d04 <_memory_end+0xf8009d04>
80004b64:	b94fc0ef          	jal	ra,80000ef8 <uart_puts>
        task_yield();
80004b68:	834fd0ef          	jal	ra,80001b9c <task_yield>
        uart_puts("Task 232 priority = 130 \n");
80004b6c:	ff1ff06f          	j	80004b5c <user_task232+0x14>

80004b70 <user_task233>:
        //uart_puts("return Task 42 \n");
    }
}

void user_task233(void *p) {
80004b70:	fe010113          	addi	sp,sp,-32
80004b74:	00112e23          	sw	ra,28(sp)
80004b78:	00812c23          	sw	s0,24(sp)
80004b7c:	02010413          	addi	s0,sp,32
80004b80:	fea42623          	sw	a0,-20(s0)
    while (1) {
        //uart_puts("-----------Task 233-----------\n");
        uart_puts("Task 233 priority = 123 \n");
80004b84:	8000a7b7          	lui	a5,0x8000a
80004b88:	d2078513          	addi	a0,a5,-736 # 80009d20 <_memory_end+0xf8009d20>
80004b8c:	b6cfc0ef          	jal	ra,80000ef8 <uart_puts>
        task_yield();
80004b90:	80cfd0ef          	jal	ra,80001b9c <task_yield>
        uart_puts("Task 233 priority = 123 \n");
80004b94:	ff1ff06f          	j	80004b84 <user_task233+0x14>

80004b98 <user_task234>:
        //uart_puts("return Task 28 \n");
    }
}

void user_task234(void *p) {
80004b98:	fe010113          	addi	sp,sp,-32
80004b9c:	00112e23          	sw	ra,28(sp)
80004ba0:	00812c23          	sw	s0,24(sp)
80004ba4:	02010413          	addi	s0,sp,32
80004ba8:	fea42623          	sw	a0,-20(s0)
    while (1) {
        //uart_puts("-----------Task 234-----------\n");
        uart_puts("Task 234 priority = 51 \n");
80004bac:	8000a7b7          	lui	a5,0x8000a
80004bb0:	d3c78513          	addi	a0,a5,-708 # 80009d3c <_memory_end+0xf8009d3c>
80004bb4:	b44fc0ef          	jal	ra,80000ef8 <uart_puts>
        task_yield();
80004bb8:	fe5fc0ef          	jal	ra,80001b9c <task_yield>
        uart_puts("Task 234 priority = 51 \n");
80004bbc:	ff1ff06f          	j	80004bac <user_task234+0x14>

80004bc0 <user_task235>:
        //uart_puts("return Task 18 \n");
    }
}

void user_task235(void *p) {
80004bc0:	fe010113          	addi	sp,sp,-32
80004bc4:	00112e23          	sw	ra,28(sp)
80004bc8:	00812c23          	sw	s0,24(sp)
80004bcc:	02010413          	addi	s0,sp,32
80004bd0:	fea42623          	sw	a0,-20(s0)
    while (1) {
        //uart_puts("-----------Task 235-----------\n");
        uart_puts("Task 235 priority = 184 \n");
80004bd4:	8000a7b7          	lui	a5,0x8000a
80004bd8:	d5878513          	addi	a0,a5,-680 # 80009d58 <_memory_end+0xf8009d58>
80004bdc:	b1cfc0ef          	jal	ra,80000ef8 <uart_puts>
        task_yield();
80004be0:	fbdfc0ef          	jal	ra,80001b9c <task_yield>
        uart_puts("Task 235 priority = 184 \n");
80004be4:	ff1ff06f          	j	80004bd4 <user_task235+0x14>

80004be8 <user_task236>:
        //uart_puts("return Task 43 \n");
    }
}

void user_task236(void *p) {
80004be8:	fe010113          	addi	sp,sp,-32
80004bec:	00112e23          	sw	ra,28(sp)
80004bf0:	00812c23          	sw	s0,24(sp)
80004bf4:	02010413          	addi	s0,sp,32
80004bf8:	fea42623          	sw	a0,-20(s0)
    while (1) {
        //uart_puts("-----------Task 236-----------\n");
        uart_puts("Task 236 priority = 22 \n");
80004bfc:	8000a7b7          	lui	a5,0x8000a
80004c00:	d7478513          	addi	a0,a5,-652 # 80009d74 <_memory_end+0xf8009d74>
80004c04:	af4fc0ef          	jal	ra,80000ef8 <uart_puts>
        task_yield();
80004c08:	f95fc0ef          	jal	ra,80001b9c <task_yield>
        uart_puts("Task 236 priority = 22 \n");
80004c0c:	ff1ff06f          	j	80004bfc <user_task236+0x14>

80004c10 <user_task237>:
        //uart_puts("return Task 50 \n");
    }
}

void user_task237(void *p) {
80004c10:	fe010113          	addi	sp,sp,-32
80004c14:	00112e23          	sw	ra,28(sp)
80004c18:	00812c23          	sw	s0,24(sp)
80004c1c:	02010413          	addi	s0,sp,32
80004c20:	fea42623          	sw	a0,-20(s0)
    while (1) {
        //uart_puts("-----------Task 237-----------\n");
        uart_puts("Task 237 priority = 94 \n");
80004c24:	8000a7b7          	lui	a5,0x8000a
80004c28:	d9078513          	addi	a0,a5,-624 # 80009d90 <_memory_end+0xf8009d90>
80004c2c:	accfc0ef          	jal	ra,80000ef8 <uart_puts>
        task_yield();
80004c30:	f6dfc0ef          	jal	ra,80001b9c <task_yield>
        uart_puts("Task 237 priority = 94 \n");
80004c34:	ff1ff06f          	j	80004c24 <user_task237+0x14>

80004c38 <user_task238>:
        //uart_puts("return Task 43 \n");
    }
}

void user_task238(void *p) {
80004c38:	fe010113          	addi	sp,sp,-32
80004c3c:	00112e23          	sw	ra,28(sp)
80004c40:	00812c23          	sw	s0,24(sp)
80004c44:	02010413          	addi	s0,sp,32
80004c48:	fea42623          	sw	a0,-20(s0)
    while (1) {
        //uart_puts("-----------Task 238-----------\n");
        uart_puts("Task 238 priority = 78 \n");
80004c4c:	8000a7b7          	lui	a5,0x8000a
80004c50:	dac78513          	addi	a0,a5,-596 # 80009dac <_memory_end+0xf8009dac>
80004c54:	aa4fc0ef          	jal	ra,80000ef8 <uart_puts>
        task_yield();
80004c58:	f45fc0ef          	jal	ra,80001b9c <task_yield>
        uart_puts("Task 238 priority = 78 \n");
80004c5c:	ff1ff06f          	j	80004c4c <user_task238+0x14>

80004c60 <user_task239>:
        //uart_puts("return Task 23 \n");
    }
}

void user_task239(void *p) {
80004c60:	fe010113          	addi	sp,sp,-32
80004c64:	00112e23          	sw	ra,28(sp)
80004c68:	00812c23          	sw	s0,24(sp)
80004c6c:	02010413          	addi	s0,sp,32
80004c70:	fea42623          	sw	a0,-20(s0)
    while (1) {
        //uart_puts("-----------Task 239-----------\n");
        uart_puts("Task 239 priority = 94 \n");
80004c74:	8000a7b7          	lui	a5,0x8000a
80004c78:	dc878513          	addi	a0,a5,-568 # 80009dc8 <_memory_end+0xf8009dc8>
80004c7c:	a7cfc0ef          	jal	ra,80000ef8 <uart_puts>
        task_yield();
80004c80:	f1dfc0ef          	jal	ra,80001b9c <task_yield>
        uart_puts("Task 239 priority = 94 \n");
80004c84:	ff1ff06f          	j	80004c74 <user_task239+0x14>

80004c88 <user_task240>:
        //uart_puts("return Task 5 \n");
    }
}

void user_task240(void *p) {
80004c88:	fe010113          	addi	sp,sp,-32
80004c8c:	00112e23          	sw	ra,28(sp)
80004c90:	00812c23          	sw	s0,24(sp)
80004c94:	02010413          	addi	s0,sp,32
80004c98:	fea42623          	sw	a0,-20(s0)
    while (1) {
        //uart_puts("-----------Task 240-----------\n");
        uart_puts("Task 240 priority = 97 \n");
80004c9c:	8000a7b7          	lui	a5,0x8000a
80004ca0:	de478513          	addi	a0,a5,-540 # 80009de4 <_memory_end+0xf8009de4>
80004ca4:	a54fc0ef          	jal	ra,80000ef8 <uart_puts>
        task_yield();
80004ca8:	ef5fc0ef          	jal	ra,80001b9c <task_yield>
        uart_puts("Task 240 priority = 97 \n");
80004cac:	ff1ff06f          	j	80004c9c <user_task240+0x14>

80004cb0 <user_task241>:
        //uart_puts("return Task 43 \n");
    }
}

void user_task241(void *p) {
80004cb0:	fe010113          	addi	sp,sp,-32
80004cb4:	00112e23          	sw	ra,28(sp)
80004cb8:	00812c23          	sw	s0,24(sp)
80004cbc:	02010413          	addi	s0,sp,32
80004cc0:	fea42623          	sw	a0,-20(s0)
    while (1) {
        //uart_puts("-----------Task 241-----------\n");
        uart_puts("Task 241 priority = 26 \n");
80004cc4:	8000a7b7          	lui	a5,0x8000a
80004cc8:	e0078513          	addi	a0,a5,-512 # 80009e00 <_memory_end+0xf8009e00>
80004ccc:	a2cfc0ef          	jal	ra,80000ef8 <uart_puts>
        task_yield();
80004cd0:	ecdfc0ef          	jal	ra,80001b9c <task_yield>
        uart_puts("Task 241 priority = 26 \n");
80004cd4:	ff1ff06f          	j	80004cc4 <user_task241+0x14>

80004cd8 <user_task242>:
        //uart_puts("return Task 47 \n");
    }
}

void user_task242(void *p) {
80004cd8:	fe010113          	addi	sp,sp,-32
80004cdc:	00112e23          	sw	ra,28(sp)
80004ce0:	00812c23          	sw	s0,24(sp)
80004ce4:	02010413          	addi	s0,sp,32
80004ce8:	fea42623          	sw	a0,-20(s0)
    while (1) {
        //uart_puts("-----------Task 242-----------\n");
        uart_puts("Task 242 priority = 238 \n");
80004cec:	8000a7b7          	lui	a5,0x8000a
80004cf0:	e1c78513          	addi	a0,a5,-484 # 80009e1c <_memory_end+0xf8009e1c>
80004cf4:	a04fc0ef          	jal	ra,80000ef8 <uart_puts>
        task_yield();
80004cf8:	ea5fc0ef          	jal	ra,80001b9c <task_yield>
        uart_puts("Task 242 priority = 238 \n");
80004cfc:	ff1ff06f          	j	80004cec <user_task242+0x14>

80004d00 <user_task243>:
        //uart_puts("return Task 5 \n");
    }
}

void user_task243(void *p) {
80004d00:	fe010113          	addi	sp,sp,-32
80004d04:	00112e23          	sw	ra,28(sp)
80004d08:	00812c23          	sw	s0,24(sp)
80004d0c:	02010413          	addi	s0,sp,32
80004d10:	fea42623          	sw	a0,-20(s0)
    while (1) {
        //uart_puts("-----------Task 243-----------\n");
        uart_puts("Task 243 priority = 120 \n");
80004d14:	8000a7b7          	lui	a5,0x8000a
80004d18:	e3878513          	addi	a0,a5,-456 # 80009e38 <_memory_end+0xf8009e38>
80004d1c:	9dcfc0ef          	jal	ra,80000ef8 <uart_puts>
        task_yield();
80004d20:	e7dfc0ef          	jal	ra,80001b9c <task_yield>
        uart_puts("Task 243 priority = 120 \n");
80004d24:	ff1ff06f          	j	80004d14 <user_task243+0x14>

80004d28 <user_task244>:
        //uart_puts("return Task 29 \n");
    }
}

void user_task244(void *p) {
80004d28:	fe010113          	addi	sp,sp,-32
80004d2c:	00112e23          	sw	ra,28(sp)
80004d30:	00812c23          	sw	s0,24(sp)
80004d34:	02010413          	addi	s0,sp,32
80004d38:	fea42623          	sw	a0,-20(s0)
    while (1) {
        //uart_puts("-----------Task 244-----------\n");
        uart_puts("Task 244 priority = 97 \n");
80004d3c:	8000a7b7          	lui	a5,0x8000a
80004d40:	e5478513          	addi	a0,a5,-428 # 80009e54 <_memory_end+0xf8009e54>
80004d44:	9b4fc0ef          	jal	ra,80000ef8 <uart_puts>
        task_yield();
80004d48:	e55fc0ef          	jal	ra,80001b9c <task_yield>
        uart_puts("Task 244 priority = 97 \n");
80004d4c:	ff1ff06f          	j	80004d3c <user_task244+0x14>

80004d50 <user_task245>:
        //uart_puts("return Task 16 \n");
    }
}

void user_task245(void *p) {
80004d50:	fe010113          	addi	sp,sp,-32
80004d54:	00112e23          	sw	ra,28(sp)
80004d58:	00812c23          	sw	s0,24(sp)
80004d5c:	02010413          	addi	s0,sp,32
80004d60:	fea42623          	sw	a0,-20(s0)
    while (1) {
        //uart_puts("-----------Task 245-----------\n");
        uart_puts("Task 245 priority = 206 \n");
80004d64:	8000a7b7          	lui	a5,0x8000a
80004d68:	e7078513          	addi	a0,a5,-400 # 80009e70 <_memory_end+0xf8009e70>
80004d6c:	98cfc0ef          	jal	ra,80000ef8 <uart_puts>
        task_yield();
80004d70:	e2dfc0ef          	jal	ra,80001b9c <task_yield>
        uart_puts("Task 245 priority = 206 \n");
80004d74:	ff1ff06f          	j	80004d64 <user_task245+0x14>

80004d78 <user_task246>:
        //uart_puts("return Task 3 \n");
    }
}

void user_task246(void *p) {
80004d78:	fe010113          	addi	sp,sp,-32
80004d7c:	00112e23          	sw	ra,28(sp)
80004d80:	00812c23          	sw	s0,24(sp)
80004d84:	02010413          	addi	s0,sp,32
80004d88:	fea42623          	sw	a0,-20(s0)
    while (1) {
        //uart_puts("-----------Task 246-----------\n");
        uart_puts("Task 246 priority = 125 \n");
80004d8c:	8000a7b7          	lui	a5,0x8000a
80004d90:	e8c78513          	addi	a0,a5,-372 # 80009e8c <_memory_end+0xf8009e8c>
80004d94:	964fc0ef          	jal	ra,80000ef8 <uart_puts>
        task_yield();
80004d98:	e05fc0ef          	jal	ra,80001b9c <task_yield>
        uart_puts("Task 246 priority = 125 \n");
80004d9c:	ff1ff06f          	j	80004d8c <user_task246+0x14>

80004da0 <user_task247>:
        //uart_puts("return Task 27 \n");
    }
}

void user_task247(void *p) {
80004da0:	fe010113          	addi	sp,sp,-32
80004da4:	00112e23          	sw	ra,28(sp)
80004da8:	00812c23          	sw	s0,24(sp)
80004dac:	02010413          	addi	s0,sp,32
80004db0:	fea42623          	sw	a0,-20(s0)
    while (1) {
        //uart_puts("-----------Task 247-----------\n");
        uart_puts("Task 247 priority = 39 \n");
80004db4:	8000a7b7          	lui	a5,0x8000a
80004db8:	ea878513          	addi	a0,a5,-344 # 80009ea8 <_memory_end+0xf8009ea8>
80004dbc:	93cfc0ef          	jal	ra,80000ef8 <uart_puts>
        task_yield();
80004dc0:	dddfc0ef          	jal	ra,80001b9c <task_yield>
        uart_puts("Task 247 priority = 39 \n");
80004dc4:	ff1ff06f          	j	80004db4 <user_task247+0x14>

80004dc8 <user_task248>:
        //uart_puts("return Task 28 \n");
    }
}

void user_task248(void *p) {
80004dc8:	fe010113          	addi	sp,sp,-32
80004dcc:	00112e23          	sw	ra,28(sp)
80004dd0:	00812c23          	sw	s0,24(sp)
80004dd4:	02010413          	addi	s0,sp,32
80004dd8:	fea42623          	sw	a0,-20(s0)
    while (1) {
        //uart_puts("-----------Task 248-----------\n");
        uart_puts("Task 248 priority = 2 \n");
80004ddc:	8000a7b7          	lui	a5,0x8000a
80004de0:	ec478513          	addi	a0,a5,-316 # 80009ec4 <_memory_end+0xf8009ec4>
80004de4:	914fc0ef          	jal	ra,80000ef8 <uart_puts>
        task_yield();
80004de8:	db5fc0ef          	jal	ra,80001b9c <task_yield>
        uart_puts("Task 248 priority = 2 \n");
80004dec:	ff1ff06f          	j	80004ddc <user_task248+0x14>

80004df0 <user_task249>:
        //uart_puts("return Task 28 \n");
    }
}

void user_task249(void *p) {
80004df0:	fe010113          	addi	sp,sp,-32
80004df4:	00112e23          	sw	ra,28(sp)
80004df8:	00812c23          	sw	s0,24(sp)
80004dfc:	02010413          	addi	s0,sp,32
80004e00:	fea42623          	sw	a0,-20(s0)
    while (1) {
        //uart_puts("-----------Task 249-----------\n");
        uart_puts("Task 249 priority = 190 \n");
80004e04:	8000a7b7          	lui	a5,0x8000a
80004e08:	edc78513          	addi	a0,a5,-292 # 80009edc <_memory_end+0xf8009edc>
80004e0c:	8ecfc0ef          	jal	ra,80000ef8 <uart_puts>
        task_yield();
80004e10:	d8dfc0ef          	jal	ra,80001b9c <task_yield>
        uart_puts("Task 249 priority = 190 \n");
80004e14:	ff1ff06f          	j	80004e04 <user_task249+0x14>

80004e18 <user_task250>:
        //uart_puts("return Task 28 \n");
    }
}

void user_task250(void *p) {
80004e18:	fe010113          	addi	sp,sp,-32
80004e1c:	00112e23          	sw	ra,28(sp)
80004e20:	00812c23          	sw	s0,24(sp)
80004e24:	02010413          	addi	s0,sp,32
80004e28:	fea42623          	sw	a0,-20(s0)
    while (1) {
        //uart_puts("-----------Task 250-----------\n");
        uart_puts("Task 250 priority = 9 \n");
80004e2c:	8000a7b7          	lui	a5,0x8000a
80004e30:	ef878513          	addi	a0,a5,-264 # 80009ef8 <_memory_end+0xf8009ef8>
80004e34:	8c4fc0ef          	jal	ra,80000ef8 <uart_puts>
        task_yield();
80004e38:	d65fc0ef          	jal	ra,80001b9c <task_yield>
        uart_puts("Task 250 priority = 9 \n");
80004e3c:	ff1ff06f          	j	80004e2c <user_task250+0x14>

80004e40 <user_task251>:
        //uart_puts("return Task 10 \n");
    }
}

void user_task251(void *p) {
80004e40:	fe010113          	addi	sp,sp,-32
80004e44:	00112e23          	sw	ra,28(sp)
80004e48:	00812c23          	sw	s0,24(sp)
80004e4c:	02010413          	addi	s0,sp,32
80004e50:	fea42623          	sw	a0,-20(s0)
    while (1) {
        //uart_puts("-----------Task 251-----------\n");
        uart_puts("Task 251 priority = 53 \n");
80004e54:	8000a7b7          	lui	a5,0x8000a
80004e58:	f1078513          	addi	a0,a5,-240 # 80009f10 <_memory_end+0xf8009f10>
80004e5c:	89cfc0ef          	jal	ra,80000ef8 <uart_puts>
        task_yield();
80004e60:	d3dfc0ef          	jal	ra,80001b9c <task_yield>
        uart_puts("Task 251 priority = 53 \n");
80004e64:	ff1ff06f          	j	80004e54 <user_task251+0x14>

80004e68 <user_task252>:
        //uart_puts("return Task 47 \n");
    }
}

void user_task252(void *p) {
80004e68:	fe010113          	addi	sp,sp,-32
80004e6c:	00112e23          	sw	ra,28(sp)
80004e70:	00812c23          	sw	s0,24(sp)
80004e74:	02010413          	addi	s0,sp,32
80004e78:	fea42623          	sw	a0,-20(s0)
    while (1) {
        //uart_puts("-----------Task 252-----------\n");
        uart_puts("Task 252 priority = 146 \n");
80004e7c:	8000a7b7          	lui	a5,0x8000a
80004e80:	f2c78513          	addi	a0,a5,-212 # 80009f2c <_memory_end+0xf8009f2c>
80004e84:	874fc0ef          	jal	ra,80000ef8 <uart_puts>
        task_yield();
80004e88:	d15fc0ef          	jal	ra,80001b9c <task_yield>
        uart_puts("Task 252 priority = 146 \n");
80004e8c:	ff1ff06f          	j	80004e7c <user_task252+0x14>

80004e90 <user_task253>:
        //uart_puts("return Task 21 \n");
    }
}

void user_task253(void *p) {
80004e90:	fe010113          	addi	sp,sp,-32
80004e94:	00112e23          	sw	ra,28(sp)
80004e98:	00812c23          	sw	s0,24(sp)
80004e9c:	02010413          	addi	s0,sp,32
80004ea0:	fea42623          	sw	a0,-20(s0)
    while (1) {
        //uart_puts("-----------Task 253-----------\n");
        uart_puts("Task 253 priority = 21 \n");
80004ea4:	8000a7b7          	lui	a5,0x8000a
80004ea8:	f4878513          	addi	a0,a5,-184 # 80009f48 <_memory_end+0xf8009f48>
80004eac:	84cfc0ef          	jal	ra,80000ef8 <uart_puts>
        task_yield();
80004eb0:	cedfc0ef          	jal	ra,80001b9c <task_yield>
        uart_puts("Task 253 priority = 21 \n");
80004eb4:	ff1ff06f          	j	80004ea4 <user_task253+0x14>

80004eb8 <user_task254>:
        //uart_puts("return Task 11 \n");
    }
}

void user_task254(void *p) {
80004eb8:	fe010113          	addi	sp,sp,-32
80004ebc:	00112e23          	sw	ra,28(sp)
80004ec0:	00812c23          	sw	s0,24(sp)
80004ec4:	02010413          	addi	s0,sp,32
80004ec8:	fea42623          	sw	a0,-20(s0)
    while (1) {
        //uart_puts("-----------Task 254-----------\n");
        uart_puts("Task 254 priority = 15 \n");
80004ecc:	8000a7b7          	lui	a5,0x8000a
80004ed0:	f6478513          	addi	a0,a5,-156 # 80009f64 <_memory_end+0xf8009f64>
80004ed4:	824fc0ef          	jal	ra,80000ef8 <uart_puts>
        task_yield();
80004ed8:	cc5fc0ef          	jal	ra,80001b9c <task_yield>
        uart_puts("Task 254 priority = 15 \n");
80004edc:	ff1ff06f          	j	80004ecc <user_task254+0x14>

80004ee0 <user_task255>:
        //uart_puts("return Task 39 \n");
    }
}

void user_task255(void *p) {
80004ee0:	fe010113          	addi	sp,sp,-32
80004ee4:	00112e23          	sw	ra,28(sp)
80004ee8:	00812c23          	sw	s0,24(sp)
80004eec:	02010413          	addi	s0,sp,32
80004ef0:	fea42623          	sw	a0,-20(s0)
    while (1) {
        //uart_puts("-----------Task 255-----------\n");
        uart_puts("Task 255 priority = 228 \n");
80004ef4:	8000a7b7          	lui	a5,0x8000a
80004ef8:	f8078513          	addi	a0,a5,-128 # 80009f80 <_memory_end+0xf8009f80>
80004efc:	ffdfb0ef          	jal	ra,80000ef8 <uart_puts>
        task_yield();
80004f00:	c9dfc0ef          	jal	ra,80001b9c <task_yield>
        uart_puts("Task 255 priority = 228 \n");
80004f04:	ff1ff06f          	j	80004ef4 <user_task255+0x14>

80004f08 <user_task256>:
        //uart_puts("return Task 18 \n");
    }
}

void user_task256(void *p) {
80004f08:	fe010113          	addi	sp,sp,-32
80004f0c:	00112e23          	sw	ra,28(sp)
80004f10:	00812c23          	sw	s0,24(sp)
80004f14:	02010413          	addi	s0,sp,32
80004f18:	fea42623          	sw	a0,-20(s0)
    while (1) {
        //uart_puts("-----------Task 256-----------\n");
        uart_puts("Task 256 priority = 177 \n");
80004f1c:	8000a7b7          	lui	a5,0x8000a
80004f20:	f9c78513          	addi	a0,a5,-100 # 80009f9c <_memory_end+0xf8009f9c>
80004f24:	fd5fb0ef          	jal	ra,80000ef8 <uart_puts>
        task_yield();
80004f28:	c75fc0ef          	jal	ra,80001b9c <task_yield>
        uart_puts("Task 256 priority = 177 \n");
80004f2c:	ff1ff06f          	j	80004f1c <user_task256+0x14>

80004f30 <user_task257>:
        //uart_puts("return Task 18 \n");
    }
}

void user_task257(void *p) {
80004f30:	fe010113          	addi	sp,sp,-32
80004f34:	00112e23          	sw	ra,28(sp)
80004f38:	00812c23          	sw	s0,24(sp)
80004f3c:	02010413          	addi	s0,sp,32
80004f40:	fea42623          	sw	a0,-20(s0)
    while (1) {
        //uart_puts("-----------Task 257-----------\n");
        uart_puts("Task 257 priority = 50 \n");
80004f44:	8000a7b7          	lui	a5,0x8000a
80004f48:	fb878513          	addi	a0,a5,-72 # 80009fb8 <_memory_end+0xf8009fb8>
80004f4c:	fadfb0ef          	jal	ra,80000ef8 <uart_puts>
        task_yield();
80004f50:	c4dfc0ef          	jal	ra,80001b9c <task_yield>
        uart_puts("Task 257 priority = 50 \n");
80004f54:	ff1ff06f          	j	80004f44 <user_task257+0x14>

80004f58 <user_task258>:
        //uart_puts("return Task 6 \n");
    }
}

void user_task258(void *p) {
80004f58:	fe010113          	addi	sp,sp,-32
80004f5c:	00112e23          	sw	ra,28(sp)
80004f60:	00812c23          	sw	s0,24(sp)
80004f64:	02010413          	addi	s0,sp,32
80004f68:	fea42623          	sw	a0,-20(s0)
    while (1) {
        //uart_puts("-----------Task 258-----------\n");
        uart_puts("Task 258 priority = 24 \n");
80004f6c:	8000a7b7          	lui	a5,0x8000a
80004f70:	fd478513          	addi	a0,a5,-44 # 80009fd4 <_memory_end+0xf8009fd4>
80004f74:	f85fb0ef          	jal	ra,80000ef8 <uart_puts>
        task_yield();
80004f78:	c25fc0ef          	jal	ra,80001b9c <task_yield>
        uart_puts("Task 258 priority = 24 \n");
80004f7c:	ff1ff06f          	j	80004f6c <user_task258+0x14>

80004f80 <user_task259>:
        //uart_puts("return Task 30 \n");
    }
}

void user_task259(void *p) {
80004f80:	fe010113          	addi	sp,sp,-32
80004f84:	00112e23          	sw	ra,28(sp)
80004f88:	00812c23          	sw	s0,24(sp)
80004f8c:	02010413          	addi	s0,sp,32
80004f90:	fea42623          	sw	a0,-20(s0)
    while (1) {
        //uart_puts("-----------Task 259-----------\n");
        uart_puts("Task 259 priority = 28 \n");
80004f94:	8000a7b7          	lui	a5,0x8000a
80004f98:	ff078513          	addi	a0,a5,-16 # 80009ff0 <_memory_end+0xf8009ff0>
80004f9c:	f5dfb0ef          	jal	ra,80000ef8 <uart_puts>
        task_yield();
80004fa0:	bfdfc0ef          	jal	ra,80001b9c <task_yield>
        uart_puts("Task 259 priority = 28 \n");
80004fa4:	ff1ff06f          	j	80004f94 <user_task259+0x14>

80004fa8 <user_task260>:
        //uart_puts("return Task 1 \n");
    }
}

void user_task260(void *p) {
80004fa8:	fe010113          	addi	sp,sp,-32
80004fac:	00112e23          	sw	ra,28(sp)
80004fb0:	00812c23          	sw	s0,24(sp)
80004fb4:	02010413          	addi	s0,sp,32
80004fb8:	fea42623          	sw	a0,-20(s0)
    while (1) {
        //uart_puts("-----------Task 260-----------\n");
        uart_puts("Task 260 priority = 202 \n");
80004fbc:	8000a7b7          	lui	a5,0x8000a
80004fc0:	00c78513          	addi	a0,a5,12 # 8000a00c <_memory_end+0xf800a00c>
80004fc4:	f35fb0ef          	jal	ra,80000ef8 <uart_puts>
        task_yield();
80004fc8:	bd5fc0ef          	jal	ra,80001b9c <task_yield>
        uart_puts("Task 260 priority = 202 \n");
80004fcc:	ff1ff06f          	j	80004fbc <user_task260+0x14>

80004fd0 <user_task261>:
        //uart_puts("return Task 28 \n");
    }
}

void user_task261(void *p) {
80004fd0:	fe010113          	addi	sp,sp,-32
80004fd4:	00112e23          	sw	ra,28(sp)
80004fd8:	00812c23          	sw	s0,24(sp)
80004fdc:	02010413          	addi	s0,sp,32
80004fe0:	fea42623          	sw	a0,-20(s0)
    while (1) {
        //uart_puts("-----------Task 261-----------\n");
        uart_puts("Task 261 priority = 144 \n");
80004fe4:	8000a7b7          	lui	a5,0x8000a
80004fe8:	02878513          	addi	a0,a5,40 # 8000a028 <_memory_end+0xf800a028>
80004fec:	f0dfb0ef          	jal	ra,80000ef8 <uart_puts>
        task_yield();
80004ff0:	badfc0ef          	jal	ra,80001b9c <task_yield>
        uart_puts("Task 261 priority = 144 \n");
80004ff4:	ff1ff06f          	j	80004fe4 <user_task261+0x14>

80004ff8 <user_task262>:
        //uart_puts("return Task 35 \n");
    }
}

void user_task262(void *p) {
80004ff8:	fe010113          	addi	sp,sp,-32
80004ffc:	00112e23          	sw	ra,28(sp)
80005000:	00812c23          	sw	s0,24(sp)
80005004:	02010413          	addi	s0,sp,32
80005008:	fea42623          	sw	a0,-20(s0)
    while (1) {
        //uart_puts("-----------Task 262-----------\n");
        uart_puts("Task 262 priority = 82 \n");
8000500c:	8000a7b7          	lui	a5,0x8000a
80005010:	04478513          	addi	a0,a5,68 # 8000a044 <_memory_end+0xf800a044>
80005014:	ee5fb0ef          	jal	ra,80000ef8 <uart_puts>
        task_yield();
80005018:	b85fc0ef          	jal	ra,80001b9c <task_yield>
        uart_puts("Task 262 priority = 82 \n");
8000501c:	ff1ff06f          	j	8000500c <user_task262+0x14>

80005020 <user_task263>:
        //uart_puts("return Task 17 \n");
    }
}

void user_task263(void *p) {
80005020:	fe010113          	addi	sp,sp,-32
80005024:	00112e23          	sw	ra,28(sp)
80005028:	00812c23          	sw	s0,24(sp)
8000502c:	02010413          	addi	s0,sp,32
80005030:	fea42623          	sw	a0,-20(s0)
    while (1) {
        //uart_puts("-----------Task 263-----------\n");
        uart_puts("Task 263 priority = 34 \n");
80005034:	8000a7b7          	lui	a5,0x8000a
80005038:	06078513          	addi	a0,a5,96 # 8000a060 <_memory_end+0xf800a060>
8000503c:	ebdfb0ef          	jal	ra,80000ef8 <uart_puts>
        task_yield();
80005040:	b5dfc0ef          	jal	ra,80001b9c <task_yield>
        uart_puts("Task 263 priority = 34 \n");
80005044:	ff1ff06f          	j	80005034 <user_task263+0x14>

80005048 <user_task264>:
        //uart_puts("return Task 17 \n");
    }
}

void user_task264(void *p) {
80005048:	fe010113          	addi	sp,sp,-32
8000504c:	00112e23          	sw	ra,28(sp)
80005050:	00812c23          	sw	s0,24(sp)
80005054:	02010413          	addi	s0,sp,32
80005058:	fea42623          	sw	a0,-20(s0)
    while (1) {
        //uart_puts("-----------Task 264-----------\n");
        uart_puts("Task 264 priority = 59 \n");
8000505c:	8000a7b7          	lui	a5,0x8000a
80005060:	07c78513          	addi	a0,a5,124 # 8000a07c <_memory_end+0xf800a07c>
80005064:	e95fb0ef          	jal	ra,80000ef8 <uart_puts>
        task_yield();
80005068:	b35fc0ef          	jal	ra,80001b9c <task_yield>
        uart_puts("Task 264 priority = 59 \n");
8000506c:	ff1ff06f          	j	8000505c <user_task264+0x14>

80005070 <user_task265>:
        //uart_puts("return Task 46 \n");
    }
}

void user_task265(void *p) {
80005070:	fe010113          	addi	sp,sp,-32
80005074:	00112e23          	sw	ra,28(sp)
80005078:	00812c23          	sw	s0,24(sp)
8000507c:	02010413          	addi	s0,sp,32
80005080:	fea42623          	sw	a0,-20(s0)
    while (1) {
        //uart_puts("-----------Task 265-----------\n");
        uart_puts("Task 265 priority = 154 \n");
80005084:	8000a7b7          	lui	a5,0x8000a
80005088:	09878513          	addi	a0,a5,152 # 8000a098 <_memory_end+0xf800a098>
8000508c:	e6dfb0ef          	jal	ra,80000ef8 <uart_puts>
        task_yield();
80005090:	b0dfc0ef          	jal	ra,80001b9c <task_yield>
        uart_puts("Task 265 priority = 154 \n");
80005094:	ff1ff06f          	j	80005084 <user_task265+0x14>

80005098 <user_task266>:
        //uart_puts("return Task 8 \n");
    }
}

void user_task266(void *p) {
80005098:	fe010113          	addi	sp,sp,-32
8000509c:	00112e23          	sw	ra,28(sp)
800050a0:	00812c23          	sw	s0,24(sp)
800050a4:	02010413          	addi	s0,sp,32
800050a8:	fea42623          	sw	a0,-20(s0)
    while (1) {
        //uart_puts("-----------Task 266-----------\n");
        uart_puts("Task 266 priority = 209 \n");
800050ac:	8000a7b7          	lui	a5,0x8000a
800050b0:	0b478513          	addi	a0,a5,180 # 8000a0b4 <_memory_end+0xf800a0b4>
800050b4:	e45fb0ef          	jal	ra,80000ef8 <uart_puts>
        task_yield();
800050b8:	ae5fc0ef          	jal	ra,80001b9c <task_yield>
        uart_puts("Task 266 priority = 209 \n");
800050bc:	ff1ff06f          	j	800050ac <user_task266+0x14>

800050c0 <user_task267>:
        //uart_puts("return Task 28 \n");
    }
}

void user_task267(void *p) {
800050c0:	fe010113          	addi	sp,sp,-32
800050c4:	00112e23          	sw	ra,28(sp)
800050c8:	00812c23          	sw	s0,24(sp)
800050cc:	02010413          	addi	s0,sp,32
800050d0:	fea42623          	sw	a0,-20(s0)
    while (1) {
        //uart_puts("-----------Task 267-----------\n");
        uart_puts("Task 267 priority = 206 \n");
800050d4:	8000a7b7          	lui	a5,0x8000a
800050d8:	0d078513          	addi	a0,a5,208 # 8000a0d0 <_memory_end+0xf800a0d0>
800050dc:	e1dfb0ef          	jal	ra,80000ef8 <uart_puts>
        task_yield();
800050e0:	abdfc0ef          	jal	ra,80001b9c <task_yield>
        uart_puts("Task 267 priority = 206 \n");
800050e4:	ff1ff06f          	j	800050d4 <user_task267+0x14>

800050e8 <user_task268>:
        //uart_puts("return Task 18 \n");
    }
}

void user_task268(void *p) {
800050e8:	fe010113          	addi	sp,sp,-32
800050ec:	00112e23          	sw	ra,28(sp)
800050f0:	00812c23          	sw	s0,24(sp)
800050f4:	02010413          	addi	s0,sp,32
800050f8:	fea42623          	sw	a0,-20(s0)
    while (1) {
        //uart_puts("-----------Task 268-----------\n");
        uart_puts("Task 268 priority = 71 \n");
800050fc:	8000a7b7          	lui	a5,0x8000a
80005100:	0ec78513          	addi	a0,a5,236 # 8000a0ec <_memory_end+0xf800a0ec>
80005104:	df5fb0ef          	jal	ra,80000ef8 <uart_puts>
        task_yield();
80005108:	a95fc0ef          	jal	ra,80001b9c <task_yield>
        uart_puts("Task 268 priority = 71 \n");
8000510c:	ff1ff06f          	j	800050fc <user_task268+0x14>

80005110 <user_task269>:
        //uart_puts("return Task 17 \n");
    }
}

void user_task269(void *p) {
80005110:	fe010113          	addi	sp,sp,-32
80005114:	00112e23          	sw	ra,28(sp)
80005118:	00812c23          	sw	s0,24(sp)
8000511c:	02010413          	addi	s0,sp,32
80005120:	fea42623          	sw	a0,-20(s0)
    while (1) {
        //uart_puts("-----------Task 269-----------\n");
        uart_puts("Task 269 priority = 250 \n");
80005124:	8000a7b7          	lui	a5,0x8000a
80005128:	10878513          	addi	a0,a5,264 # 8000a108 <_memory_end+0xf800a108>
8000512c:	dcdfb0ef          	jal	ra,80000ef8 <uart_puts>
        task_yield();
80005130:	a6dfc0ef          	jal	ra,80001b9c <task_yield>
        uart_puts("Task 269 priority = 250 \n");
80005134:	ff1ff06f          	j	80005124 <user_task269+0x14>

80005138 <user_task270>:
        //uart_puts("return Task 13 \n");
    }
}

void user_task270(void *p) {
80005138:	fe010113          	addi	sp,sp,-32
8000513c:	00112e23          	sw	ra,28(sp)
80005140:	00812c23          	sw	s0,24(sp)
80005144:	02010413          	addi	s0,sp,32
80005148:	fea42623          	sw	a0,-20(s0)
    while (1) {
        //uart_puts("-----------Task 270-----------\n");
        uart_puts("Task 270 priority = 185 \n");
8000514c:	8000a7b7          	lui	a5,0x8000a
80005150:	12478513          	addi	a0,a5,292 # 8000a124 <_memory_end+0xf800a124>
80005154:	da5fb0ef          	jal	ra,80000ef8 <uart_puts>
        task_yield();
80005158:	a45fc0ef          	jal	ra,80001b9c <task_yield>
        uart_puts("Task 270 priority = 185 \n");
8000515c:	ff1ff06f          	j	8000514c <user_task270+0x14>

80005160 <user_task271>:
        //uart_puts("return Task 12 \n");
    }
}

void user_task271(void *p) {
80005160:	fe010113          	addi	sp,sp,-32
80005164:	00112e23          	sw	ra,28(sp)
80005168:	00812c23          	sw	s0,24(sp)
8000516c:	02010413          	addi	s0,sp,32
80005170:	fea42623          	sw	a0,-20(s0)
    while (1) {
        //uart_puts("-----------Task 271-----------\n");
        uart_puts("Task 271 priority = 174 \n");
80005174:	8000a7b7          	lui	a5,0x8000a
80005178:	14078513          	addi	a0,a5,320 # 8000a140 <_memory_end+0xf800a140>
8000517c:	d7dfb0ef          	jal	ra,80000ef8 <uart_puts>
        task_yield();
80005180:	a1dfc0ef          	jal	ra,80001b9c <task_yield>
        uart_puts("Task 271 priority = 174 \n");
80005184:	ff1ff06f          	j	80005174 <user_task271+0x14>

80005188 <user_task272>:
        //uart_puts("return Task 44 \n");
    }
}

void user_task272(void *p) {
80005188:	fe010113          	addi	sp,sp,-32
8000518c:	00112e23          	sw	ra,28(sp)
80005190:	00812c23          	sw	s0,24(sp)
80005194:	02010413          	addi	s0,sp,32
80005198:	fea42623          	sw	a0,-20(s0)
    while (1) {
        //uart_puts("-----------Task 272-----------\n");
        uart_puts("Task 272 priority = 190 \n");
8000519c:	8000a7b7          	lui	a5,0x8000a
800051a0:	15c78513          	addi	a0,a5,348 # 8000a15c <_memory_end+0xf800a15c>
800051a4:	d55fb0ef          	jal	ra,80000ef8 <uart_puts>
        task_yield();
800051a8:	9f5fc0ef          	jal	ra,80001b9c <task_yield>
        uart_puts("Task 272 priority = 190 \n");
800051ac:	ff1ff06f          	j	8000519c <user_task272+0x14>

800051b0 <user_task273>:
        //uart_puts("return Task 23 \n");
    }
}

void user_task273(void *p) {
800051b0:	fe010113          	addi	sp,sp,-32
800051b4:	00112e23          	sw	ra,28(sp)
800051b8:	00812c23          	sw	s0,24(sp)
800051bc:	02010413          	addi	s0,sp,32
800051c0:	fea42623          	sw	a0,-20(s0)
    while (1) {
        //uart_puts("-----------Task 273-----------\n");
        uart_puts("Task 273 priority = 212 \n");
800051c4:	8000a7b7          	lui	a5,0x8000a
800051c8:	17878513          	addi	a0,a5,376 # 8000a178 <_memory_end+0xf800a178>
800051cc:	d2dfb0ef          	jal	ra,80000ef8 <uart_puts>
        task_yield();
800051d0:	9cdfc0ef          	jal	ra,80001b9c <task_yield>
        uart_puts("Task 273 priority = 212 \n");
800051d4:	ff1ff06f          	j	800051c4 <user_task273+0x14>

800051d8 <user_task274>:
        //uart_puts("return Task 16 \n");
    }
}

void user_task274(void *p) {
800051d8:	fe010113          	addi	sp,sp,-32
800051dc:	00112e23          	sw	ra,28(sp)
800051e0:	00812c23          	sw	s0,24(sp)
800051e4:	02010413          	addi	s0,sp,32
800051e8:	fea42623          	sw	a0,-20(s0)
    while (1) {
        //uart_puts("-----------Task 274-----------\n");
        uart_puts("Task 274 priority = 192 \n");
800051ec:	8000a7b7          	lui	a5,0x8000a
800051f0:	19478513          	addi	a0,a5,404 # 8000a194 <_memory_end+0xf800a194>
800051f4:	d05fb0ef          	jal	ra,80000ef8 <uart_puts>
        task_yield();
800051f8:	9a5fc0ef          	jal	ra,80001b9c <task_yield>
        uart_puts("Task 274 priority = 192 \n");
800051fc:	ff1ff06f          	j	800051ec <user_task274+0x14>

80005200 <user_task275>:
        //uart_puts("return Task 29 \n");
    }
}

void user_task275(void *p) {
80005200:	fe010113          	addi	sp,sp,-32
80005204:	00112e23          	sw	ra,28(sp)
80005208:	00812c23          	sw	s0,24(sp)
8000520c:	02010413          	addi	s0,sp,32
80005210:	fea42623          	sw	a0,-20(s0)
    while (1) {
        //uart_puts("-----------Task 275-----------\n");
        uart_puts("Task 275 priority = 21 \n");
80005214:	8000a7b7          	lui	a5,0x8000a
80005218:	1b078513          	addi	a0,a5,432 # 8000a1b0 <_memory_end+0xf800a1b0>
8000521c:	cddfb0ef          	jal	ra,80000ef8 <uart_puts>
        task_yield();
80005220:	97dfc0ef          	jal	ra,80001b9c <task_yield>
        uart_puts("Task 275 priority = 21 \n");
80005224:	ff1ff06f          	j	80005214 <user_task275+0x14>

80005228 <user_task276>:
        //uart_puts("return Task 37 \n");
    }
}

void user_task276(void *p) {
80005228:	fe010113          	addi	sp,sp,-32
8000522c:	00112e23          	sw	ra,28(sp)
80005230:	00812c23          	sw	s0,24(sp)
80005234:	02010413          	addi	s0,sp,32
80005238:	fea42623          	sw	a0,-20(s0)
    while (1) {
        //uart_puts("-----------Task 276-----------\n");
        uart_puts("Task 276 priority = 193 \n");
8000523c:	8000a7b7          	lui	a5,0x8000a
80005240:	1cc78513          	addi	a0,a5,460 # 8000a1cc <_memory_end+0xf800a1cc>
80005244:	cb5fb0ef          	jal	ra,80000ef8 <uart_puts>
        task_yield();
80005248:	955fc0ef          	jal	ra,80001b9c <task_yield>
        uart_puts("Task 276 priority = 193 \n");
8000524c:	ff1ff06f          	j	8000523c <user_task276+0x14>

80005250 <user_task277>:
        //uart_puts("return Task 49 \n");
    }
}

void user_task277(void *p) {
80005250:	fe010113          	addi	sp,sp,-32
80005254:	00112e23          	sw	ra,28(sp)
80005258:	00812c23          	sw	s0,24(sp)
8000525c:	02010413          	addi	s0,sp,32
80005260:	fea42623          	sw	a0,-20(s0)
    while (1) {
        //uart_puts("-----------Task 277-----------\n");
        uart_puts("Task 277 priority = 244 \n");
80005264:	8000a7b7          	lui	a5,0x8000a
80005268:	1e878513          	addi	a0,a5,488 # 8000a1e8 <_memory_end+0xf800a1e8>
8000526c:	c8dfb0ef          	jal	ra,80000ef8 <uart_puts>
        task_yield();
80005270:	92dfc0ef          	jal	ra,80001b9c <task_yield>
        uart_puts("Task 277 priority = 244 \n");
80005274:	ff1ff06f          	j	80005264 <user_task277+0x14>

80005278 <user_task278>:
        //uart_puts("return Task 30 \n");
    }
}

void user_task278(void *p) {
80005278:	fe010113          	addi	sp,sp,-32
8000527c:	00112e23          	sw	ra,28(sp)
80005280:	00812c23          	sw	s0,24(sp)
80005284:	02010413          	addi	s0,sp,32
80005288:	fea42623          	sw	a0,-20(s0)
    while (1) {
        //uart_puts("-----------Task 278-----------\n");
        uart_puts("Task 278 priority = 253 \n");
8000528c:	8000a7b7          	lui	a5,0x8000a
80005290:	20478513          	addi	a0,a5,516 # 8000a204 <_memory_end+0xf800a204>
80005294:	c65fb0ef          	jal	ra,80000ef8 <uart_puts>
        task_yield();
80005298:	905fc0ef          	jal	ra,80001b9c <task_yield>
        uart_puts("Task 278 priority = 253 \n");
8000529c:	ff1ff06f          	j	8000528c <user_task278+0x14>

800052a0 <user_task279>:
        //uart_puts("return Task 35 \n");
    }
}

void user_task279(void *p) {
800052a0:	fe010113          	addi	sp,sp,-32
800052a4:	00112e23          	sw	ra,28(sp)
800052a8:	00812c23          	sw	s0,24(sp)
800052ac:	02010413          	addi	s0,sp,32
800052b0:	fea42623          	sw	a0,-20(s0)
    while (1) {
        //uart_puts("-----------Task 279-----------\n");
        uart_puts("Task 279 priority = 40 \n");
800052b4:	8000a7b7          	lui	a5,0x8000a
800052b8:	22078513          	addi	a0,a5,544 # 8000a220 <_memory_end+0xf800a220>
800052bc:	c3dfb0ef          	jal	ra,80000ef8 <uart_puts>
        task_yield();
800052c0:	8ddfc0ef          	jal	ra,80001b9c <task_yield>
        uart_puts("Task 279 priority = 40 \n");
800052c4:	ff1ff06f          	j	800052b4 <user_task279+0x14>

800052c8 <user_task280>:
        //uart_puts("return Task 19 \n");
    }
}

void user_task280(void *p) {
800052c8:	fe010113          	addi	sp,sp,-32
800052cc:	00112e23          	sw	ra,28(sp)
800052d0:	00812c23          	sw	s0,24(sp)
800052d4:	02010413          	addi	s0,sp,32
800052d8:	fea42623          	sw	a0,-20(s0)
    while (1) {
        //uart_puts("-----------Task 280-----------\n");
        uart_puts("Task 280 priority = 239 \n");
800052dc:	8000a7b7          	lui	a5,0x8000a
800052e0:	23c78513          	addi	a0,a5,572 # 8000a23c <_memory_end+0xf800a23c>
800052e4:	c15fb0ef          	jal	ra,80000ef8 <uart_puts>
        task_yield();
800052e8:	8b5fc0ef          	jal	ra,80001b9c <task_yield>
        uart_puts("Task 280 priority = 239 \n");
800052ec:	ff1ff06f          	j	800052dc <user_task280+0x14>

800052f0 <loadTasks>:
        //uart_puts("return Task 6 \n");
    }
}

void loadTasks(void) {
800052f0:	b9010113          	addi	sp,sp,-1136
800052f4:	46112623          	sw	ra,1132(sp)
800052f8:	46812423          	sw	s0,1128(sp)
800052fc:	47010413          	addi	s0,sp,1136
    taskCB_t *task1, *task2, *task3, *task4, *task5, *task6, *task7, *task8, *task9, *task10, *task11, *task12, *task13, *task14, *task15, *task16, *task17, *task18, *task19, *task20, *task21, *task22, *task23, *task24, *task25, *task26, *task27, *task28, *task29, *task30, *task31, *task32, *task33, *task34, *task35, *task36, *task37, *task38, *task39, *task40, *task41, *task42, *task43, *task44, *task45, *task46, *task47, *task48, *task49, *task50, *task51, *task52, *task53, *task54, *task55, *task56, *task57, *task58, *task59, *task60, *task61, *task62, *task63, *task64, *task65, *task66, *task67, *task68, *task69, *task70, *task71, *task72, *task73, *task74, *task75, *task76, *task77, *task78, *task79, *task80, *task81, *task82, *task83, *task84, *task85, *task86, *task87, *task88, *task89, *task90, *task91, *task92, *task93, *task94, *task95, *task96, *task97, *task98, *task99, *task100, *task101, *task102, *task103, *task104, *task105, *task106, *task107, *task108, *task109, *task110, *task111, *task112, *task113, *task114, *task115, *task116, *task117, *task118, *task119, *task120, *task121, *task122, *task123, *task124, *task125, *task126, *task127, *task128, *task129, *task130, *task131, *task132, *task133, *task134, *task135, *task136, *task137, *task138, *task139, *task140, *task141, *task142, *task143, *task144, *task145, *task146, *task147, *task148, *task149, *task150, *task151, *task152, *task153, *task154, *task155, *task156, *task157, *task158, *task159, *task160, *task161, *task162, *task163, *task164, *task165, *task166, *task167, *task168, *task169, *task170, *task171, *task172, *task173, *task174, *task175, *task176, *task177, *task178, *task179, *task180, *task181, *task182, *task183, *task184, *task185, *task186, *task187, *task188, *task189, *task190, *task191, *task192, *task193, *task194, *task195, *task196, *task197, *task198, *task199, *task200, *task201, *task202, *task203, *task204, *task205, *task206, *task207, *task208, *task209, *task210, *task211, *task212, *task213, *task214, *task215, *task216, *task217, *task218, *task219, *task220, *task221, *task222, *task223, *task224, *task225, *task226, *task227, *task228, *task229, *task230, *task231, *task232, *task233, *task234, *task235, *task236, *task237, *task238, *task239, *task240, *task241, *task242, *task243, *task244, *task245, *task246, *task247, *task248, *task249, *task250, *task251, *task252, *task253, *task254, *task255, *task256, *task257, *task258, *task259, *task260, *task261, *task262, *task263, *task264, *task265, *task266, *task267, *task268, *task269, *task270, *task271, *task272, *task273, *task274, *task275, *task276, *task277, *task278, *task279, *task280;
    task1 = task_create("task1" , user_task1 , NULL, 1024, 81);
80005300:	05100713          	li	a4,81
80005304:	40000693          	li	a3,1024
80005308:	00000613          	li	a2,0
8000530c:	800027b7          	lui	a5,0x80002
80005310:	73078593          	addi	a1,a5,1840 # 80002730 <_memory_end+0xf8002730>
80005314:	8000a7b7          	lui	a5,0x8000a
80005318:	25878513          	addi	a0,a5,600 # 8000a258 <_memory_end+0xf800a258>
8000531c:	d0cfc0ef          	jal	ra,80001828 <task_create>
80005320:	fea42623          	sw	a0,-20(s0)
    task2 = task_create("task2" , user_task2 , NULL, 1024, 78);
80005324:	04e00713          	li	a4,78
80005328:	40000693          	li	a3,1024
8000532c:	00000613          	li	a2,0
80005330:	800027b7          	lui	a5,0x80002
80005334:	75878593          	addi	a1,a5,1880 # 80002758 <_memory_end+0xf8002758>
80005338:	8000a7b7          	lui	a5,0x8000a
8000533c:	26078513          	addi	a0,a5,608 # 8000a260 <_memory_end+0xf800a260>
80005340:	ce8fc0ef          	jal	ra,80001828 <task_create>
80005344:	fea42423          	sw	a0,-24(s0)
    task3 = task_create("task3" , user_task3 , NULL, 1024, 163);
80005348:	0a300713          	li	a4,163
8000534c:	40000693          	li	a3,1024
80005350:	00000613          	li	a2,0
80005354:	800027b7          	lui	a5,0x80002
80005358:	78078593          	addi	a1,a5,1920 # 80002780 <_memory_end+0xf8002780>
8000535c:	8000a7b7          	lui	a5,0x8000a
80005360:	26878513          	addi	a0,a5,616 # 8000a268 <_memory_end+0xf800a268>
80005364:	cc4fc0ef          	jal	ra,80001828 <task_create>
80005368:	fea42223          	sw	a0,-28(s0)
    task4 = task_create("task4" , user_task4 , NULL, 1024, 117);
8000536c:	07500713          	li	a4,117
80005370:	40000693          	li	a3,1024
80005374:	00000613          	li	a2,0
80005378:	800027b7          	lui	a5,0x80002
8000537c:	7a878593          	addi	a1,a5,1960 # 800027a8 <_memory_end+0xf80027a8>
80005380:	8000a7b7          	lui	a5,0x8000a
80005384:	27078513          	addi	a0,a5,624 # 8000a270 <_memory_end+0xf800a270>
80005388:	ca0fc0ef          	jal	ra,80001828 <task_create>
8000538c:	fea42023          	sw	a0,-32(s0)
    task5 = task_create("task5" , user_task5 , NULL, 1024, 188);
80005390:	0bc00713          	li	a4,188
80005394:	40000693          	li	a3,1024
80005398:	00000613          	li	a2,0
8000539c:	800027b7          	lui	a5,0x80002
800053a0:	7d078593          	addi	a1,a5,2000 # 800027d0 <_memory_end+0xf80027d0>
800053a4:	8000a7b7          	lui	a5,0x8000a
800053a8:	27878513          	addi	a0,a5,632 # 8000a278 <_memory_end+0xf800a278>
800053ac:	c7cfc0ef          	jal	ra,80001828 <task_create>
800053b0:	fca42e23          	sw	a0,-36(s0)
    task6 = task_create("task6" , user_task6 , NULL, 1024, 102);
800053b4:	06600713          	li	a4,102
800053b8:	40000693          	li	a3,1024
800053bc:	00000613          	li	a2,0
800053c0:	800027b7          	lui	a5,0x80002
800053c4:	7f878593          	addi	a1,a5,2040 # 800027f8 <_memory_end+0xf80027f8>
800053c8:	8000a7b7          	lui	a5,0x8000a
800053cc:	28078513          	addi	a0,a5,640 # 8000a280 <_memory_end+0xf800a280>
800053d0:	c58fc0ef          	jal	ra,80001828 <task_create>
800053d4:	fca42c23          	sw	a0,-40(s0)
    task7 = task_create("task7" , user_task7 , NULL, 1024, 220);
800053d8:	0dc00713          	li	a4,220
800053dc:	40000693          	li	a3,1024
800053e0:	00000613          	li	a2,0
800053e4:	800037b7          	lui	a5,0x80003
800053e8:	82078593          	addi	a1,a5,-2016 # 80002820 <_memory_end+0xf8002820>
800053ec:	8000a7b7          	lui	a5,0x8000a
800053f0:	28878513          	addi	a0,a5,648 # 8000a288 <_memory_end+0xf800a288>
800053f4:	c34fc0ef          	jal	ra,80001828 <task_create>
800053f8:	fca42a23          	sw	a0,-44(s0)
    task8 = task_create("task8" , user_task8 , NULL, 1024, 45);
800053fc:	02d00713          	li	a4,45
80005400:	40000693          	li	a3,1024
80005404:	00000613          	li	a2,0
80005408:	800037b7          	lui	a5,0x80003
8000540c:	84878593          	addi	a1,a5,-1976 # 80002848 <_memory_end+0xf8002848>
80005410:	8000a7b7          	lui	a5,0x8000a
80005414:	29078513          	addi	a0,a5,656 # 8000a290 <_memory_end+0xf800a290>
80005418:	c10fc0ef          	jal	ra,80001828 <task_create>
8000541c:	fca42823          	sw	a0,-48(s0)
    task9 = task_create("task9" , user_task9 , NULL, 1024, 166);
80005420:	0a600713          	li	a4,166
80005424:	40000693          	li	a3,1024
80005428:	00000613          	li	a2,0
8000542c:	800037b7          	lui	a5,0x80003
80005430:	87078593          	addi	a1,a5,-1936 # 80002870 <_memory_end+0xf8002870>
80005434:	8000a7b7          	lui	a5,0x8000a
80005438:	29878513          	addi	a0,a5,664 # 8000a298 <_memory_end+0xf800a298>
8000543c:	becfc0ef          	jal	ra,80001828 <task_create>
80005440:	fca42623          	sw	a0,-52(s0)
    task10 = task_create("task10" , user_task10 , NULL, 1024, 64);
80005444:	04000713          	li	a4,64
80005448:	40000693          	li	a3,1024
8000544c:	00000613          	li	a2,0
80005450:	800037b7          	lui	a5,0x80003
80005454:	89878593          	addi	a1,a5,-1896 # 80002898 <_memory_end+0xf8002898>
80005458:	8000a7b7          	lui	a5,0x8000a
8000545c:	2a078513          	addi	a0,a5,672 # 8000a2a0 <_memory_end+0xf800a2a0>
80005460:	bc8fc0ef          	jal	ra,80001828 <task_create>
80005464:	fca42423          	sw	a0,-56(s0)
    task11 = task_create("task11" , user_task11 , NULL, 1024, 143);
80005468:	08f00713          	li	a4,143
8000546c:	40000693          	li	a3,1024
80005470:	00000613          	li	a2,0
80005474:	800037b7          	lui	a5,0x80003
80005478:	8c078593          	addi	a1,a5,-1856 # 800028c0 <_memory_end+0xf80028c0>
8000547c:	8000a7b7          	lui	a5,0x8000a
80005480:	2a878513          	addi	a0,a5,680 # 8000a2a8 <_memory_end+0xf800a2a8>
80005484:	ba4fc0ef          	jal	ra,80001828 <task_create>
80005488:	fca42223          	sw	a0,-60(s0)
    task12 = task_create("task12" , user_task12 , NULL, 1024, 71);
8000548c:	04700713          	li	a4,71
80005490:	40000693          	li	a3,1024
80005494:	00000613          	li	a2,0
80005498:	800037b7          	lui	a5,0x80003
8000549c:	8e878593          	addi	a1,a5,-1816 # 800028e8 <_memory_end+0xf80028e8>
800054a0:	8000a7b7          	lui	a5,0x8000a
800054a4:	2b078513          	addi	a0,a5,688 # 8000a2b0 <_memory_end+0xf800a2b0>
800054a8:	b80fc0ef          	jal	ra,80001828 <task_create>
800054ac:	fca42023          	sw	a0,-64(s0)
    task13 = task_create("task13" , user_task13 , NULL, 1024, 60);
800054b0:	03c00713          	li	a4,60
800054b4:	40000693          	li	a3,1024
800054b8:	00000613          	li	a2,0
800054bc:	800037b7          	lui	a5,0x80003
800054c0:	91078593          	addi	a1,a5,-1776 # 80002910 <_memory_end+0xf8002910>
800054c4:	8000a7b7          	lui	a5,0x8000a
800054c8:	2b878513          	addi	a0,a5,696 # 8000a2b8 <_memory_end+0xf800a2b8>
800054cc:	b5cfc0ef          	jal	ra,80001828 <task_create>
800054d0:	faa42e23          	sw	a0,-68(s0)
    task14 = task_create("task14" , user_task14 , NULL, 1024, 168);
800054d4:	0a800713          	li	a4,168
800054d8:	40000693          	li	a3,1024
800054dc:	00000613          	li	a2,0
800054e0:	800037b7          	lui	a5,0x80003
800054e4:	93878593          	addi	a1,a5,-1736 # 80002938 <_memory_end+0xf8002938>
800054e8:	8000a7b7          	lui	a5,0x8000a
800054ec:	2c078513          	addi	a0,a5,704 # 8000a2c0 <_memory_end+0xf800a2c0>
800054f0:	b38fc0ef          	jal	ra,80001828 <task_create>
800054f4:	faa42c23          	sw	a0,-72(s0)
    task15 = task_create("task15" , user_task15 , NULL, 1024, 9);
800054f8:	00900713          	li	a4,9
800054fc:	40000693          	li	a3,1024
80005500:	00000613          	li	a2,0
80005504:	800037b7          	lui	a5,0x80003
80005508:	96078593          	addi	a1,a5,-1696 # 80002960 <_memory_end+0xf8002960>
8000550c:	8000a7b7          	lui	a5,0x8000a
80005510:	2c878513          	addi	a0,a5,712 # 8000a2c8 <_memory_end+0xf800a2c8>
80005514:	b14fc0ef          	jal	ra,80001828 <task_create>
80005518:	faa42a23          	sw	a0,-76(s0)
    task16 = task_create("task16" , user_task16 , NULL, 1024, 125);
8000551c:	07d00713          	li	a4,125
80005520:	40000693          	li	a3,1024
80005524:	00000613          	li	a2,0
80005528:	800037b7          	lui	a5,0x80003
8000552c:	98878593          	addi	a1,a5,-1656 # 80002988 <_memory_end+0xf8002988>
80005530:	8000a7b7          	lui	a5,0x8000a
80005534:	2d078513          	addi	a0,a5,720 # 8000a2d0 <_memory_end+0xf800a2d0>
80005538:	af0fc0ef          	jal	ra,80001828 <task_create>
8000553c:	faa42823          	sw	a0,-80(s0)
    task17 = task_create("task17" , user_task17 , NULL, 1024, 96);
80005540:	06000713          	li	a4,96
80005544:	40000693          	li	a3,1024
80005548:	00000613          	li	a2,0
8000554c:	800037b7          	lui	a5,0x80003
80005550:	9b078593          	addi	a1,a5,-1616 # 800029b0 <_memory_end+0xf80029b0>
80005554:	8000a7b7          	lui	a5,0x8000a
80005558:	2d878513          	addi	a0,a5,728 # 8000a2d8 <_memory_end+0xf800a2d8>
8000555c:	accfc0ef          	jal	ra,80001828 <task_create>
80005560:	faa42623          	sw	a0,-84(s0)
    task18 = task_create("task18" , user_task18 , NULL, 1024, 3);
80005564:	00300713          	li	a4,3
80005568:	40000693          	li	a3,1024
8000556c:	00000613          	li	a2,0
80005570:	800037b7          	lui	a5,0x80003
80005574:	9d878593          	addi	a1,a5,-1576 # 800029d8 <_memory_end+0xf80029d8>
80005578:	8000a7b7          	lui	a5,0x8000a
8000557c:	2e078513          	addi	a0,a5,736 # 8000a2e0 <_memory_end+0xf800a2e0>
80005580:	aa8fc0ef          	jal	ra,80001828 <task_create>
80005584:	faa42423          	sw	a0,-88(s0)
    task19 = task_create("task19" , user_task19 , NULL, 1024, 205);
80005588:	0cd00713          	li	a4,205
8000558c:	40000693          	li	a3,1024
80005590:	00000613          	li	a2,0
80005594:	800037b7          	lui	a5,0x80003
80005598:	a0078593          	addi	a1,a5,-1536 # 80002a00 <_memory_end+0xf8002a00>
8000559c:	8000a7b7          	lui	a5,0x8000a
800055a0:	2e878513          	addi	a0,a5,744 # 8000a2e8 <_memory_end+0xf800a2e8>
800055a4:	a84fc0ef          	jal	ra,80001828 <task_create>
800055a8:	faa42223          	sw	a0,-92(s0)
    task20 = task_create("task20" , user_task20 , NULL, 1024, 105);
800055ac:	06900713          	li	a4,105
800055b0:	40000693          	li	a3,1024
800055b4:	00000613          	li	a2,0
800055b8:	800037b7          	lui	a5,0x80003
800055bc:	a2878593          	addi	a1,a5,-1496 # 80002a28 <_memory_end+0xf8002a28>
800055c0:	8000a7b7          	lui	a5,0x8000a
800055c4:	2f078513          	addi	a0,a5,752 # 8000a2f0 <_memory_end+0xf800a2f0>
800055c8:	a60fc0ef          	jal	ra,80001828 <task_create>
800055cc:	faa42023          	sw	a0,-96(s0)
    task21 = task_create("task21" , user_task21 , NULL, 1024, 251);
800055d0:	0fb00713          	li	a4,251
800055d4:	40000693          	li	a3,1024
800055d8:	00000613          	li	a2,0
800055dc:	800037b7          	lui	a5,0x80003
800055e0:	a5078593          	addi	a1,a5,-1456 # 80002a50 <_memory_end+0xf8002a50>
800055e4:	8000a7b7          	lui	a5,0x8000a
800055e8:	2f878513          	addi	a0,a5,760 # 8000a2f8 <_memory_end+0xf800a2f8>
800055ec:	a3cfc0ef          	jal	ra,80001828 <task_create>
800055f0:	f8a42e23          	sw	a0,-100(s0)
    task22 = task_create("task22" , user_task22 , NULL, 1024, 229);
800055f4:	0e500713          	li	a4,229
800055f8:	40000693          	li	a3,1024
800055fc:	00000613          	li	a2,0
80005600:	800037b7          	lui	a5,0x80003
80005604:	a7878593          	addi	a1,a5,-1416 # 80002a78 <_memory_end+0xf8002a78>
80005608:	8000a7b7          	lui	a5,0x8000a
8000560c:	30078513          	addi	a0,a5,768 # 8000a300 <_memory_end+0xf800a300>
80005610:	a18fc0ef          	jal	ra,80001828 <task_create>
80005614:	f8a42c23          	sw	a0,-104(s0)
    task23 = task_create("task23" , user_task23 , NULL, 1024, 77);
80005618:	04d00713          	li	a4,77
8000561c:	40000693          	li	a3,1024
80005620:	00000613          	li	a2,0
80005624:	800037b7          	lui	a5,0x80003
80005628:	aa078593          	addi	a1,a5,-1376 # 80002aa0 <_memory_end+0xf8002aa0>
8000562c:	8000a7b7          	lui	a5,0x8000a
80005630:	30878513          	addi	a0,a5,776 # 8000a308 <_memory_end+0xf800a308>
80005634:	9f4fc0ef          	jal	ra,80001828 <task_create>
80005638:	f8a42a23          	sw	a0,-108(s0)
    task24 = task_create("task24" , user_task24 , NULL, 1024, 124);
8000563c:	07c00713          	li	a4,124
80005640:	40000693          	li	a3,1024
80005644:	00000613          	li	a2,0
80005648:	800037b7          	lui	a5,0x80003
8000564c:	ac878593          	addi	a1,a5,-1336 # 80002ac8 <_memory_end+0xf8002ac8>
80005650:	8000a7b7          	lui	a5,0x8000a
80005654:	31078513          	addi	a0,a5,784 # 8000a310 <_memory_end+0xf800a310>
80005658:	9d0fc0ef          	jal	ra,80001828 <task_create>
8000565c:	f8a42823          	sw	a0,-112(s0)
    task25 = task_create("task25" , user_task25 , NULL, 1024, 63);
80005660:	03f00713          	li	a4,63
80005664:	40000693          	li	a3,1024
80005668:	00000613          	li	a2,0
8000566c:	800037b7          	lui	a5,0x80003
80005670:	af078593          	addi	a1,a5,-1296 # 80002af0 <_memory_end+0xf8002af0>
80005674:	8000a7b7          	lui	a5,0x8000a
80005678:	31878513          	addi	a0,a5,792 # 8000a318 <_memory_end+0xf800a318>
8000567c:	9acfc0ef          	jal	ra,80001828 <task_create>
80005680:	f8a42623          	sw	a0,-116(s0)
    task26 = task_create("task26" , user_task26 , NULL, 1024, 158);
80005684:	09e00713          	li	a4,158
80005688:	40000693          	li	a3,1024
8000568c:	00000613          	li	a2,0
80005690:	800037b7          	lui	a5,0x80003
80005694:	b1878593          	addi	a1,a5,-1256 # 80002b18 <_memory_end+0xf8002b18>
80005698:	8000a7b7          	lui	a5,0x8000a
8000569c:	32078513          	addi	a0,a5,800 # 8000a320 <_memory_end+0xf800a320>
800056a0:	988fc0ef          	jal	ra,80001828 <task_create>
800056a4:	f8a42423          	sw	a0,-120(s0)
    task27 = task_create("task27" , user_task27 , NULL, 1024, 53);
800056a8:	03500713          	li	a4,53
800056ac:	40000693          	li	a3,1024
800056b0:	00000613          	li	a2,0
800056b4:	800037b7          	lui	a5,0x80003
800056b8:	b4078593          	addi	a1,a5,-1216 # 80002b40 <_memory_end+0xf8002b40>
800056bc:	8000a7b7          	lui	a5,0x8000a
800056c0:	32878513          	addi	a0,a5,808 # 8000a328 <_memory_end+0xf800a328>
800056c4:	964fc0ef          	jal	ra,80001828 <task_create>
800056c8:	f8a42223          	sw	a0,-124(s0)
    task28 = task_create("task28" , user_task28 , NULL, 1024, 94);
800056cc:	05e00713          	li	a4,94
800056d0:	40000693          	li	a3,1024
800056d4:	00000613          	li	a2,0
800056d8:	800037b7          	lui	a5,0x80003
800056dc:	b6878593          	addi	a1,a5,-1176 # 80002b68 <_memory_end+0xf8002b68>
800056e0:	8000a7b7          	lui	a5,0x8000a
800056e4:	33078513          	addi	a0,a5,816 # 8000a330 <_memory_end+0xf800a330>
800056e8:	940fc0ef          	jal	ra,80001828 <task_create>
800056ec:	f8a42023          	sw	a0,-128(s0)
    task29 = task_create("task29" , user_task29 , NULL, 1024, 103);
800056f0:	06700713          	li	a4,103
800056f4:	40000693          	li	a3,1024
800056f8:	00000613          	li	a2,0
800056fc:	800037b7          	lui	a5,0x80003
80005700:	b9078593          	addi	a1,a5,-1136 # 80002b90 <_memory_end+0xf8002b90>
80005704:	8000a7b7          	lui	a5,0x8000a
80005708:	33878513          	addi	a0,a5,824 # 8000a338 <_memory_end+0xf800a338>
8000570c:	91cfc0ef          	jal	ra,80001828 <task_create>
80005710:	f6a42e23          	sw	a0,-132(s0)
    task30 = task_create("task30" , user_task30 , NULL, 1024, 221);
80005714:	0dd00713          	li	a4,221
80005718:	40000693          	li	a3,1024
8000571c:	00000613          	li	a2,0
80005720:	800037b7          	lui	a5,0x80003
80005724:	bb878593          	addi	a1,a5,-1096 # 80002bb8 <_memory_end+0xf8002bb8>
80005728:	8000a7b7          	lui	a5,0x8000a
8000572c:	34078513          	addi	a0,a5,832 # 8000a340 <_memory_end+0xf800a340>
80005730:	8f8fc0ef          	jal	ra,80001828 <task_create>
80005734:	f6a42c23          	sw	a0,-136(s0)
    task31 = task_create("task31" , user_task31 , NULL, 1024, 127);
80005738:	07f00713          	li	a4,127
8000573c:	40000693          	li	a3,1024
80005740:	00000613          	li	a2,0
80005744:	800037b7          	lui	a5,0x80003
80005748:	be078593          	addi	a1,a5,-1056 # 80002be0 <_memory_end+0xf8002be0>
8000574c:	8000a7b7          	lui	a5,0x8000a
80005750:	34878513          	addi	a0,a5,840 # 8000a348 <_memory_end+0xf800a348>
80005754:	8d4fc0ef          	jal	ra,80001828 <task_create>
80005758:	f6a42a23          	sw	a0,-140(s0)
    task32 = task_create("task32" , user_task32 , NULL, 1024, 151);
8000575c:	09700713          	li	a4,151
80005760:	40000693          	li	a3,1024
80005764:	00000613          	li	a2,0
80005768:	800037b7          	lui	a5,0x80003
8000576c:	c0878593          	addi	a1,a5,-1016 # 80002c08 <_memory_end+0xf8002c08>
80005770:	8000a7b7          	lui	a5,0x8000a
80005774:	35078513          	addi	a0,a5,848 # 8000a350 <_memory_end+0xf800a350>
80005778:	8b0fc0ef          	jal	ra,80001828 <task_create>
8000577c:	f6a42823          	sw	a0,-144(s0)
    task33 = task_create("task33" , user_task33 , NULL, 1024, 47);
80005780:	02f00713          	li	a4,47
80005784:	40000693          	li	a3,1024
80005788:	00000613          	li	a2,0
8000578c:	800037b7          	lui	a5,0x80003
80005790:	c3078593          	addi	a1,a5,-976 # 80002c30 <_memory_end+0xf8002c30>
80005794:	8000a7b7          	lui	a5,0x8000a
80005798:	35878513          	addi	a0,a5,856 # 8000a358 <_memory_end+0xf800a358>
8000579c:	88cfc0ef          	jal	ra,80001828 <task_create>
800057a0:	f6a42623          	sw	a0,-148(s0)
    task34 = task_create("task34" , user_task34 , NULL, 1024, 30);
800057a4:	01e00713          	li	a4,30
800057a8:	40000693          	li	a3,1024
800057ac:	00000613          	li	a2,0
800057b0:	800037b7          	lui	a5,0x80003
800057b4:	c5878593          	addi	a1,a5,-936 # 80002c58 <_memory_end+0xf8002c58>
800057b8:	8000a7b7          	lui	a5,0x8000a
800057bc:	36078513          	addi	a0,a5,864 # 8000a360 <_memory_end+0xf800a360>
800057c0:	868fc0ef          	jal	ra,80001828 <task_create>
800057c4:	f6a42423          	sw	a0,-152(s0)
    task35 = task_create("task35" , user_task35 , NULL, 1024, 72);
800057c8:	04800713          	li	a4,72
800057cc:	40000693          	li	a3,1024
800057d0:	00000613          	li	a2,0
800057d4:	800037b7          	lui	a5,0x80003
800057d8:	c8078593          	addi	a1,a5,-896 # 80002c80 <_memory_end+0xf8002c80>
800057dc:	8000a7b7          	lui	a5,0x8000a
800057e0:	36878513          	addi	a0,a5,872 # 8000a368 <_memory_end+0xf800a368>
800057e4:	844fc0ef          	jal	ra,80001828 <task_create>
800057e8:	f6a42223          	sw	a0,-156(s0)
    task36 = task_create("task36" , user_task36 , NULL, 1024, 92);
800057ec:	05c00713          	li	a4,92
800057f0:	40000693          	li	a3,1024
800057f4:	00000613          	li	a2,0
800057f8:	800037b7          	lui	a5,0x80003
800057fc:	ca878593          	addi	a1,a5,-856 # 80002ca8 <_memory_end+0xf8002ca8>
80005800:	8000a7b7          	lui	a5,0x8000a
80005804:	37078513          	addi	a0,a5,880 # 8000a370 <_memory_end+0xf800a370>
80005808:	820fc0ef          	jal	ra,80001828 <task_create>
8000580c:	f6a42023          	sw	a0,-160(s0)
    task37 = task_create("task37" , user_task37 , NULL, 1024, 129);
80005810:	08100713          	li	a4,129
80005814:	40000693          	li	a3,1024
80005818:	00000613          	li	a2,0
8000581c:	800037b7          	lui	a5,0x80003
80005820:	cd078593          	addi	a1,a5,-816 # 80002cd0 <_memory_end+0xf8002cd0>
80005824:	8000a7b7          	lui	a5,0x8000a
80005828:	37878513          	addi	a0,a5,888 # 8000a378 <_memory_end+0xf800a378>
8000582c:	ffdfb0ef          	jal	ra,80001828 <task_create>
80005830:	f4a42e23          	sw	a0,-164(s0)
    task38 = task_create("task38" , user_task38 , NULL, 1024, 16);
80005834:	01000713          	li	a4,16
80005838:	40000693          	li	a3,1024
8000583c:	00000613          	li	a2,0
80005840:	800037b7          	lui	a5,0x80003
80005844:	cf878593          	addi	a1,a5,-776 # 80002cf8 <_memory_end+0xf8002cf8>
80005848:	8000a7b7          	lui	a5,0x8000a
8000584c:	38078513          	addi	a0,a5,896 # 8000a380 <_memory_end+0xf800a380>
80005850:	fd9fb0ef          	jal	ra,80001828 <task_create>
80005854:	f4a42c23          	sw	a0,-168(s0)
    task39 = task_create("task39" , user_task39 , NULL, 1024, 59);
80005858:	03b00713          	li	a4,59
8000585c:	40000693          	li	a3,1024
80005860:	00000613          	li	a2,0
80005864:	800037b7          	lui	a5,0x80003
80005868:	d2078593          	addi	a1,a5,-736 # 80002d20 <_memory_end+0xf8002d20>
8000586c:	8000a7b7          	lui	a5,0x8000a
80005870:	38878513          	addi	a0,a5,904 # 8000a388 <_memory_end+0xf800a388>
80005874:	fb5fb0ef          	jal	ra,80001828 <task_create>
80005878:	f4a42a23          	sw	a0,-172(s0)
    task40 = task_create("task40" , user_task40 , NULL, 1024, 77);
8000587c:	04d00713          	li	a4,77
80005880:	40000693          	li	a3,1024
80005884:	00000613          	li	a2,0
80005888:	800037b7          	lui	a5,0x80003
8000588c:	d4878593          	addi	a1,a5,-696 # 80002d48 <_memory_end+0xf8002d48>
80005890:	8000a7b7          	lui	a5,0x8000a
80005894:	39078513          	addi	a0,a5,912 # 8000a390 <_memory_end+0xf800a390>
80005898:	f91fb0ef          	jal	ra,80001828 <task_create>
8000589c:	f4a42823          	sw	a0,-176(s0)
    task41 = task_create("task41" , user_task41 , NULL, 1024, 55);
800058a0:	03700713          	li	a4,55
800058a4:	40000693          	li	a3,1024
800058a8:	00000613          	li	a2,0
800058ac:	800037b7          	lui	a5,0x80003
800058b0:	d7078593          	addi	a1,a5,-656 # 80002d70 <_memory_end+0xf8002d70>
800058b4:	8000a7b7          	lui	a5,0x8000a
800058b8:	39878513          	addi	a0,a5,920 # 8000a398 <_memory_end+0xf800a398>
800058bc:	f6dfb0ef          	jal	ra,80001828 <task_create>
800058c0:	f4a42623          	sw	a0,-180(s0)
    task42 = task_create("task42" , user_task42 , NULL, 1024, 62);
800058c4:	03e00713          	li	a4,62
800058c8:	40000693          	li	a3,1024
800058cc:	00000613          	li	a2,0
800058d0:	800037b7          	lui	a5,0x80003
800058d4:	d9878593          	addi	a1,a5,-616 # 80002d98 <_memory_end+0xf8002d98>
800058d8:	8000a7b7          	lui	a5,0x8000a
800058dc:	3a078513          	addi	a0,a5,928 # 8000a3a0 <_memory_end+0xf800a3a0>
800058e0:	f49fb0ef          	jal	ra,80001828 <task_create>
800058e4:	f4a42423          	sw	a0,-184(s0)
    task43 = task_create("task43" , user_task43 , NULL, 1024, 158);
800058e8:	09e00713          	li	a4,158
800058ec:	40000693          	li	a3,1024
800058f0:	00000613          	li	a2,0
800058f4:	800037b7          	lui	a5,0x80003
800058f8:	dc078593          	addi	a1,a5,-576 # 80002dc0 <_memory_end+0xf8002dc0>
800058fc:	8000a7b7          	lui	a5,0x8000a
80005900:	3a878513          	addi	a0,a5,936 # 8000a3a8 <_memory_end+0xf800a3a8>
80005904:	f25fb0ef          	jal	ra,80001828 <task_create>
80005908:	f4a42223          	sw	a0,-188(s0)
    task44 = task_create("task44" , user_task44 , NULL, 1024, 73);
8000590c:	04900713          	li	a4,73
80005910:	40000693          	li	a3,1024
80005914:	00000613          	li	a2,0
80005918:	800037b7          	lui	a5,0x80003
8000591c:	de878593          	addi	a1,a5,-536 # 80002de8 <_memory_end+0xf8002de8>
80005920:	8000a7b7          	lui	a5,0x8000a
80005924:	3b078513          	addi	a0,a5,944 # 8000a3b0 <_memory_end+0xf800a3b0>
80005928:	f01fb0ef          	jal	ra,80001828 <task_create>
8000592c:	f4a42023          	sw	a0,-192(s0)
    task45 = task_create("task45" , user_task45 , NULL, 1024, 160);
80005930:	0a000713          	li	a4,160
80005934:	40000693          	li	a3,1024
80005938:	00000613          	li	a2,0
8000593c:	800037b7          	lui	a5,0x80003
80005940:	e1078593          	addi	a1,a5,-496 # 80002e10 <_memory_end+0xf8002e10>
80005944:	8000a7b7          	lui	a5,0x8000a
80005948:	3b878513          	addi	a0,a5,952 # 8000a3b8 <_memory_end+0xf800a3b8>
8000594c:	eddfb0ef          	jal	ra,80001828 <task_create>
80005950:	f2a42e23          	sw	a0,-196(s0)
    task46 = task_create("task46" , user_task46 , NULL, 1024, 45);
80005954:	02d00713          	li	a4,45
80005958:	40000693          	li	a3,1024
8000595c:	00000613          	li	a2,0
80005960:	800037b7          	lui	a5,0x80003
80005964:	e3878593          	addi	a1,a5,-456 # 80002e38 <_memory_end+0xf8002e38>
80005968:	8000a7b7          	lui	a5,0x8000a
8000596c:	3c078513          	addi	a0,a5,960 # 8000a3c0 <_memory_end+0xf800a3c0>
80005970:	eb9fb0ef          	jal	ra,80001828 <task_create>
80005974:	f2a42c23          	sw	a0,-200(s0)
    task47 = task_create("task47" , user_task47 , NULL, 1024, 164);
80005978:	0a400713          	li	a4,164
8000597c:	40000693          	li	a3,1024
80005980:	00000613          	li	a2,0
80005984:	800037b7          	lui	a5,0x80003
80005988:	e6078593          	addi	a1,a5,-416 # 80002e60 <_memory_end+0xf8002e60>
8000598c:	8000a7b7          	lui	a5,0x8000a
80005990:	3c878513          	addi	a0,a5,968 # 8000a3c8 <_memory_end+0xf800a3c8>
80005994:	e95fb0ef          	jal	ra,80001828 <task_create>
80005998:	f2a42a23          	sw	a0,-204(s0)
    task48 = task_create("task48" , user_task48 , NULL, 1024, 211);
8000599c:	0d300713          	li	a4,211
800059a0:	40000693          	li	a3,1024
800059a4:	00000613          	li	a2,0
800059a8:	800037b7          	lui	a5,0x80003
800059ac:	e8878593          	addi	a1,a5,-376 # 80002e88 <_memory_end+0xf8002e88>
800059b0:	8000a7b7          	lui	a5,0x8000a
800059b4:	3d078513          	addi	a0,a5,976 # 8000a3d0 <_memory_end+0xf800a3d0>
800059b8:	e71fb0ef          	jal	ra,80001828 <task_create>
800059bc:	f2a42823          	sw	a0,-208(s0)
    task49 = task_create("task49" , user_task49 , NULL, 1024, 41);
800059c0:	02900713          	li	a4,41
800059c4:	40000693          	li	a3,1024
800059c8:	00000613          	li	a2,0
800059cc:	800037b7          	lui	a5,0x80003
800059d0:	eb078593          	addi	a1,a5,-336 # 80002eb0 <_memory_end+0xf8002eb0>
800059d4:	8000a7b7          	lui	a5,0x8000a
800059d8:	3d878513          	addi	a0,a5,984 # 8000a3d8 <_memory_end+0xf800a3d8>
800059dc:	e4dfb0ef          	jal	ra,80001828 <task_create>
800059e0:	f2a42623          	sw	a0,-212(s0)
    task50 = task_create("task50" , user_task50 , NULL, 1024, 222);
800059e4:	0de00713          	li	a4,222
800059e8:	40000693          	li	a3,1024
800059ec:	00000613          	li	a2,0
800059f0:	800037b7          	lui	a5,0x80003
800059f4:	ed878593          	addi	a1,a5,-296 # 80002ed8 <_memory_end+0xf8002ed8>
800059f8:	8000a7b7          	lui	a5,0x8000a
800059fc:	3e078513          	addi	a0,a5,992 # 8000a3e0 <_memory_end+0xf800a3e0>
80005a00:	e29fb0ef          	jal	ra,80001828 <task_create>
80005a04:	f2a42423          	sw	a0,-216(s0)
    task51 = task_create("task51" , user_task51 , NULL, 1024, 63);
80005a08:	03f00713          	li	a4,63
80005a0c:	40000693          	li	a3,1024
80005a10:	00000613          	li	a2,0
80005a14:	800037b7          	lui	a5,0x80003
80005a18:	f0078593          	addi	a1,a5,-256 # 80002f00 <_memory_end+0xf8002f00>
80005a1c:	8000a7b7          	lui	a5,0x8000a
80005a20:	3e878513          	addi	a0,a5,1000 # 8000a3e8 <_memory_end+0xf800a3e8>
80005a24:	e05fb0ef          	jal	ra,80001828 <task_create>
80005a28:	f2a42223          	sw	a0,-220(s0)
    task52 = task_create("task52" , user_task52 , NULL, 1024, 221);
80005a2c:	0dd00713          	li	a4,221
80005a30:	40000693          	li	a3,1024
80005a34:	00000613          	li	a2,0
80005a38:	800037b7          	lui	a5,0x80003
80005a3c:	f2878593          	addi	a1,a5,-216 # 80002f28 <_memory_end+0xf8002f28>
80005a40:	8000a7b7          	lui	a5,0x8000a
80005a44:	3f078513          	addi	a0,a5,1008 # 8000a3f0 <_memory_end+0xf800a3f0>
80005a48:	de1fb0ef          	jal	ra,80001828 <task_create>
80005a4c:	f2a42023          	sw	a0,-224(s0)
    task53 = task_create("task53" , user_task53 , NULL, 1024, 225);
80005a50:	0e100713          	li	a4,225
80005a54:	40000693          	li	a3,1024
80005a58:	00000613          	li	a2,0
80005a5c:	800037b7          	lui	a5,0x80003
80005a60:	f5078593          	addi	a1,a5,-176 # 80002f50 <_memory_end+0xf8002f50>
80005a64:	8000a7b7          	lui	a5,0x8000a
80005a68:	3f878513          	addi	a0,a5,1016 # 8000a3f8 <_memory_end+0xf800a3f8>
80005a6c:	dbdfb0ef          	jal	ra,80001828 <task_create>
80005a70:	f0a42e23          	sw	a0,-228(s0)
    task54 = task_create("task54" , user_task54 , NULL, 1024, 42);
80005a74:	02a00713          	li	a4,42
80005a78:	40000693          	li	a3,1024
80005a7c:	00000613          	li	a2,0
80005a80:	800037b7          	lui	a5,0x80003
80005a84:	f7878593          	addi	a1,a5,-136 # 80002f78 <_memory_end+0xf8002f78>
80005a88:	8000a7b7          	lui	a5,0x8000a
80005a8c:	40078513          	addi	a0,a5,1024 # 8000a400 <_memory_end+0xf800a400>
80005a90:	d99fb0ef          	jal	ra,80001828 <task_create>
80005a94:	f0a42c23          	sw	a0,-232(s0)
    task55 = task_create("task55" , user_task55 , NULL, 1024, 49);
80005a98:	03100713          	li	a4,49
80005a9c:	40000693          	li	a3,1024
80005aa0:	00000613          	li	a2,0
80005aa4:	800037b7          	lui	a5,0x80003
80005aa8:	fa078593          	addi	a1,a5,-96 # 80002fa0 <_memory_end+0xf8002fa0>
80005aac:	8000a7b7          	lui	a5,0x8000a
80005ab0:	40878513          	addi	a0,a5,1032 # 8000a408 <_memory_end+0xf800a408>
80005ab4:	d75fb0ef          	jal	ra,80001828 <task_create>
80005ab8:	f0a42a23          	sw	a0,-236(s0)
    task56 = task_create("task56" , user_task56 , NULL, 1024, 36);
80005abc:	02400713          	li	a4,36
80005ac0:	40000693          	li	a3,1024
80005ac4:	00000613          	li	a2,0
80005ac8:	800037b7          	lui	a5,0x80003
80005acc:	fc878593          	addi	a1,a5,-56 # 80002fc8 <_memory_end+0xf8002fc8>
80005ad0:	8000a7b7          	lui	a5,0x8000a
80005ad4:	41078513          	addi	a0,a5,1040 # 8000a410 <_memory_end+0xf800a410>
80005ad8:	d51fb0ef          	jal	ra,80001828 <task_create>
80005adc:	f0a42823          	sw	a0,-240(s0)
    task57 = task_create("task57" , user_task57 , NULL, 1024, 68);
80005ae0:	04400713          	li	a4,68
80005ae4:	40000693          	li	a3,1024
80005ae8:	00000613          	li	a2,0
80005aec:	800037b7          	lui	a5,0x80003
80005af0:	ff078593          	addi	a1,a5,-16 # 80002ff0 <_memory_end+0xf8002ff0>
80005af4:	8000a7b7          	lui	a5,0x8000a
80005af8:	41878513          	addi	a0,a5,1048 # 8000a418 <_memory_end+0xf800a418>
80005afc:	d2dfb0ef          	jal	ra,80001828 <task_create>
80005b00:	f0a42623          	sw	a0,-244(s0)
    task58 = task_create("task58" , user_task58 , NULL, 1024, 176);
80005b04:	0b000713          	li	a4,176
80005b08:	40000693          	li	a3,1024
80005b0c:	00000613          	li	a2,0
80005b10:	800037b7          	lui	a5,0x80003
80005b14:	01878593          	addi	a1,a5,24 # 80003018 <_memory_end+0xf8003018>
80005b18:	8000a7b7          	lui	a5,0x8000a
80005b1c:	42078513          	addi	a0,a5,1056 # 8000a420 <_memory_end+0xf800a420>
80005b20:	d09fb0ef          	jal	ra,80001828 <task_create>
80005b24:	f0a42423          	sw	a0,-248(s0)
    task59 = task_create("task59" , user_task59 , NULL, 1024, 93);
80005b28:	05d00713          	li	a4,93
80005b2c:	40000693          	li	a3,1024
80005b30:	00000613          	li	a2,0
80005b34:	800037b7          	lui	a5,0x80003
80005b38:	04078593          	addi	a1,a5,64 # 80003040 <_memory_end+0xf8003040>
80005b3c:	8000a7b7          	lui	a5,0x8000a
80005b40:	42878513          	addi	a0,a5,1064 # 8000a428 <_memory_end+0xf800a428>
80005b44:	ce5fb0ef          	jal	ra,80001828 <task_create>
80005b48:	f0a42223          	sw	a0,-252(s0)
    task60 = task_create("task60" , user_task60 , NULL, 1024, 149);
80005b4c:	09500713          	li	a4,149
80005b50:	40000693          	li	a3,1024
80005b54:	00000613          	li	a2,0
80005b58:	800037b7          	lui	a5,0x80003
80005b5c:	06878593          	addi	a1,a5,104 # 80003068 <_memory_end+0xf8003068>
80005b60:	8000a7b7          	lui	a5,0x8000a
80005b64:	43078513          	addi	a0,a5,1072 # 8000a430 <_memory_end+0xf800a430>
80005b68:	cc1fb0ef          	jal	ra,80001828 <task_create>
80005b6c:	f0a42023          	sw	a0,-256(s0)
    task61 = task_create("task61" , user_task61 , NULL, 1024, 154);
80005b70:	09a00713          	li	a4,154
80005b74:	40000693          	li	a3,1024
80005b78:	00000613          	li	a2,0
80005b7c:	800037b7          	lui	a5,0x80003
80005b80:	09078593          	addi	a1,a5,144 # 80003090 <_memory_end+0xf8003090>
80005b84:	8000a7b7          	lui	a5,0x8000a
80005b88:	43878513          	addi	a0,a5,1080 # 8000a438 <_memory_end+0xf800a438>
80005b8c:	c9dfb0ef          	jal	ra,80001828 <task_create>
80005b90:	eea42e23          	sw	a0,-260(s0)
    task62 = task_create("task62" , user_task62 , NULL, 1024, 95);
80005b94:	05f00713          	li	a4,95
80005b98:	40000693          	li	a3,1024
80005b9c:	00000613          	li	a2,0
80005ba0:	800037b7          	lui	a5,0x80003
80005ba4:	0b878593          	addi	a1,a5,184 # 800030b8 <_memory_end+0xf80030b8>
80005ba8:	8000a7b7          	lui	a5,0x8000a
80005bac:	44078513          	addi	a0,a5,1088 # 8000a440 <_memory_end+0xf800a440>
80005bb0:	c79fb0ef          	jal	ra,80001828 <task_create>
80005bb4:	eea42c23          	sw	a0,-264(s0)
    task63 = task_create("task63" , user_task63 , NULL, 1024, 195);
80005bb8:	0c300713          	li	a4,195
80005bbc:	40000693          	li	a3,1024
80005bc0:	00000613          	li	a2,0
80005bc4:	800037b7          	lui	a5,0x80003
80005bc8:	0e078593          	addi	a1,a5,224 # 800030e0 <_memory_end+0xf80030e0>
80005bcc:	8000a7b7          	lui	a5,0x8000a
80005bd0:	44878513          	addi	a0,a5,1096 # 8000a448 <_memory_end+0xf800a448>
80005bd4:	c55fb0ef          	jal	ra,80001828 <task_create>
80005bd8:	eea42a23          	sw	a0,-268(s0)
    task64 = task_create("task64" , user_task64 , NULL, 1024, 234);
80005bdc:	0ea00713          	li	a4,234
80005be0:	40000693          	li	a3,1024
80005be4:	00000613          	li	a2,0
80005be8:	800037b7          	lui	a5,0x80003
80005bec:	10878593          	addi	a1,a5,264 # 80003108 <_memory_end+0xf8003108>
80005bf0:	8000a7b7          	lui	a5,0x8000a
80005bf4:	45078513          	addi	a0,a5,1104 # 8000a450 <_memory_end+0xf800a450>
80005bf8:	c31fb0ef          	jal	ra,80001828 <task_create>
80005bfc:	eea42823          	sw	a0,-272(s0)
    task65 = task_create("task65" , user_task65 , NULL, 1024, 91);
80005c00:	05b00713          	li	a4,91
80005c04:	40000693          	li	a3,1024
80005c08:	00000613          	li	a2,0
80005c0c:	800037b7          	lui	a5,0x80003
80005c10:	13078593          	addi	a1,a5,304 # 80003130 <_memory_end+0xf8003130>
80005c14:	8000a7b7          	lui	a5,0x8000a
80005c18:	45878513          	addi	a0,a5,1112 # 8000a458 <_memory_end+0xf800a458>
80005c1c:	c0dfb0ef          	jal	ra,80001828 <task_create>
80005c20:	eea42623          	sw	a0,-276(s0)
    task66 = task_create("task66" , user_task66 , NULL, 1024, 67);
80005c24:	04300713          	li	a4,67
80005c28:	40000693          	li	a3,1024
80005c2c:	00000613          	li	a2,0
80005c30:	800037b7          	lui	a5,0x80003
80005c34:	15878593          	addi	a1,a5,344 # 80003158 <_memory_end+0xf8003158>
80005c38:	8000a7b7          	lui	a5,0x8000a
80005c3c:	46078513          	addi	a0,a5,1120 # 8000a460 <_memory_end+0xf800a460>
80005c40:	be9fb0ef          	jal	ra,80001828 <task_create>
80005c44:	eea42423          	sw	a0,-280(s0)
    task67 = task_create("task67" , user_task67 , NULL, 1024, 27);
80005c48:	01b00713          	li	a4,27
80005c4c:	40000693          	li	a3,1024
80005c50:	00000613          	li	a2,0
80005c54:	800037b7          	lui	a5,0x80003
80005c58:	18078593          	addi	a1,a5,384 # 80003180 <_memory_end+0xf8003180>
80005c5c:	8000a7b7          	lui	a5,0x8000a
80005c60:	46878513          	addi	a0,a5,1128 # 8000a468 <_memory_end+0xf800a468>
80005c64:	bc5fb0ef          	jal	ra,80001828 <task_create>
80005c68:	eea42223          	sw	a0,-284(s0)
    task68 = task_create("task68" , user_task68 , NULL, 1024, 109);
80005c6c:	06d00713          	li	a4,109
80005c70:	40000693          	li	a3,1024
80005c74:	00000613          	li	a2,0
80005c78:	800037b7          	lui	a5,0x80003
80005c7c:	1a878593          	addi	a1,a5,424 # 800031a8 <_memory_end+0xf80031a8>
80005c80:	8000a7b7          	lui	a5,0x8000a
80005c84:	47078513          	addi	a0,a5,1136 # 8000a470 <_memory_end+0xf800a470>
80005c88:	ba1fb0ef          	jal	ra,80001828 <task_create>
80005c8c:	eea42023          	sw	a0,-288(s0)
    task69 = task_create("task69" , user_task69 , NULL, 1024, 247);
80005c90:	0f700713          	li	a4,247
80005c94:	40000693          	li	a3,1024
80005c98:	00000613          	li	a2,0
80005c9c:	800037b7          	lui	a5,0x80003
80005ca0:	1d078593          	addi	a1,a5,464 # 800031d0 <_memory_end+0xf80031d0>
80005ca4:	8000a7b7          	lui	a5,0x8000a
80005ca8:	47878513          	addi	a0,a5,1144 # 8000a478 <_memory_end+0xf800a478>
80005cac:	b7dfb0ef          	jal	ra,80001828 <task_create>
80005cb0:	eca42e23          	sw	a0,-292(s0)
    task70 = task_create("task70" , user_task70 , NULL, 1024, 95);
80005cb4:	05f00713          	li	a4,95
80005cb8:	40000693          	li	a3,1024
80005cbc:	00000613          	li	a2,0
80005cc0:	800037b7          	lui	a5,0x80003
80005cc4:	1f878593          	addi	a1,a5,504 # 800031f8 <_memory_end+0xf80031f8>
80005cc8:	8000a7b7          	lui	a5,0x8000a
80005ccc:	48078513          	addi	a0,a5,1152 # 8000a480 <_memory_end+0xf800a480>
80005cd0:	b59fb0ef          	jal	ra,80001828 <task_create>
80005cd4:	eca42c23          	sw	a0,-296(s0)
    task71 = task_create("task71" , user_task71 , NULL, 1024, 154);
80005cd8:	09a00713          	li	a4,154
80005cdc:	40000693          	li	a3,1024
80005ce0:	00000613          	li	a2,0
80005ce4:	800037b7          	lui	a5,0x80003
80005ce8:	22078593          	addi	a1,a5,544 # 80003220 <_memory_end+0xf8003220>
80005cec:	8000a7b7          	lui	a5,0x8000a
80005cf0:	48878513          	addi	a0,a5,1160 # 8000a488 <_memory_end+0xf800a488>
80005cf4:	b35fb0ef          	jal	ra,80001828 <task_create>
80005cf8:	eca42a23          	sw	a0,-300(s0)
    task72 = task_create("task72" , user_task72 , NULL, 1024, 181);
80005cfc:	0b500713          	li	a4,181
80005d00:	40000693          	li	a3,1024
80005d04:	00000613          	li	a2,0
80005d08:	800037b7          	lui	a5,0x80003
80005d0c:	24878593          	addi	a1,a5,584 # 80003248 <_memory_end+0xf8003248>
80005d10:	8000a7b7          	lui	a5,0x8000a
80005d14:	49078513          	addi	a0,a5,1168 # 8000a490 <_memory_end+0xf800a490>
80005d18:	b11fb0ef          	jal	ra,80001828 <task_create>
80005d1c:	eca42823          	sw	a0,-304(s0)
    task73 = task_create("task73" , user_task73 , NULL, 1024, 148);
80005d20:	09400713          	li	a4,148
80005d24:	40000693          	li	a3,1024
80005d28:	00000613          	li	a2,0
80005d2c:	800037b7          	lui	a5,0x80003
80005d30:	27078593          	addi	a1,a5,624 # 80003270 <_memory_end+0xf8003270>
80005d34:	8000a7b7          	lui	a5,0x8000a
80005d38:	49878513          	addi	a0,a5,1176 # 8000a498 <_memory_end+0xf800a498>
80005d3c:	aedfb0ef          	jal	ra,80001828 <task_create>
80005d40:	eca42623          	sw	a0,-308(s0)
    task74 = task_create("task74" , user_task74 , NULL, 1024, 96);
80005d44:	06000713          	li	a4,96
80005d48:	40000693          	li	a3,1024
80005d4c:	00000613          	li	a2,0
80005d50:	800037b7          	lui	a5,0x80003
80005d54:	29878593          	addi	a1,a5,664 # 80003298 <_memory_end+0xf8003298>
80005d58:	8000a7b7          	lui	a5,0x8000a
80005d5c:	4a078513          	addi	a0,a5,1184 # 8000a4a0 <_memory_end+0xf800a4a0>
80005d60:	ac9fb0ef          	jal	ra,80001828 <task_create>
80005d64:	eca42423          	sw	a0,-312(s0)
    task75 = task_create("task75" , user_task75 , NULL, 1024, 23);
80005d68:	01700713          	li	a4,23
80005d6c:	40000693          	li	a3,1024
80005d70:	00000613          	li	a2,0
80005d74:	800037b7          	lui	a5,0x80003
80005d78:	2c078593          	addi	a1,a5,704 # 800032c0 <_memory_end+0xf80032c0>
80005d7c:	8000a7b7          	lui	a5,0x8000a
80005d80:	4a878513          	addi	a0,a5,1192 # 8000a4a8 <_memory_end+0xf800a4a8>
80005d84:	aa5fb0ef          	jal	ra,80001828 <task_create>
80005d88:	eca42223          	sw	a0,-316(s0)
    task76 = task_create("task76" , user_task76 , NULL, 1024, 248);
80005d8c:	0f800713          	li	a4,248
80005d90:	40000693          	li	a3,1024
80005d94:	00000613          	li	a2,0
80005d98:	800037b7          	lui	a5,0x80003
80005d9c:	2e878593          	addi	a1,a5,744 # 800032e8 <_memory_end+0xf80032e8>
80005da0:	8000a7b7          	lui	a5,0x8000a
80005da4:	4b078513          	addi	a0,a5,1200 # 8000a4b0 <_memory_end+0xf800a4b0>
80005da8:	a81fb0ef          	jal	ra,80001828 <task_create>
80005dac:	eca42023          	sw	a0,-320(s0)
    task77 = task_create("task77" , user_task77 , NULL, 1024, 193);
80005db0:	0c100713          	li	a4,193
80005db4:	40000693          	li	a3,1024
80005db8:	00000613          	li	a2,0
80005dbc:	800037b7          	lui	a5,0x80003
80005dc0:	31078593          	addi	a1,a5,784 # 80003310 <_memory_end+0xf8003310>
80005dc4:	8000a7b7          	lui	a5,0x8000a
80005dc8:	4b878513          	addi	a0,a5,1208 # 8000a4b8 <_memory_end+0xf800a4b8>
80005dcc:	a5dfb0ef          	jal	ra,80001828 <task_create>
80005dd0:	eaa42e23          	sw	a0,-324(s0)
    task78 = task_create("task78" , user_task78 , NULL, 1024, 200);
80005dd4:	0c800713          	li	a4,200
80005dd8:	40000693          	li	a3,1024
80005ddc:	00000613          	li	a2,0
80005de0:	800037b7          	lui	a5,0x80003
80005de4:	33878593          	addi	a1,a5,824 # 80003338 <_memory_end+0xf8003338>
80005de8:	8000a7b7          	lui	a5,0x8000a
80005dec:	4c078513          	addi	a0,a5,1216 # 8000a4c0 <_memory_end+0xf800a4c0>
80005df0:	a39fb0ef          	jal	ra,80001828 <task_create>
80005df4:	eaa42c23          	sw	a0,-328(s0)
    task79 = task_create("task79" , user_task79 , NULL, 1024, 126);
80005df8:	07e00713          	li	a4,126
80005dfc:	40000693          	li	a3,1024
80005e00:	00000613          	li	a2,0
80005e04:	800037b7          	lui	a5,0x80003
80005e08:	36078593          	addi	a1,a5,864 # 80003360 <_memory_end+0xf8003360>
80005e0c:	8000a7b7          	lui	a5,0x8000a
80005e10:	4c878513          	addi	a0,a5,1224 # 8000a4c8 <_memory_end+0xf800a4c8>
80005e14:	a15fb0ef          	jal	ra,80001828 <task_create>
80005e18:	eaa42a23          	sw	a0,-332(s0)
    task80 = task_create("task80" , user_task80 , NULL, 1024, 253);
80005e1c:	0fd00713          	li	a4,253
80005e20:	40000693          	li	a3,1024
80005e24:	00000613          	li	a2,0
80005e28:	800037b7          	lui	a5,0x80003
80005e2c:	38878593          	addi	a1,a5,904 # 80003388 <_memory_end+0xf8003388>
80005e30:	8000a7b7          	lui	a5,0x8000a
80005e34:	4d078513          	addi	a0,a5,1232 # 8000a4d0 <_memory_end+0xf800a4d0>
80005e38:	9f1fb0ef          	jal	ra,80001828 <task_create>
80005e3c:	eaa42823          	sw	a0,-336(s0)
    task81 = task_create("task81" , user_task81 , NULL, 1024, 117);
80005e40:	07500713          	li	a4,117
80005e44:	40000693          	li	a3,1024
80005e48:	00000613          	li	a2,0
80005e4c:	800037b7          	lui	a5,0x80003
80005e50:	3b078593          	addi	a1,a5,944 # 800033b0 <_memory_end+0xf80033b0>
80005e54:	8000a7b7          	lui	a5,0x8000a
80005e58:	4d878513          	addi	a0,a5,1240 # 8000a4d8 <_memory_end+0xf800a4d8>
80005e5c:	9cdfb0ef          	jal	ra,80001828 <task_create>
80005e60:	eaa42623          	sw	a0,-340(s0)
    task82 = task_create("task82" , user_task82 , NULL, 1024, 1);
80005e64:	00100713          	li	a4,1
80005e68:	40000693          	li	a3,1024
80005e6c:	00000613          	li	a2,0
80005e70:	800037b7          	lui	a5,0x80003
80005e74:	3d878593          	addi	a1,a5,984 # 800033d8 <_memory_end+0xf80033d8>
80005e78:	8000a7b7          	lui	a5,0x8000a
80005e7c:	4e078513          	addi	a0,a5,1248 # 8000a4e0 <_memory_end+0xf800a4e0>
80005e80:	9a9fb0ef          	jal	ra,80001828 <task_create>
80005e84:	eaa42423          	sw	a0,-344(s0)
    task83 = task_create("task83" , user_task83 , NULL, 1024, 158);
80005e88:	09e00713          	li	a4,158
80005e8c:	40000693          	li	a3,1024
80005e90:	00000613          	li	a2,0
80005e94:	800037b7          	lui	a5,0x80003
80005e98:	40078593          	addi	a1,a5,1024 # 80003400 <_memory_end+0xf8003400>
80005e9c:	8000a7b7          	lui	a5,0x8000a
80005ea0:	4e878513          	addi	a0,a5,1256 # 8000a4e8 <_memory_end+0xf800a4e8>
80005ea4:	985fb0ef          	jal	ra,80001828 <task_create>
80005ea8:	eaa42223          	sw	a0,-348(s0)
    task84 = task_create("task84" , user_task84 , NULL, 1024, 166);
80005eac:	0a600713          	li	a4,166
80005eb0:	40000693          	li	a3,1024
80005eb4:	00000613          	li	a2,0
80005eb8:	800037b7          	lui	a5,0x80003
80005ebc:	42878593          	addi	a1,a5,1064 # 80003428 <_memory_end+0xf8003428>
80005ec0:	8000a7b7          	lui	a5,0x8000a
80005ec4:	4f078513          	addi	a0,a5,1264 # 8000a4f0 <_memory_end+0xf800a4f0>
80005ec8:	961fb0ef          	jal	ra,80001828 <task_create>
80005ecc:	eaa42023          	sw	a0,-352(s0)
    task85 = task_create("task85" , user_task85 , NULL, 1024, 41);
80005ed0:	02900713          	li	a4,41
80005ed4:	40000693          	li	a3,1024
80005ed8:	00000613          	li	a2,0
80005edc:	800037b7          	lui	a5,0x80003
80005ee0:	45078593          	addi	a1,a5,1104 # 80003450 <_memory_end+0xf8003450>
80005ee4:	8000a7b7          	lui	a5,0x8000a
80005ee8:	4f878513          	addi	a0,a5,1272 # 8000a4f8 <_memory_end+0xf800a4f8>
80005eec:	93dfb0ef          	jal	ra,80001828 <task_create>
80005ef0:	e8a42e23          	sw	a0,-356(s0)
    task86 = task_create("task86" , user_task86 , NULL, 1024, 118);
80005ef4:	07600713          	li	a4,118
80005ef8:	40000693          	li	a3,1024
80005efc:	00000613          	li	a2,0
80005f00:	800037b7          	lui	a5,0x80003
80005f04:	47878593          	addi	a1,a5,1144 # 80003478 <_memory_end+0xf8003478>
80005f08:	8000a7b7          	lui	a5,0x8000a
80005f0c:	50078513          	addi	a0,a5,1280 # 8000a500 <_memory_end+0xf800a500>
80005f10:	919fb0ef          	jal	ra,80001828 <task_create>
80005f14:	e8a42c23          	sw	a0,-360(s0)
    task87 = task_create("task87" , user_task87 , NULL, 1024, 193);
80005f18:	0c100713          	li	a4,193
80005f1c:	40000693          	li	a3,1024
80005f20:	00000613          	li	a2,0
80005f24:	800037b7          	lui	a5,0x80003
80005f28:	4a078593          	addi	a1,a5,1184 # 800034a0 <_memory_end+0xf80034a0>
80005f2c:	8000a7b7          	lui	a5,0x8000a
80005f30:	50878513          	addi	a0,a5,1288 # 8000a508 <_memory_end+0xf800a508>
80005f34:	8f5fb0ef          	jal	ra,80001828 <task_create>
80005f38:	e8a42a23          	sw	a0,-364(s0)
    task88 = task_create("task88" , user_task88 , NULL, 1024, 89);
80005f3c:	05900713          	li	a4,89
80005f40:	40000693          	li	a3,1024
80005f44:	00000613          	li	a2,0
80005f48:	800037b7          	lui	a5,0x80003
80005f4c:	4c878593          	addi	a1,a5,1224 # 800034c8 <_memory_end+0xf80034c8>
80005f50:	8000a7b7          	lui	a5,0x8000a
80005f54:	51078513          	addi	a0,a5,1296 # 8000a510 <_memory_end+0xf800a510>
80005f58:	8d1fb0ef          	jal	ra,80001828 <task_create>
80005f5c:	e8a42823          	sw	a0,-368(s0)
    task89 = task_create("task89" , user_task89 , NULL, 1024, 224);
80005f60:	0e000713          	li	a4,224
80005f64:	40000693          	li	a3,1024
80005f68:	00000613          	li	a2,0
80005f6c:	800037b7          	lui	a5,0x80003
80005f70:	4f078593          	addi	a1,a5,1264 # 800034f0 <_memory_end+0xf80034f0>
80005f74:	8000a7b7          	lui	a5,0x8000a
80005f78:	51878513          	addi	a0,a5,1304 # 8000a518 <_memory_end+0xf800a518>
80005f7c:	8adfb0ef          	jal	ra,80001828 <task_create>
80005f80:	e8a42623          	sw	a0,-372(s0)
    task90 = task_create("task90" , user_task90 , NULL, 1024, 195);
80005f84:	0c300713          	li	a4,195
80005f88:	40000693          	li	a3,1024
80005f8c:	00000613          	li	a2,0
80005f90:	800037b7          	lui	a5,0x80003
80005f94:	51878593          	addi	a1,a5,1304 # 80003518 <_memory_end+0xf8003518>
80005f98:	8000a7b7          	lui	a5,0x8000a
80005f9c:	52078513          	addi	a0,a5,1312 # 8000a520 <_memory_end+0xf800a520>
80005fa0:	889fb0ef          	jal	ra,80001828 <task_create>
80005fa4:	e8a42423          	sw	a0,-376(s0)
    task91 = task_create("task91" , user_task91 , NULL, 1024, 70);
80005fa8:	04600713          	li	a4,70
80005fac:	40000693          	li	a3,1024
80005fb0:	00000613          	li	a2,0
80005fb4:	800037b7          	lui	a5,0x80003
80005fb8:	54078593          	addi	a1,a5,1344 # 80003540 <_memory_end+0xf8003540>
80005fbc:	8000a7b7          	lui	a5,0x8000a
80005fc0:	52878513          	addi	a0,a5,1320 # 8000a528 <_memory_end+0xf800a528>
80005fc4:	865fb0ef          	jal	ra,80001828 <task_create>
80005fc8:	e8a42223          	sw	a0,-380(s0)
    task92 = task_create("task92" , user_task92 , NULL, 1024, 173);
80005fcc:	0ad00713          	li	a4,173
80005fd0:	40000693          	li	a3,1024
80005fd4:	00000613          	li	a2,0
80005fd8:	800037b7          	lui	a5,0x80003
80005fdc:	56878593          	addi	a1,a5,1384 # 80003568 <_memory_end+0xf8003568>
80005fe0:	8000a7b7          	lui	a5,0x8000a
80005fe4:	53078513          	addi	a0,a5,1328 # 8000a530 <_memory_end+0xf800a530>
80005fe8:	841fb0ef          	jal	ra,80001828 <task_create>
80005fec:	e8a42023          	sw	a0,-384(s0)
    task93 = task_create("task93" , user_task93 , NULL, 1024, 129);
80005ff0:	08100713          	li	a4,129
80005ff4:	40000693          	li	a3,1024
80005ff8:	00000613          	li	a2,0
80005ffc:	800037b7          	lui	a5,0x80003
80006000:	59078593          	addi	a1,a5,1424 # 80003590 <_memory_end+0xf8003590>
80006004:	8000a7b7          	lui	a5,0x8000a
80006008:	53878513          	addi	a0,a5,1336 # 8000a538 <_memory_end+0xf800a538>
8000600c:	81dfb0ef          	jal	ra,80001828 <task_create>
80006010:	e6a42e23          	sw	a0,-388(s0)
    task94 = task_create("task94" , user_task94 , NULL, 1024, 104);
80006014:	06800713          	li	a4,104
80006018:	40000693          	li	a3,1024
8000601c:	00000613          	li	a2,0
80006020:	800037b7          	lui	a5,0x80003
80006024:	5b878593          	addi	a1,a5,1464 # 800035b8 <_memory_end+0xf80035b8>
80006028:	8000a7b7          	lui	a5,0x8000a
8000602c:	54078513          	addi	a0,a5,1344 # 8000a540 <_memory_end+0xf800a540>
80006030:	ff8fb0ef          	jal	ra,80001828 <task_create>
80006034:	e6a42c23          	sw	a0,-392(s0)
    task95 = task_create("task95" , user_task95 , NULL, 1024, 132);
80006038:	08400713          	li	a4,132
8000603c:	40000693          	li	a3,1024
80006040:	00000613          	li	a2,0
80006044:	800037b7          	lui	a5,0x80003
80006048:	5e078593          	addi	a1,a5,1504 # 800035e0 <_memory_end+0xf80035e0>
8000604c:	8000a7b7          	lui	a5,0x8000a
80006050:	54878513          	addi	a0,a5,1352 # 8000a548 <_memory_end+0xf800a548>
80006054:	fd4fb0ef          	jal	ra,80001828 <task_create>
80006058:	e6a42a23          	sw	a0,-396(s0)
    task96 = task_create("task96" , user_task96 , NULL, 1024, 85);
8000605c:	05500713          	li	a4,85
80006060:	40000693          	li	a3,1024
80006064:	00000613          	li	a2,0
80006068:	800037b7          	lui	a5,0x80003
8000606c:	60878593          	addi	a1,a5,1544 # 80003608 <_memory_end+0xf8003608>
80006070:	8000a7b7          	lui	a5,0x8000a
80006074:	55078513          	addi	a0,a5,1360 # 8000a550 <_memory_end+0xf800a550>
80006078:	fb0fb0ef          	jal	ra,80001828 <task_create>
8000607c:	e6a42823          	sw	a0,-400(s0)
    task97 = task_create("task97" , user_task97 , NULL, 1024, 151);
80006080:	09700713          	li	a4,151
80006084:	40000693          	li	a3,1024
80006088:	00000613          	li	a2,0
8000608c:	800037b7          	lui	a5,0x80003
80006090:	63078593          	addi	a1,a5,1584 # 80003630 <_memory_end+0xf8003630>
80006094:	8000a7b7          	lui	a5,0x8000a
80006098:	55878513          	addi	a0,a5,1368 # 8000a558 <_memory_end+0xf800a558>
8000609c:	f8cfb0ef          	jal	ra,80001828 <task_create>
800060a0:	e6a42623          	sw	a0,-404(s0)
    task98 = task_create("task98" , user_task98 , NULL, 1024, 182);
800060a4:	0b600713          	li	a4,182
800060a8:	40000693          	li	a3,1024
800060ac:	00000613          	li	a2,0
800060b0:	800037b7          	lui	a5,0x80003
800060b4:	65878593          	addi	a1,a5,1624 # 80003658 <_memory_end+0xf8003658>
800060b8:	8000a7b7          	lui	a5,0x8000a
800060bc:	56078513          	addi	a0,a5,1376 # 8000a560 <_memory_end+0xf800a560>
800060c0:	f68fb0ef          	jal	ra,80001828 <task_create>
800060c4:	e6a42423          	sw	a0,-408(s0)
    task99 = task_create("task99" , user_task99 , NULL, 1024, 57);
800060c8:	03900713          	li	a4,57
800060cc:	40000693          	li	a3,1024
800060d0:	00000613          	li	a2,0
800060d4:	800037b7          	lui	a5,0x80003
800060d8:	68078593          	addi	a1,a5,1664 # 80003680 <_memory_end+0xf8003680>
800060dc:	8000a7b7          	lui	a5,0x8000a
800060e0:	56878513          	addi	a0,a5,1384 # 8000a568 <_memory_end+0xf800a568>
800060e4:	f44fb0ef          	jal	ra,80001828 <task_create>
800060e8:	e6a42223          	sw	a0,-412(s0)
    task100 = task_create("task100" , user_task100 , NULL, 1024, 72);
800060ec:	04800713          	li	a4,72
800060f0:	40000693          	li	a3,1024
800060f4:	00000613          	li	a2,0
800060f8:	800037b7          	lui	a5,0x80003
800060fc:	6a878593          	addi	a1,a5,1704 # 800036a8 <_memory_end+0xf80036a8>
80006100:	8000a7b7          	lui	a5,0x8000a
80006104:	57078513          	addi	a0,a5,1392 # 8000a570 <_memory_end+0xf800a570>
80006108:	f20fb0ef          	jal	ra,80001828 <task_create>
8000610c:	e6a42023          	sw	a0,-416(s0)
    task101 = task_create("task101" , user_task101 , NULL, 1024, 130);
80006110:	08200713          	li	a4,130
80006114:	40000693          	li	a3,1024
80006118:	00000613          	li	a2,0
8000611c:	800037b7          	lui	a5,0x80003
80006120:	6d078593          	addi	a1,a5,1744 # 800036d0 <_memory_end+0xf80036d0>
80006124:	8000a7b7          	lui	a5,0x8000a
80006128:	57878513          	addi	a0,a5,1400 # 8000a578 <_memory_end+0xf800a578>
8000612c:	efcfb0ef          	jal	ra,80001828 <task_create>
80006130:	e4a42e23          	sw	a0,-420(s0)
    task102 = task_create("task102" , user_task102 , NULL, 1024, 215);
80006134:	0d700713          	li	a4,215
80006138:	40000693          	li	a3,1024
8000613c:	00000613          	li	a2,0
80006140:	800037b7          	lui	a5,0x80003
80006144:	6f878593          	addi	a1,a5,1784 # 800036f8 <_memory_end+0xf80036f8>
80006148:	8000a7b7          	lui	a5,0x8000a
8000614c:	58078513          	addi	a0,a5,1408 # 8000a580 <_memory_end+0xf800a580>
80006150:	ed8fb0ef          	jal	ra,80001828 <task_create>
80006154:	e4a42c23          	sw	a0,-424(s0)
    task103 = task_create("task103" , user_task103 , NULL, 1024, 100);
80006158:	06400713          	li	a4,100
8000615c:	40000693          	li	a3,1024
80006160:	00000613          	li	a2,0
80006164:	800037b7          	lui	a5,0x80003
80006168:	72078593          	addi	a1,a5,1824 # 80003720 <_memory_end+0xf8003720>
8000616c:	8000a7b7          	lui	a5,0x8000a
80006170:	58878513          	addi	a0,a5,1416 # 8000a588 <_memory_end+0xf800a588>
80006174:	eb4fb0ef          	jal	ra,80001828 <task_create>
80006178:	e4a42a23          	sw	a0,-428(s0)
    task104 = task_create("task104" , user_task104 , NULL, 1024, 27);
8000617c:	01b00713          	li	a4,27
80006180:	40000693          	li	a3,1024
80006184:	00000613          	li	a2,0
80006188:	800037b7          	lui	a5,0x80003
8000618c:	74878593          	addi	a1,a5,1864 # 80003748 <_memory_end+0xf8003748>
80006190:	8000a7b7          	lui	a5,0x8000a
80006194:	59078513          	addi	a0,a5,1424 # 8000a590 <_memory_end+0xf800a590>
80006198:	e90fb0ef          	jal	ra,80001828 <task_create>
8000619c:	e4a42823          	sw	a0,-432(s0)
    task105 = task_create("task105" , user_task105 , NULL, 1024, 13);
800061a0:	00d00713          	li	a4,13
800061a4:	40000693          	li	a3,1024
800061a8:	00000613          	li	a2,0
800061ac:	800037b7          	lui	a5,0x80003
800061b0:	77078593          	addi	a1,a5,1904 # 80003770 <_memory_end+0xf8003770>
800061b4:	8000a7b7          	lui	a5,0x8000a
800061b8:	59878513          	addi	a0,a5,1432 # 8000a598 <_memory_end+0xf800a598>
800061bc:	e6cfb0ef          	jal	ra,80001828 <task_create>
800061c0:	e4a42623          	sw	a0,-436(s0)
    task106 = task_create("task106" , user_task106 , NULL, 1024, 163);
800061c4:	0a300713          	li	a4,163
800061c8:	40000693          	li	a3,1024
800061cc:	00000613          	li	a2,0
800061d0:	800037b7          	lui	a5,0x80003
800061d4:	79878593          	addi	a1,a5,1944 # 80003798 <_memory_end+0xf8003798>
800061d8:	8000a7b7          	lui	a5,0x8000a
800061dc:	5a078513          	addi	a0,a5,1440 # 8000a5a0 <_memory_end+0xf800a5a0>
800061e0:	e48fb0ef          	jal	ra,80001828 <task_create>
800061e4:	e4a42423          	sw	a0,-440(s0)
    task107 = task_create("task107" , user_task107 , NULL, 1024, 118);
800061e8:	07600713          	li	a4,118
800061ec:	40000693          	li	a3,1024
800061f0:	00000613          	li	a2,0
800061f4:	800037b7          	lui	a5,0x80003
800061f8:	7c078593          	addi	a1,a5,1984 # 800037c0 <_memory_end+0xf80037c0>
800061fc:	8000a7b7          	lui	a5,0x8000a
80006200:	5a878513          	addi	a0,a5,1448 # 8000a5a8 <_memory_end+0xf800a5a8>
80006204:	e24fb0ef          	jal	ra,80001828 <task_create>
80006208:	e4a42223          	sw	a0,-444(s0)
    task108 = task_create("task108" , user_task108 , NULL, 1024, 155);
8000620c:	09b00713          	li	a4,155
80006210:	40000693          	li	a3,1024
80006214:	00000613          	li	a2,0
80006218:	800037b7          	lui	a5,0x80003
8000621c:	7e878593          	addi	a1,a5,2024 # 800037e8 <_memory_end+0xf80037e8>
80006220:	8000a7b7          	lui	a5,0x8000a
80006224:	5b078513          	addi	a0,a5,1456 # 8000a5b0 <_memory_end+0xf800a5b0>
80006228:	e00fb0ef          	jal	ra,80001828 <task_create>
8000622c:	e4a42023          	sw	a0,-448(s0)
    task109 = task_create("task109" , user_task109 , NULL, 1024, 113);
80006230:	07100713          	li	a4,113
80006234:	40000693          	li	a3,1024
80006238:	00000613          	li	a2,0
8000623c:	800047b7          	lui	a5,0x80004
80006240:	81078593          	addi	a1,a5,-2032 # 80003810 <_memory_end+0xf8003810>
80006244:	8000a7b7          	lui	a5,0x8000a
80006248:	5b878513          	addi	a0,a5,1464 # 8000a5b8 <_memory_end+0xf800a5b8>
8000624c:	ddcfb0ef          	jal	ra,80001828 <task_create>
80006250:	e2a42e23          	sw	a0,-452(s0)
    task110 = task_create("task110" , user_task110 , NULL, 1024, 66);
80006254:	04200713          	li	a4,66
80006258:	40000693          	li	a3,1024
8000625c:	00000613          	li	a2,0
80006260:	800047b7          	lui	a5,0x80004
80006264:	83878593          	addi	a1,a5,-1992 # 80003838 <_memory_end+0xf8003838>
80006268:	8000a7b7          	lui	a5,0x8000a
8000626c:	5c078513          	addi	a0,a5,1472 # 8000a5c0 <_memory_end+0xf800a5c0>
80006270:	db8fb0ef          	jal	ra,80001828 <task_create>
80006274:	e2a42c23          	sw	a0,-456(s0)
    task111 = task_create("task111" , user_task111 , NULL, 1024, 6);
80006278:	00600713          	li	a4,6
8000627c:	40000693          	li	a3,1024
80006280:	00000613          	li	a2,0
80006284:	800047b7          	lui	a5,0x80004
80006288:	86078593          	addi	a1,a5,-1952 # 80003860 <_memory_end+0xf8003860>
8000628c:	8000a7b7          	lui	a5,0x8000a
80006290:	5c878513          	addi	a0,a5,1480 # 8000a5c8 <_memory_end+0xf800a5c8>
80006294:	d94fb0ef          	jal	ra,80001828 <task_create>
80006298:	e2a42a23          	sw	a0,-460(s0)
    task112 = task_create("task112" , user_task112 , NULL, 1024, 24);
8000629c:	01800713          	li	a4,24
800062a0:	40000693          	li	a3,1024
800062a4:	00000613          	li	a2,0
800062a8:	800047b7          	lui	a5,0x80004
800062ac:	88878593          	addi	a1,a5,-1912 # 80003888 <_memory_end+0xf8003888>
800062b0:	8000a7b7          	lui	a5,0x8000a
800062b4:	5d078513          	addi	a0,a5,1488 # 8000a5d0 <_memory_end+0xf800a5d0>
800062b8:	d70fb0ef          	jal	ra,80001828 <task_create>
800062bc:	e2a42823          	sw	a0,-464(s0)
    task113 = task_create("task113" , user_task113 , NULL, 1024, 62);
800062c0:	03e00713          	li	a4,62
800062c4:	40000693          	li	a3,1024
800062c8:	00000613          	li	a2,0
800062cc:	800047b7          	lui	a5,0x80004
800062d0:	8b078593          	addi	a1,a5,-1872 # 800038b0 <_memory_end+0xf80038b0>
800062d4:	8000a7b7          	lui	a5,0x8000a
800062d8:	5d878513          	addi	a0,a5,1496 # 8000a5d8 <_memory_end+0xf800a5d8>
800062dc:	d4cfb0ef          	jal	ra,80001828 <task_create>
800062e0:	e2a42623          	sw	a0,-468(s0)
    task114 = task_create("task114" , user_task114 , NULL, 1024, 238);
800062e4:	0ee00713          	li	a4,238
800062e8:	40000693          	li	a3,1024
800062ec:	00000613          	li	a2,0
800062f0:	800047b7          	lui	a5,0x80004
800062f4:	8d878593          	addi	a1,a5,-1832 # 800038d8 <_memory_end+0xf80038d8>
800062f8:	8000a7b7          	lui	a5,0x8000a
800062fc:	5e078513          	addi	a0,a5,1504 # 8000a5e0 <_memory_end+0xf800a5e0>
80006300:	d28fb0ef          	jal	ra,80001828 <task_create>
80006304:	e2a42423          	sw	a0,-472(s0)
    task115 = task_create("task115" , user_task115 , NULL, 1024, 190);
80006308:	0be00713          	li	a4,190
8000630c:	40000693          	li	a3,1024
80006310:	00000613          	li	a2,0
80006314:	800047b7          	lui	a5,0x80004
80006318:	90078593          	addi	a1,a5,-1792 # 80003900 <_memory_end+0xf8003900>
8000631c:	8000a7b7          	lui	a5,0x8000a
80006320:	5e878513          	addi	a0,a5,1512 # 8000a5e8 <_memory_end+0xf800a5e8>
80006324:	d04fb0ef          	jal	ra,80001828 <task_create>
80006328:	e2a42223          	sw	a0,-476(s0)
    task116 = task_create("task116" , user_task116 , NULL, 1024, 25);
8000632c:	01900713          	li	a4,25
80006330:	40000693          	li	a3,1024
80006334:	00000613          	li	a2,0
80006338:	800047b7          	lui	a5,0x80004
8000633c:	92878593          	addi	a1,a5,-1752 # 80003928 <_memory_end+0xf8003928>
80006340:	8000a7b7          	lui	a5,0x8000a
80006344:	5f078513          	addi	a0,a5,1520 # 8000a5f0 <_memory_end+0xf800a5f0>
80006348:	ce0fb0ef          	jal	ra,80001828 <task_create>
8000634c:	e2a42023          	sw	a0,-480(s0)
    task117 = task_create("task117" , user_task117 , NULL, 1024, 4);
80006350:	00400713          	li	a4,4
80006354:	40000693          	li	a3,1024
80006358:	00000613          	li	a2,0
8000635c:	800047b7          	lui	a5,0x80004
80006360:	95078593          	addi	a1,a5,-1712 # 80003950 <_memory_end+0xf8003950>
80006364:	8000a7b7          	lui	a5,0x8000a
80006368:	5f878513          	addi	a0,a5,1528 # 8000a5f8 <_memory_end+0xf800a5f8>
8000636c:	cbcfb0ef          	jal	ra,80001828 <task_create>
80006370:	e0a42e23          	sw	a0,-484(s0)
    task118 = task_create("task118" , user_task118 , NULL, 1024, 254);
80006374:	0fe00713          	li	a4,254
80006378:	40000693          	li	a3,1024
8000637c:	00000613          	li	a2,0
80006380:	800047b7          	lui	a5,0x80004
80006384:	97878593          	addi	a1,a5,-1672 # 80003978 <_memory_end+0xf8003978>
80006388:	8000a7b7          	lui	a5,0x8000a
8000638c:	60078513          	addi	a0,a5,1536 # 8000a600 <_memory_end+0xf800a600>
80006390:	c98fb0ef          	jal	ra,80001828 <task_create>
80006394:	e0a42c23          	sw	a0,-488(s0)
    task119 = task_create("task119" , user_task119 , NULL, 1024, 141);
80006398:	08d00713          	li	a4,141
8000639c:	40000693          	li	a3,1024
800063a0:	00000613          	li	a2,0
800063a4:	800047b7          	lui	a5,0x80004
800063a8:	9a078593          	addi	a1,a5,-1632 # 800039a0 <_memory_end+0xf80039a0>
800063ac:	8000a7b7          	lui	a5,0x8000a
800063b0:	60878513          	addi	a0,a5,1544 # 8000a608 <_memory_end+0xf800a608>
800063b4:	c74fb0ef          	jal	ra,80001828 <task_create>
800063b8:	e0a42a23          	sw	a0,-492(s0)
    task120 = task_create("task120" , user_task120 , NULL, 1024, 126);
800063bc:	07e00713          	li	a4,126
800063c0:	40000693          	li	a3,1024
800063c4:	00000613          	li	a2,0
800063c8:	800047b7          	lui	a5,0x80004
800063cc:	9c878593          	addi	a1,a5,-1592 # 800039c8 <_memory_end+0xf80039c8>
800063d0:	8000a7b7          	lui	a5,0x8000a
800063d4:	61078513          	addi	a0,a5,1552 # 8000a610 <_memory_end+0xf800a610>
800063d8:	c50fb0ef          	jal	ra,80001828 <task_create>
800063dc:	e0a42823          	sw	a0,-496(s0)
    task121 = task_create("task121" , user_task121 , NULL, 1024, 245);
800063e0:	0f500713          	li	a4,245
800063e4:	40000693          	li	a3,1024
800063e8:	00000613          	li	a2,0
800063ec:	800047b7          	lui	a5,0x80004
800063f0:	9f078593          	addi	a1,a5,-1552 # 800039f0 <_memory_end+0xf80039f0>
800063f4:	8000a7b7          	lui	a5,0x8000a
800063f8:	61878513          	addi	a0,a5,1560 # 8000a618 <_memory_end+0xf800a618>
800063fc:	c2cfb0ef          	jal	ra,80001828 <task_create>
80006400:	e0a42623          	sw	a0,-500(s0)
    task122 = task_create("task122" , user_task122 , NULL, 1024, 14);
80006404:	00e00713          	li	a4,14
80006408:	40000693          	li	a3,1024
8000640c:	00000613          	li	a2,0
80006410:	800047b7          	lui	a5,0x80004
80006414:	a1878593          	addi	a1,a5,-1512 # 80003a18 <_memory_end+0xf8003a18>
80006418:	8000a7b7          	lui	a5,0x8000a
8000641c:	62078513          	addi	a0,a5,1568 # 8000a620 <_memory_end+0xf800a620>
80006420:	c08fb0ef          	jal	ra,80001828 <task_create>
80006424:	e0a42423          	sw	a0,-504(s0)
    task123 = task_create("task123" , user_task123 , NULL, 1024, 96);
80006428:	06000713          	li	a4,96
8000642c:	40000693          	li	a3,1024
80006430:	00000613          	li	a2,0
80006434:	800047b7          	lui	a5,0x80004
80006438:	a4078593          	addi	a1,a5,-1472 # 80003a40 <_memory_end+0xf8003a40>
8000643c:	8000a7b7          	lui	a5,0x8000a
80006440:	62878513          	addi	a0,a5,1576 # 8000a628 <_memory_end+0xf800a628>
80006444:	be4fb0ef          	jal	ra,80001828 <task_create>
80006448:	e0a42223          	sw	a0,-508(s0)
    task124 = task_create("task124" , user_task124 , NULL, 1024, 177);
8000644c:	0b100713          	li	a4,177
80006450:	40000693          	li	a3,1024
80006454:	00000613          	li	a2,0
80006458:	800047b7          	lui	a5,0x80004
8000645c:	a6878593          	addi	a1,a5,-1432 # 80003a68 <_memory_end+0xf8003a68>
80006460:	8000a7b7          	lui	a5,0x8000a
80006464:	63078513          	addi	a0,a5,1584 # 8000a630 <_memory_end+0xf800a630>
80006468:	bc0fb0ef          	jal	ra,80001828 <task_create>
8000646c:	e0a42023          	sw	a0,-512(s0)
    task125 = task_create("task125" , user_task125 , NULL, 1024, 193);
80006470:	0c100713          	li	a4,193
80006474:	40000693          	li	a3,1024
80006478:	00000613          	li	a2,0
8000647c:	800047b7          	lui	a5,0x80004
80006480:	a9078593          	addi	a1,a5,-1392 # 80003a90 <_memory_end+0xf8003a90>
80006484:	8000a7b7          	lui	a5,0x8000a
80006488:	63878513          	addi	a0,a5,1592 # 8000a638 <_memory_end+0xf800a638>
8000648c:	b9cfb0ef          	jal	ra,80001828 <task_create>
80006490:	dea42e23          	sw	a0,-516(s0)
    task126 = task_create("task126" , user_task126 , NULL, 1024, 232);
80006494:	0e800713          	li	a4,232
80006498:	40000693          	li	a3,1024
8000649c:	00000613          	li	a2,0
800064a0:	800047b7          	lui	a5,0x80004
800064a4:	ab878593          	addi	a1,a5,-1352 # 80003ab8 <_memory_end+0xf8003ab8>
800064a8:	8000a7b7          	lui	a5,0x8000a
800064ac:	64078513          	addi	a0,a5,1600 # 8000a640 <_memory_end+0xf800a640>
800064b0:	b78fb0ef          	jal	ra,80001828 <task_create>
800064b4:	dea42c23          	sw	a0,-520(s0)
    task127 = task_create("task127" , user_task127 , NULL, 1024, 137);
800064b8:	08900713          	li	a4,137
800064bc:	40000693          	li	a3,1024
800064c0:	00000613          	li	a2,0
800064c4:	800047b7          	lui	a5,0x80004
800064c8:	ae078593          	addi	a1,a5,-1312 # 80003ae0 <_memory_end+0xf8003ae0>
800064cc:	8000a7b7          	lui	a5,0x8000a
800064d0:	64878513          	addi	a0,a5,1608 # 8000a648 <_memory_end+0xf800a648>
800064d4:	b54fb0ef          	jal	ra,80001828 <task_create>
800064d8:	dea42a23          	sw	a0,-524(s0)
    task128 = task_create("task128" , user_task128 , NULL, 1024, 142);
800064dc:	08e00713          	li	a4,142
800064e0:	40000693          	li	a3,1024
800064e4:	00000613          	li	a2,0
800064e8:	800047b7          	lui	a5,0x80004
800064ec:	b0878593          	addi	a1,a5,-1272 # 80003b08 <_memory_end+0xf8003b08>
800064f0:	8000a7b7          	lui	a5,0x8000a
800064f4:	65078513          	addi	a0,a5,1616 # 8000a650 <_memory_end+0xf800a650>
800064f8:	b30fb0ef          	jal	ra,80001828 <task_create>
800064fc:	dea42823          	sw	a0,-528(s0)
    task129 = task_create("task129" , user_task129 , NULL, 1024, 193);
80006500:	0c100713          	li	a4,193
80006504:	40000693          	li	a3,1024
80006508:	00000613          	li	a2,0
8000650c:	800047b7          	lui	a5,0x80004
80006510:	b3078593          	addi	a1,a5,-1232 # 80003b30 <_memory_end+0xf8003b30>
80006514:	8000a7b7          	lui	a5,0x8000a
80006518:	65878513          	addi	a0,a5,1624 # 8000a658 <_memory_end+0xf800a658>
8000651c:	b0cfb0ef          	jal	ra,80001828 <task_create>
80006520:	dea42623          	sw	a0,-532(s0)
    task130 = task_create("task130" , user_task130 , NULL, 1024, 84);
80006524:	05400713          	li	a4,84
80006528:	40000693          	li	a3,1024
8000652c:	00000613          	li	a2,0
80006530:	800047b7          	lui	a5,0x80004
80006534:	b5878593          	addi	a1,a5,-1192 # 80003b58 <_memory_end+0xf8003b58>
80006538:	8000a7b7          	lui	a5,0x8000a
8000653c:	66078513          	addi	a0,a5,1632 # 8000a660 <_memory_end+0xf800a660>
80006540:	ae8fb0ef          	jal	ra,80001828 <task_create>
80006544:	dea42423          	sw	a0,-536(s0)
    task131 = task_create("task131" , user_task131 , NULL, 1024, 64);
80006548:	04000713          	li	a4,64
8000654c:	40000693          	li	a3,1024
80006550:	00000613          	li	a2,0
80006554:	800047b7          	lui	a5,0x80004
80006558:	b8078593          	addi	a1,a5,-1152 # 80003b80 <_memory_end+0xf8003b80>
8000655c:	8000a7b7          	lui	a5,0x8000a
80006560:	66878513          	addi	a0,a5,1640 # 8000a668 <_memory_end+0xf800a668>
80006564:	ac4fb0ef          	jal	ra,80001828 <task_create>
80006568:	dea42223          	sw	a0,-540(s0)
    task132 = task_create("task132" , user_task132 , NULL, 1024, 62);
8000656c:	03e00713          	li	a4,62
80006570:	40000693          	li	a3,1024
80006574:	00000613          	li	a2,0
80006578:	800047b7          	lui	a5,0x80004
8000657c:	ba878593          	addi	a1,a5,-1112 # 80003ba8 <_memory_end+0xf8003ba8>
80006580:	8000a7b7          	lui	a5,0x8000a
80006584:	67078513          	addi	a0,a5,1648 # 8000a670 <_memory_end+0xf800a670>
80006588:	aa0fb0ef          	jal	ra,80001828 <task_create>
8000658c:	dea42023          	sw	a0,-544(s0)
    task133 = task_create("task133" , user_task133 , NULL, 1024, 192);
80006590:	0c000713          	li	a4,192
80006594:	40000693          	li	a3,1024
80006598:	00000613          	li	a2,0
8000659c:	800047b7          	lui	a5,0x80004
800065a0:	bd078593          	addi	a1,a5,-1072 # 80003bd0 <_memory_end+0xf8003bd0>
800065a4:	8000a7b7          	lui	a5,0x8000a
800065a8:	67878513          	addi	a0,a5,1656 # 8000a678 <_memory_end+0xf800a678>
800065ac:	a7cfb0ef          	jal	ra,80001828 <task_create>
800065b0:	dca42e23          	sw	a0,-548(s0)
    task134 = task_create("task134" , user_task134 , NULL, 1024, 199);
800065b4:	0c700713          	li	a4,199
800065b8:	40000693          	li	a3,1024
800065bc:	00000613          	li	a2,0
800065c0:	800047b7          	lui	a5,0x80004
800065c4:	bf878593          	addi	a1,a5,-1032 # 80003bf8 <_memory_end+0xf8003bf8>
800065c8:	8000a7b7          	lui	a5,0x8000a
800065cc:	68078513          	addi	a0,a5,1664 # 8000a680 <_memory_end+0xf800a680>
800065d0:	a58fb0ef          	jal	ra,80001828 <task_create>
800065d4:	dca42c23          	sw	a0,-552(s0)
    task135 = task_create("task135" , user_task135 , NULL, 1024, 149);
800065d8:	09500713          	li	a4,149
800065dc:	40000693          	li	a3,1024
800065e0:	00000613          	li	a2,0
800065e4:	800047b7          	lui	a5,0x80004
800065e8:	c2078593          	addi	a1,a5,-992 # 80003c20 <_memory_end+0xf8003c20>
800065ec:	8000a7b7          	lui	a5,0x8000a
800065f0:	68878513          	addi	a0,a5,1672 # 8000a688 <_memory_end+0xf800a688>
800065f4:	a34fb0ef          	jal	ra,80001828 <task_create>
800065f8:	dca42a23          	sw	a0,-556(s0)
    task136 = task_create("task136" , user_task136 , NULL, 1024, 223);
800065fc:	0df00713          	li	a4,223
80006600:	40000693          	li	a3,1024
80006604:	00000613          	li	a2,0
80006608:	800047b7          	lui	a5,0x80004
8000660c:	c4878593          	addi	a1,a5,-952 # 80003c48 <_memory_end+0xf8003c48>
80006610:	8000a7b7          	lui	a5,0x8000a
80006614:	69078513          	addi	a0,a5,1680 # 8000a690 <_memory_end+0xf800a690>
80006618:	a10fb0ef          	jal	ra,80001828 <task_create>
8000661c:	dca42823          	sw	a0,-560(s0)
    task137 = task_create("task137" , user_task137 , NULL, 1024, 163);
80006620:	0a300713          	li	a4,163
80006624:	40000693          	li	a3,1024
80006628:	00000613          	li	a2,0
8000662c:	800047b7          	lui	a5,0x80004
80006630:	c7078593          	addi	a1,a5,-912 # 80003c70 <_memory_end+0xf8003c70>
80006634:	8000a7b7          	lui	a5,0x8000a
80006638:	69878513          	addi	a0,a5,1688 # 8000a698 <_memory_end+0xf800a698>
8000663c:	9ecfb0ef          	jal	ra,80001828 <task_create>
80006640:	dca42623          	sw	a0,-564(s0)
    task138 = task_create("task138" , user_task138 , NULL, 1024, 77);
80006644:	04d00713          	li	a4,77
80006648:	40000693          	li	a3,1024
8000664c:	00000613          	li	a2,0
80006650:	800047b7          	lui	a5,0x80004
80006654:	c9878593          	addi	a1,a5,-872 # 80003c98 <_memory_end+0xf8003c98>
80006658:	8000a7b7          	lui	a5,0x8000a
8000665c:	6a078513          	addi	a0,a5,1696 # 8000a6a0 <_memory_end+0xf800a6a0>
80006660:	9c8fb0ef          	jal	ra,80001828 <task_create>
80006664:	dca42423          	sw	a0,-568(s0)
    task139 = task_create("task139" , user_task139 , NULL, 1024, 209);
80006668:	0d100713          	li	a4,209
8000666c:	40000693          	li	a3,1024
80006670:	00000613          	li	a2,0
80006674:	800047b7          	lui	a5,0x80004
80006678:	cc078593          	addi	a1,a5,-832 # 80003cc0 <_memory_end+0xf8003cc0>
8000667c:	8000a7b7          	lui	a5,0x8000a
80006680:	6a878513          	addi	a0,a5,1704 # 8000a6a8 <_memory_end+0xf800a6a8>
80006684:	9a4fb0ef          	jal	ra,80001828 <task_create>
80006688:	dca42223          	sw	a0,-572(s0)
    task140 = task_create("task140" , user_task140 , NULL, 1024, 176);
8000668c:	0b000713          	li	a4,176
80006690:	40000693          	li	a3,1024
80006694:	00000613          	li	a2,0
80006698:	800047b7          	lui	a5,0x80004
8000669c:	ce878593          	addi	a1,a5,-792 # 80003ce8 <_memory_end+0xf8003ce8>
800066a0:	8000a7b7          	lui	a5,0x8000a
800066a4:	6b078513          	addi	a0,a5,1712 # 8000a6b0 <_memory_end+0xf800a6b0>
800066a8:	980fb0ef          	jal	ra,80001828 <task_create>
800066ac:	dca42023          	sw	a0,-576(s0)
    task141 = task_create("task141" , user_task141 , NULL, 1024, 230);
800066b0:	0e600713          	li	a4,230
800066b4:	40000693          	li	a3,1024
800066b8:	00000613          	li	a2,0
800066bc:	800047b7          	lui	a5,0x80004
800066c0:	d1078593          	addi	a1,a5,-752 # 80003d10 <_memory_end+0xf8003d10>
800066c4:	8000a7b7          	lui	a5,0x8000a
800066c8:	6b878513          	addi	a0,a5,1720 # 8000a6b8 <_memory_end+0xf800a6b8>
800066cc:	95cfb0ef          	jal	ra,80001828 <task_create>
800066d0:	daa42e23          	sw	a0,-580(s0)
    task142 = task_create("task142" , user_task142 , NULL, 1024, 162);
800066d4:	0a200713          	li	a4,162
800066d8:	40000693          	li	a3,1024
800066dc:	00000613          	li	a2,0
800066e0:	800047b7          	lui	a5,0x80004
800066e4:	d3878593          	addi	a1,a5,-712 # 80003d38 <_memory_end+0xf8003d38>
800066e8:	8000a7b7          	lui	a5,0x8000a
800066ec:	6c078513          	addi	a0,a5,1728 # 8000a6c0 <_memory_end+0xf800a6c0>
800066f0:	938fb0ef          	jal	ra,80001828 <task_create>
800066f4:	daa42c23          	sw	a0,-584(s0)
    task143 = task_create("task143" , user_task143 , NULL, 1024, 134);
800066f8:	08600713          	li	a4,134
800066fc:	40000693          	li	a3,1024
80006700:	00000613          	li	a2,0
80006704:	800047b7          	lui	a5,0x80004
80006708:	d6078593          	addi	a1,a5,-672 # 80003d60 <_memory_end+0xf8003d60>
8000670c:	8000a7b7          	lui	a5,0x8000a
80006710:	6c878513          	addi	a0,a5,1736 # 8000a6c8 <_memory_end+0xf800a6c8>
80006714:	914fb0ef          	jal	ra,80001828 <task_create>
80006718:	daa42a23          	sw	a0,-588(s0)
    task144 = task_create("task144" , user_task144 , NULL, 1024, 168);
8000671c:	0a800713          	li	a4,168
80006720:	40000693          	li	a3,1024
80006724:	00000613          	li	a2,0
80006728:	800047b7          	lui	a5,0x80004
8000672c:	d8878593          	addi	a1,a5,-632 # 80003d88 <_memory_end+0xf8003d88>
80006730:	8000a7b7          	lui	a5,0x8000a
80006734:	6d078513          	addi	a0,a5,1744 # 8000a6d0 <_memory_end+0xf800a6d0>
80006738:	8f0fb0ef          	jal	ra,80001828 <task_create>
8000673c:	daa42823          	sw	a0,-592(s0)
    task145 = task_create("task145" , user_task145 , NULL, 1024, 218);
80006740:	0da00713          	li	a4,218
80006744:	40000693          	li	a3,1024
80006748:	00000613          	li	a2,0
8000674c:	800047b7          	lui	a5,0x80004
80006750:	db078593          	addi	a1,a5,-592 # 80003db0 <_memory_end+0xf8003db0>
80006754:	8000a7b7          	lui	a5,0x8000a
80006758:	6d878513          	addi	a0,a5,1752 # 8000a6d8 <_memory_end+0xf800a6d8>
8000675c:	8ccfb0ef          	jal	ra,80001828 <task_create>
80006760:	daa42623          	sw	a0,-596(s0)
    task146 = task_create("task146" , user_task146 , NULL, 1024, 51);
80006764:	03300713          	li	a4,51
80006768:	40000693          	li	a3,1024
8000676c:	00000613          	li	a2,0
80006770:	800047b7          	lui	a5,0x80004
80006774:	dd878593          	addi	a1,a5,-552 # 80003dd8 <_memory_end+0xf8003dd8>
80006778:	8000a7b7          	lui	a5,0x8000a
8000677c:	6e078513          	addi	a0,a5,1760 # 8000a6e0 <_memory_end+0xf800a6e0>
80006780:	8a8fb0ef          	jal	ra,80001828 <task_create>
80006784:	daa42423          	sw	a0,-600(s0)
    task147 = task_create("task147" , user_task147 , NULL, 1024, 86);
80006788:	05600713          	li	a4,86
8000678c:	40000693          	li	a3,1024
80006790:	00000613          	li	a2,0
80006794:	800047b7          	lui	a5,0x80004
80006798:	e0078593          	addi	a1,a5,-512 # 80003e00 <_memory_end+0xf8003e00>
8000679c:	8000a7b7          	lui	a5,0x8000a
800067a0:	6e878513          	addi	a0,a5,1768 # 8000a6e8 <_memory_end+0xf800a6e8>
800067a4:	884fb0ef          	jal	ra,80001828 <task_create>
800067a8:	daa42223          	sw	a0,-604(s0)
    task148 = task_create("task148" , user_task148 , NULL, 1024, 21);
800067ac:	01500713          	li	a4,21
800067b0:	40000693          	li	a3,1024
800067b4:	00000613          	li	a2,0
800067b8:	800047b7          	lui	a5,0x80004
800067bc:	e2878593          	addi	a1,a5,-472 # 80003e28 <_memory_end+0xf8003e28>
800067c0:	8000a7b7          	lui	a5,0x8000a
800067c4:	6f078513          	addi	a0,a5,1776 # 8000a6f0 <_memory_end+0xf800a6f0>
800067c8:	860fb0ef          	jal	ra,80001828 <task_create>
800067cc:	daa42023          	sw	a0,-608(s0)
    task149 = task_create("task149" , user_task149 , NULL, 1024, 213);
800067d0:	0d500713          	li	a4,213
800067d4:	40000693          	li	a3,1024
800067d8:	00000613          	li	a2,0
800067dc:	800047b7          	lui	a5,0x80004
800067e0:	e5078593          	addi	a1,a5,-432 # 80003e50 <_memory_end+0xf8003e50>
800067e4:	8000a7b7          	lui	a5,0x8000a
800067e8:	6f878513          	addi	a0,a5,1784 # 8000a6f8 <_memory_end+0xf800a6f8>
800067ec:	83cfb0ef          	jal	ra,80001828 <task_create>
800067f0:	d8a42e23          	sw	a0,-612(s0)
    task150 = task_create("task150" , user_task150 , NULL, 1024, 177);
800067f4:	0b100713          	li	a4,177
800067f8:	40000693          	li	a3,1024
800067fc:	00000613          	li	a2,0
80006800:	800047b7          	lui	a5,0x80004
80006804:	e7878593          	addi	a1,a5,-392 # 80003e78 <_memory_end+0xf8003e78>
80006808:	8000a7b7          	lui	a5,0x8000a
8000680c:	70078513          	addi	a0,a5,1792 # 8000a700 <_memory_end+0xf800a700>
80006810:	818fb0ef          	jal	ra,80001828 <task_create>
80006814:	d8a42c23          	sw	a0,-616(s0)
    task151 = task_create("task151" , user_task151 , NULL, 1024, 98);
80006818:	06200713          	li	a4,98
8000681c:	40000693          	li	a3,1024
80006820:	00000613          	li	a2,0
80006824:	800047b7          	lui	a5,0x80004
80006828:	ea078593          	addi	a1,a5,-352 # 80003ea0 <_memory_end+0xf8003ea0>
8000682c:	8000a7b7          	lui	a5,0x8000a
80006830:	70878513          	addi	a0,a5,1800 # 8000a708 <_memory_end+0xf800a708>
80006834:	ff5fa0ef          	jal	ra,80001828 <task_create>
80006838:	d8a42a23          	sw	a0,-620(s0)
    task152 = task_create("task152" , user_task152 , NULL, 1024, 196);
8000683c:	0c400713          	li	a4,196
80006840:	40000693          	li	a3,1024
80006844:	00000613          	li	a2,0
80006848:	800047b7          	lui	a5,0x80004
8000684c:	ec878593          	addi	a1,a5,-312 # 80003ec8 <_memory_end+0xf8003ec8>
80006850:	8000a7b7          	lui	a5,0x8000a
80006854:	71078513          	addi	a0,a5,1808 # 8000a710 <_memory_end+0xf800a710>
80006858:	fd1fa0ef          	jal	ra,80001828 <task_create>
8000685c:	d8a42823          	sw	a0,-624(s0)
    task153 = task_create("task153" , user_task153 , NULL, 1024, 92);
80006860:	05c00713          	li	a4,92
80006864:	40000693          	li	a3,1024
80006868:	00000613          	li	a2,0
8000686c:	800047b7          	lui	a5,0x80004
80006870:	ef078593          	addi	a1,a5,-272 # 80003ef0 <_memory_end+0xf8003ef0>
80006874:	8000a7b7          	lui	a5,0x8000a
80006878:	71878513          	addi	a0,a5,1816 # 8000a718 <_memory_end+0xf800a718>
8000687c:	fadfa0ef          	jal	ra,80001828 <task_create>
80006880:	d8a42623          	sw	a0,-628(s0)
    task154 = task_create("task154" , user_task154 , NULL, 1024, 42);
80006884:	02a00713          	li	a4,42
80006888:	40000693          	li	a3,1024
8000688c:	00000613          	li	a2,0
80006890:	800047b7          	lui	a5,0x80004
80006894:	f1878593          	addi	a1,a5,-232 # 80003f18 <_memory_end+0xf8003f18>
80006898:	8000a7b7          	lui	a5,0x8000a
8000689c:	72078513          	addi	a0,a5,1824 # 8000a720 <_memory_end+0xf800a720>
800068a0:	f89fa0ef          	jal	ra,80001828 <task_create>
800068a4:	d8a42423          	sw	a0,-632(s0)
    task155 = task_create("task155" , user_task155 , NULL, 1024, 225);
800068a8:	0e100713          	li	a4,225
800068ac:	40000693          	li	a3,1024
800068b0:	00000613          	li	a2,0
800068b4:	800047b7          	lui	a5,0x80004
800068b8:	f4078593          	addi	a1,a5,-192 # 80003f40 <_memory_end+0xf8003f40>
800068bc:	8000a7b7          	lui	a5,0x8000a
800068c0:	72878513          	addi	a0,a5,1832 # 8000a728 <_memory_end+0xf800a728>
800068c4:	f65fa0ef          	jal	ra,80001828 <task_create>
800068c8:	d8a42223          	sw	a0,-636(s0)
    task156 = task_create("task156" , user_task156 , NULL, 1024, 240);
800068cc:	0f000713          	li	a4,240
800068d0:	40000693          	li	a3,1024
800068d4:	00000613          	li	a2,0
800068d8:	800047b7          	lui	a5,0x80004
800068dc:	f6878593          	addi	a1,a5,-152 # 80003f68 <_memory_end+0xf8003f68>
800068e0:	8000a7b7          	lui	a5,0x8000a
800068e4:	73078513          	addi	a0,a5,1840 # 8000a730 <_memory_end+0xf800a730>
800068e8:	f41fa0ef          	jal	ra,80001828 <task_create>
800068ec:	d8a42023          	sw	a0,-640(s0)
    task157 = task_create("task157" , user_task157 , NULL, 1024, 66);
800068f0:	04200713          	li	a4,66
800068f4:	40000693          	li	a3,1024
800068f8:	00000613          	li	a2,0
800068fc:	800047b7          	lui	a5,0x80004
80006900:	f9078593          	addi	a1,a5,-112 # 80003f90 <_memory_end+0xf8003f90>
80006904:	8000a7b7          	lui	a5,0x8000a
80006908:	73878513          	addi	a0,a5,1848 # 8000a738 <_memory_end+0xf800a738>
8000690c:	f1dfa0ef          	jal	ra,80001828 <task_create>
80006910:	d6a42e23          	sw	a0,-644(s0)
    task158 = task_create("task158" , user_task158 , NULL, 1024, 94);
80006914:	05e00713          	li	a4,94
80006918:	40000693          	li	a3,1024
8000691c:	00000613          	li	a2,0
80006920:	800047b7          	lui	a5,0x80004
80006924:	fb878593          	addi	a1,a5,-72 # 80003fb8 <_memory_end+0xf8003fb8>
80006928:	8000a7b7          	lui	a5,0x8000a
8000692c:	74078513          	addi	a0,a5,1856 # 8000a740 <_memory_end+0xf800a740>
80006930:	ef9fa0ef          	jal	ra,80001828 <task_create>
80006934:	d6a42c23          	sw	a0,-648(s0)
    task159 = task_create("task159" , user_task159 , NULL, 1024, 166);
80006938:	0a600713          	li	a4,166
8000693c:	40000693          	li	a3,1024
80006940:	00000613          	li	a2,0
80006944:	800047b7          	lui	a5,0x80004
80006948:	fe078593          	addi	a1,a5,-32 # 80003fe0 <_memory_end+0xf8003fe0>
8000694c:	8000a7b7          	lui	a5,0x8000a
80006950:	74878513          	addi	a0,a5,1864 # 8000a748 <_memory_end+0xf800a748>
80006954:	ed5fa0ef          	jal	ra,80001828 <task_create>
80006958:	d6a42a23          	sw	a0,-652(s0)
    task160 = task_create("task160" , user_task160 , NULL, 1024, 31);
8000695c:	01f00713          	li	a4,31
80006960:	40000693          	li	a3,1024
80006964:	00000613          	li	a2,0
80006968:	800047b7          	lui	a5,0x80004
8000696c:	00878593          	addi	a1,a5,8 # 80004008 <_memory_end+0xf8004008>
80006970:	8000a7b7          	lui	a5,0x8000a
80006974:	75078513          	addi	a0,a5,1872 # 8000a750 <_memory_end+0xf800a750>
80006978:	eb1fa0ef          	jal	ra,80001828 <task_create>
8000697c:	d6a42823          	sw	a0,-656(s0)
    task161 = task_create("task161" , user_task161 , NULL, 1024, 22);
80006980:	01600713          	li	a4,22
80006984:	40000693          	li	a3,1024
80006988:	00000613          	li	a2,0
8000698c:	800047b7          	lui	a5,0x80004
80006990:	03078593          	addi	a1,a5,48 # 80004030 <_memory_end+0xf8004030>
80006994:	8000a7b7          	lui	a5,0x8000a
80006998:	75878513          	addi	a0,a5,1880 # 8000a758 <_memory_end+0xf800a758>
8000699c:	e8dfa0ef          	jal	ra,80001828 <task_create>
800069a0:	d6a42623          	sw	a0,-660(s0)
    task162 = task_create("task162" , user_task162 , NULL, 1024, 108);
800069a4:	06c00713          	li	a4,108
800069a8:	40000693          	li	a3,1024
800069ac:	00000613          	li	a2,0
800069b0:	800047b7          	lui	a5,0x80004
800069b4:	05878593          	addi	a1,a5,88 # 80004058 <_memory_end+0xf8004058>
800069b8:	8000a7b7          	lui	a5,0x8000a
800069bc:	76078513          	addi	a0,a5,1888 # 8000a760 <_memory_end+0xf800a760>
800069c0:	e69fa0ef          	jal	ra,80001828 <task_create>
800069c4:	d6a42423          	sw	a0,-664(s0)
    task163 = task_create("task163" , user_task163 , NULL, 1024, 145);
800069c8:	09100713          	li	a4,145
800069cc:	40000693          	li	a3,1024
800069d0:	00000613          	li	a2,0
800069d4:	800047b7          	lui	a5,0x80004
800069d8:	08078593          	addi	a1,a5,128 # 80004080 <_memory_end+0xf8004080>
800069dc:	8000a7b7          	lui	a5,0x8000a
800069e0:	76878513          	addi	a0,a5,1896 # 8000a768 <_memory_end+0xf800a768>
800069e4:	e45fa0ef          	jal	ra,80001828 <task_create>
800069e8:	d6a42223          	sw	a0,-668(s0)
    task164 = task_create("task164" , user_task164 , NULL, 1024, 49);
800069ec:	03100713          	li	a4,49
800069f0:	40000693          	li	a3,1024
800069f4:	00000613          	li	a2,0
800069f8:	800047b7          	lui	a5,0x80004
800069fc:	0a878593          	addi	a1,a5,168 # 800040a8 <_memory_end+0xf80040a8>
80006a00:	8000a7b7          	lui	a5,0x8000a
80006a04:	77078513          	addi	a0,a5,1904 # 8000a770 <_memory_end+0xf800a770>
80006a08:	e21fa0ef          	jal	ra,80001828 <task_create>
80006a0c:	d6a42023          	sw	a0,-672(s0)
    task165 = task_create("task165" , user_task165 , NULL, 1024, 154);
80006a10:	09a00713          	li	a4,154
80006a14:	40000693          	li	a3,1024
80006a18:	00000613          	li	a2,0
80006a1c:	800047b7          	lui	a5,0x80004
80006a20:	0d078593          	addi	a1,a5,208 # 800040d0 <_memory_end+0xf80040d0>
80006a24:	8000a7b7          	lui	a5,0x8000a
80006a28:	77878513          	addi	a0,a5,1912 # 8000a778 <_memory_end+0xf800a778>
80006a2c:	dfdfa0ef          	jal	ra,80001828 <task_create>
80006a30:	d4a42e23          	sw	a0,-676(s0)
    task166 = task_create("task166" , user_task166 , NULL, 1024, 33);
80006a34:	02100713          	li	a4,33
80006a38:	40000693          	li	a3,1024
80006a3c:	00000613          	li	a2,0
80006a40:	800047b7          	lui	a5,0x80004
80006a44:	0f878593          	addi	a1,a5,248 # 800040f8 <_memory_end+0xf80040f8>
80006a48:	8000a7b7          	lui	a5,0x8000a
80006a4c:	78078513          	addi	a0,a5,1920 # 8000a780 <_memory_end+0xf800a780>
80006a50:	dd9fa0ef          	jal	ra,80001828 <task_create>
80006a54:	d4a42c23          	sw	a0,-680(s0)
    task167 = task_create("task167" , user_task167 , NULL, 1024, 149);
80006a58:	09500713          	li	a4,149
80006a5c:	40000693          	li	a3,1024
80006a60:	00000613          	li	a2,0
80006a64:	800047b7          	lui	a5,0x80004
80006a68:	12078593          	addi	a1,a5,288 # 80004120 <_memory_end+0xf8004120>
80006a6c:	8000a7b7          	lui	a5,0x8000a
80006a70:	78878513          	addi	a0,a5,1928 # 8000a788 <_memory_end+0xf800a788>
80006a74:	db5fa0ef          	jal	ra,80001828 <task_create>
80006a78:	d4a42a23          	sw	a0,-684(s0)
    task168 = task_create("task168" , user_task168 , NULL, 1024, 16);
80006a7c:	01000713          	li	a4,16
80006a80:	40000693          	li	a3,1024
80006a84:	00000613          	li	a2,0
80006a88:	800047b7          	lui	a5,0x80004
80006a8c:	14878593          	addi	a1,a5,328 # 80004148 <_memory_end+0xf8004148>
80006a90:	8000a7b7          	lui	a5,0x8000a
80006a94:	79078513          	addi	a0,a5,1936 # 8000a790 <_memory_end+0xf800a790>
80006a98:	d91fa0ef          	jal	ra,80001828 <task_create>
80006a9c:	d4a42823          	sw	a0,-688(s0)
    task169 = task_create("task169" , user_task169 , NULL, 1024, 106);
80006aa0:	06a00713          	li	a4,106
80006aa4:	40000693          	li	a3,1024
80006aa8:	00000613          	li	a2,0
80006aac:	800047b7          	lui	a5,0x80004
80006ab0:	17078593          	addi	a1,a5,368 # 80004170 <_memory_end+0xf8004170>
80006ab4:	8000a7b7          	lui	a5,0x8000a
80006ab8:	79878513          	addi	a0,a5,1944 # 8000a798 <_memory_end+0xf800a798>
80006abc:	d6dfa0ef          	jal	ra,80001828 <task_create>
80006ac0:	d4a42623          	sw	a0,-692(s0)
    task170 = task_create("task170" , user_task170 , NULL, 1024, 168);
80006ac4:	0a800713          	li	a4,168
80006ac8:	40000693          	li	a3,1024
80006acc:	00000613          	li	a2,0
80006ad0:	800047b7          	lui	a5,0x80004
80006ad4:	19878593          	addi	a1,a5,408 # 80004198 <_memory_end+0xf8004198>
80006ad8:	8000a7b7          	lui	a5,0x8000a
80006adc:	7a078513          	addi	a0,a5,1952 # 8000a7a0 <_memory_end+0xf800a7a0>
80006ae0:	d49fa0ef          	jal	ra,80001828 <task_create>
80006ae4:	d4a42423          	sw	a0,-696(s0)
    task171 = task_create("task171" , user_task171 , NULL, 1024, 211);
80006ae8:	0d300713          	li	a4,211
80006aec:	40000693          	li	a3,1024
80006af0:	00000613          	li	a2,0
80006af4:	800047b7          	lui	a5,0x80004
80006af8:	1c078593          	addi	a1,a5,448 # 800041c0 <_memory_end+0xf80041c0>
80006afc:	8000a7b7          	lui	a5,0x8000a
80006b00:	7a878513          	addi	a0,a5,1960 # 8000a7a8 <_memory_end+0xf800a7a8>
80006b04:	d25fa0ef          	jal	ra,80001828 <task_create>
80006b08:	d4a42223          	sw	a0,-700(s0)
    task172 = task_create("task172" , user_task172 , NULL, 1024, 74);
80006b0c:	04a00713          	li	a4,74
80006b10:	40000693          	li	a3,1024
80006b14:	00000613          	li	a2,0
80006b18:	800047b7          	lui	a5,0x80004
80006b1c:	1e878593          	addi	a1,a5,488 # 800041e8 <_memory_end+0xf80041e8>
80006b20:	8000a7b7          	lui	a5,0x8000a
80006b24:	7b078513          	addi	a0,a5,1968 # 8000a7b0 <_memory_end+0xf800a7b0>
80006b28:	d01fa0ef          	jal	ra,80001828 <task_create>
80006b2c:	d4a42023          	sw	a0,-704(s0)
    task173 = task_create("task173" , user_task173 , NULL, 1024, 242);
80006b30:	0f200713          	li	a4,242
80006b34:	40000693          	li	a3,1024
80006b38:	00000613          	li	a2,0
80006b3c:	800047b7          	lui	a5,0x80004
80006b40:	21078593          	addi	a1,a5,528 # 80004210 <_memory_end+0xf8004210>
80006b44:	8000a7b7          	lui	a5,0x8000a
80006b48:	7b878513          	addi	a0,a5,1976 # 8000a7b8 <_memory_end+0xf800a7b8>
80006b4c:	cddfa0ef          	jal	ra,80001828 <task_create>
80006b50:	d2a42e23          	sw	a0,-708(s0)
    task174 = task_create("task174" , user_task174 , NULL, 1024, 127);
80006b54:	07f00713          	li	a4,127
80006b58:	40000693          	li	a3,1024
80006b5c:	00000613          	li	a2,0
80006b60:	800047b7          	lui	a5,0x80004
80006b64:	23878593          	addi	a1,a5,568 # 80004238 <_memory_end+0xf8004238>
80006b68:	8000a7b7          	lui	a5,0x8000a
80006b6c:	7c078513          	addi	a0,a5,1984 # 8000a7c0 <_memory_end+0xf800a7c0>
80006b70:	cb9fa0ef          	jal	ra,80001828 <task_create>
80006b74:	d2a42c23          	sw	a0,-712(s0)
    task175 = task_create("task175" , user_task175 , NULL, 1024, 186);
80006b78:	0ba00713          	li	a4,186
80006b7c:	40000693          	li	a3,1024
80006b80:	00000613          	li	a2,0
80006b84:	800047b7          	lui	a5,0x80004
80006b88:	26078593          	addi	a1,a5,608 # 80004260 <_memory_end+0xf8004260>
80006b8c:	8000a7b7          	lui	a5,0x8000a
80006b90:	7c878513          	addi	a0,a5,1992 # 8000a7c8 <_memory_end+0xf800a7c8>
80006b94:	c95fa0ef          	jal	ra,80001828 <task_create>
80006b98:	d2a42a23          	sw	a0,-716(s0)
    task176 = task_create("task176" , user_task176 , NULL, 1024, 60);
80006b9c:	03c00713          	li	a4,60
80006ba0:	40000693          	li	a3,1024
80006ba4:	00000613          	li	a2,0
80006ba8:	800047b7          	lui	a5,0x80004
80006bac:	28878593          	addi	a1,a5,648 # 80004288 <_memory_end+0xf8004288>
80006bb0:	8000a7b7          	lui	a5,0x8000a
80006bb4:	7d078513          	addi	a0,a5,2000 # 8000a7d0 <_memory_end+0xf800a7d0>
80006bb8:	c71fa0ef          	jal	ra,80001828 <task_create>
80006bbc:	d2a42823          	sw	a0,-720(s0)
    task177 = task_create("task177" , user_task177 , NULL, 1024, 153);
80006bc0:	09900713          	li	a4,153
80006bc4:	40000693          	li	a3,1024
80006bc8:	00000613          	li	a2,0
80006bcc:	800047b7          	lui	a5,0x80004
80006bd0:	2b078593          	addi	a1,a5,688 # 800042b0 <_memory_end+0xf80042b0>
80006bd4:	8000a7b7          	lui	a5,0x8000a
80006bd8:	7d878513          	addi	a0,a5,2008 # 8000a7d8 <_memory_end+0xf800a7d8>
80006bdc:	c4dfa0ef          	jal	ra,80001828 <task_create>
80006be0:	d2a42623          	sw	a0,-724(s0)
    task178 = task_create("task178" , user_task178 , NULL, 1024, 17);
80006be4:	01100713          	li	a4,17
80006be8:	40000693          	li	a3,1024
80006bec:	00000613          	li	a2,0
80006bf0:	800047b7          	lui	a5,0x80004
80006bf4:	2d878593          	addi	a1,a5,728 # 800042d8 <_memory_end+0xf80042d8>
80006bf8:	8000a7b7          	lui	a5,0x8000a
80006bfc:	7e078513          	addi	a0,a5,2016 # 8000a7e0 <_memory_end+0xf800a7e0>
80006c00:	c29fa0ef          	jal	ra,80001828 <task_create>
80006c04:	d2a42423          	sw	a0,-728(s0)
    task179 = task_create("task179" , user_task179 , NULL, 1024, 98);
80006c08:	06200713          	li	a4,98
80006c0c:	40000693          	li	a3,1024
80006c10:	00000613          	li	a2,0
80006c14:	800047b7          	lui	a5,0x80004
80006c18:	30078593          	addi	a1,a5,768 # 80004300 <_memory_end+0xf8004300>
80006c1c:	8000a7b7          	lui	a5,0x8000a
80006c20:	7e878513          	addi	a0,a5,2024 # 8000a7e8 <_memory_end+0xf800a7e8>
80006c24:	c05fa0ef          	jal	ra,80001828 <task_create>
80006c28:	d2a42223          	sw	a0,-732(s0)
    task180 = task_create("task180" , user_task180 , NULL, 1024, 40);
80006c2c:	02800713          	li	a4,40
80006c30:	40000693          	li	a3,1024
80006c34:	00000613          	li	a2,0
80006c38:	800047b7          	lui	a5,0x80004
80006c3c:	32878593          	addi	a1,a5,808 # 80004328 <_memory_end+0xf8004328>
80006c40:	8000a7b7          	lui	a5,0x8000a
80006c44:	7f078513          	addi	a0,a5,2032 # 8000a7f0 <_memory_end+0xf800a7f0>
80006c48:	be1fa0ef          	jal	ra,80001828 <task_create>
80006c4c:	d2a42023          	sw	a0,-736(s0)
    task181 = task_create("task181" , user_task181 , NULL, 1024, 61);
80006c50:	03d00713          	li	a4,61
80006c54:	40000693          	li	a3,1024
80006c58:	00000613          	li	a2,0
80006c5c:	800047b7          	lui	a5,0x80004
80006c60:	35078593          	addi	a1,a5,848 # 80004350 <_memory_end+0xf8004350>
80006c64:	8000a7b7          	lui	a5,0x8000a
80006c68:	7f878513          	addi	a0,a5,2040 # 8000a7f8 <_memory_end+0xf800a7f8>
80006c6c:	bbdfa0ef          	jal	ra,80001828 <task_create>
80006c70:	d0a42e23          	sw	a0,-740(s0)
    task182 = task_create("task182" , user_task182 , NULL, 1024, 168);
80006c74:	0a800713          	li	a4,168
80006c78:	40000693          	li	a3,1024
80006c7c:	00000613          	li	a2,0
80006c80:	800047b7          	lui	a5,0x80004
80006c84:	37878593          	addi	a1,a5,888 # 80004378 <_memory_end+0xf8004378>
80006c88:	8000b7b7          	lui	a5,0x8000b
80006c8c:	80078513          	addi	a0,a5,-2048 # 8000a800 <_memory_end+0xf800a800>
80006c90:	b99fa0ef          	jal	ra,80001828 <task_create>
80006c94:	d0a42c23          	sw	a0,-744(s0)
    task183 = task_create("task183" , user_task183 , NULL, 1024, 228);
80006c98:	0e400713          	li	a4,228
80006c9c:	40000693          	li	a3,1024
80006ca0:	00000613          	li	a2,0
80006ca4:	800047b7          	lui	a5,0x80004
80006ca8:	3a078593          	addi	a1,a5,928 # 800043a0 <_memory_end+0xf80043a0>
80006cac:	8000b7b7          	lui	a5,0x8000b
80006cb0:	80878513          	addi	a0,a5,-2040 # 8000a808 <_memory_end+0xf800a808>
80006cb4:	b75fa0ef          	jal	ra,80001828 <task_create>
80006cb8:	d0a42a23          	sw	a0,-748(s0)
    task184 = task_create("task184" , user_task184 , NULL, 1024, 24);
80006cbc:	01800713          	li	a4,24
80006cc0:	40000693          	li	a3,1024
80006cc4:	00000613          	li	a2,0
80006cc8:	800047b7          	lui	a5,0x80004
80006ccc:	3c878593          	addi	a1,a5,968 # 800043c8 <_memory_end+0xf80043c8>
80006cd0:	8000b7b7          	lui	a5,0x8000b
80006cd4:	81078513          	addi	a0,a5,-2032 # 8000a810 <_memory_end+0xf800a810>
80006cd8:	b51fa0ef          	jal	ra,80001828 <task_create>
80006cdc:	d0a42823          	sw	a0,-752(s0)
    task185 = task_create("task185" , user_task185 , NULL, 1024, 16);
80006ce0:	01000713          	li	a4,16
80006ce4:	40000693          	li	a3,1024
80006ce8:	00000613          	li	a2,0
80006cec:	800047b7          	lui	a5,0x80004
80006cf0:	3f078593          	addi	a1,a5,1008 # 800043f0 <_memory_end+0xf80043f0>
80006cf4:	8000b7b7          	lui	a5,0x8000b
80006cf8:	81878513          	addi	a0,a5,-2024 # 8000a818 <_memory_end+0xf800a818>
80006cfc:	b2dfa0ef          	jal	ra,80001828 <task_create>
80006d00:	d0a42623          	sw	a0,-756(s0)
    task186 = task_create("task186" , user_task186 , NULL, 1024, 5);
80006d04:	00500713          	li	a4,5
80006d08:	40000693          	li	a3,1024
80006d0c:	00000613          	li	a2,0
80006d10:	800047b7          	lui	a5,0x80004
80006d14:	41878593          	addi	a1,a5,1048 # 80004418 <_memory_end+0xf8004418>
80006d18:	8000b7b7          	lui	a5,0x8000b
80006d1c:	82078513          	addi	a0,a5,-2016 # 8000a820 <_memory_end+0xf800a820>
80006d20:	b09fa0ef          	jal	ra,80001828 <task_create>
80006d24:	d0a42423          	sw	a0,-760(s0)
    task187 = task_create("task187" , user_task187 , NULL, 1024, 26);
80006d28:	01a00713          	li	a4,26
80006d2c:	40000693          	li	a3,1024
80006d30:	00000613          	li	a2,0
80006d34:	800047b7          	lui	a5,0x80004
80006d38:	44078593          	addi	a1,a5,1088 # 80004440 <_memory_end+0xf8004440>
80006d3c:	8000b7b7          	lui	a5,0x8000b
80006d40:	82878513          	addi	a0,a5,-2008 # 8000a828 <_memory_end+0xf800a828>
80006d44:	ae5fa0ef          	jal	ra,80001828 <task_create>
80006d48:	d0a42223          	sw	a0,-764(s0)
    task188 = task_create("task188" , user_task188 , NULL, 1024, 154);
80006d4c:	09a00713          	li	a4,154
80006d50:	40000693          	li	a3,1024
80006d54:	00000613          	li	a2,0
80006d58:	800047b7          	lui	a5,0x80004
80006d5c:	46878593          	addi	a1,a5,1128 # 80004468 <_memory_end+0xf8004468>
80006d60:	8000b7b7          	lui	a5,0x8000b
80006d64:	83078513          	addi	a0,a5,-2000 # 8000a830 <_memory_end+0xf800a830>
80006d68:	ac1fa0ef          	jal	ra,80001828 <task_create>
80006d6c:	d0a42023          	sw	a0,-768(s0)
    task189 = task_create("task189" , user_task189 , NULL, 1024, 146);
80006d70:	09200713          	li	a4,146
80006d74:	40000693          	li	a3,1024
80006d78:	00000613          	li	a2,0
80006d7c:	800047b7          	lui	a5,0x80004
80006d80:	49078593          	addi	a1,a5,1168 # 80004490 <_memory_end+0xf8004490>
80006d84:	8000b7b7          	lui	a5,0x8000b
80006d88:	83878513          	addi	a0,a5,-1992 # 8000a838 <_memory_end+0xf800a838>
80006d8c:	a9dfa0ef          	jal	ra,80001828 <task_create>
80006d90:	cea42e23          	sw	a0,-772(s0)
    task190 = task_create("task190" , user_task190 , NULL, 1024, 30);
80006d94:	01e00713          	li	a4,30
80006d98:	40000693          	li	a3,1024
80006d9c:	00000613          	li	a2,0
80006da0:	800047b7          	lui	a5,0x80004
80006da4:	4b878593          	addi	a1,a5,1208 # 800044b8 <_memory_end+0xf80044b8>
80006da8:	8000b7b7          	lui	a5,0x8000b
80006dac:	84078513          	addi	a0,a5,-1984 # 8000a840 <_memory_end+0xf800a840>
80006db0:	a79fa0ef          	jal	ra,80001828 <task_create>
80006db4:	cea42c23          	sw	a0,-776(s0)
    task191 = task_create("task191" , user_task191 , NULL, 1024, 22);
80006db8:	01600713          	li	a4,22
80006dbc:	40000693          	li	a3,1024
80006dc0:	00000613          	li	a2,0
80006dc4:	800047b7          	lui	a5,0x80004
80006dc8:	4e078593          	addi	a1,a5,1248 # 800044e0 <_memory_end+0xf80044e0>
80006dcc:	8000b7b7          	lui	a5,0x8000b
80006dd0:	84878513          	addi	a0,a5,-1976 # 8000a848 <_memory_end+0xf800a848>
80006dd4:	a55fa0ef          	jal	ra,80001828 <task_create>
80006dd8:	cea42a23          	sw	a0,-780(s0)
    task192 = task_create("task192" , user_task192 , NULL, 1024, 14);
80006ddc:	00e00713          	li	a4,14
80006de0:	40000693          	li	a3,1024
80006de4:	00000613          	li	a2,0
80006de8:	800047b7          	lui	a5,0x80004
80006dec:	50878593          	addi	a1,a5,1288 # 80004508 <_memory_end+0xf8004508>
80006df0:	8000b7b7          	lui	a5,0x8000b
80006df4:	85078513          	addi	a0,a5,-1968 # 8000a850 <_memory_end+0xf800a850>
80006df8:	a31fa0ef          	jal	ra,80001828 <task_create>
80006dfc:	cea42823          	sw	a0,-784(s0)
    task193 = task_create("task193" , user_task193 , NULL, 1024, 175);
80006e00:	0af00713          	li	a4,175
80006e04:	40000693          	li	a3,1024
80006e08:	00000613          	li	a2,0
80006e0c:	800047b7          	lui	a5,0x80004
80006e10:	53078593          	addi	a1,a5,1328 # 80004530 <_memory_end+0xf8004530>
80006e14:	8000b7b7          	lui	a5,0x8000b
80006e18:	85878513          	addi	a0,a5,-1960 # 8000a858 <_memory_end+0xf800a858>
80006e1c:	a0dfa0ef          	jal	ra,80001828 <task_create>
80006e20:	cea42623          	sw	a0,-788(s0)
    task194 = task_create("task194" , user_task194 , NULL, 1024, 12);
80006e24:	00c00713          	li	a4,12
80006e28:	40000693          	li	a3,1024
80006e2c:	00000613          	li	a2,0
80006e30:	800047b7          	lui	a5,0x80004
80006e34:	55878593          	addi	a1,a5,1368 # 80004558 <_memory_end+0xf8004558>
80006e38:	8000b7b7          	lui	a5,0x8000b
80006e3c:	86078513          	addi	a0,a5,-1952 # 8000a860 <_memory_end+0xf800a860>
80006e40:	9e9fa0ef          	jal	ra,80001828 <task_create>
80006e44:	cea42423          	sw	a0,-792(s0)
    task195 = task_create("task195" , user_task195 , NULL, 1024, 6);
80006e48:	00600713          	li	a4,6
80006e4c:	40000693          	li	a3,1024
80006e50:	00000613          	li	a2,0
80006e54:	800047b7          	lui	a5,0x80004
80006e58:	58078593          	addi	a1,a5,1408 # 80004580 <_memory_end+0xf8004580>
80006e5c:	8000b7b7          	lui	a5,0x8000b
80006e60:	86878513          	addi	a0,a5,-1944 # 8000a868 <_memory_end+0xf800a868>
80006e64:	9c5fa0ef          	jal	ra,80001828 <task_create>
80006e68:	cea42223          	sw	a0,-796(s0)
    task196 = task_create("task196" , user_task196 , NULL, 1024, 146);
80006e6c:	09200713          	li	a4,146
80006e70:	40000693          	li	a3,1024
80006e74:	00000613          	li	a2,0
80006e78:	800047b7          	lui	a5,0x80004
80006e7c:	5a878593          	addi	a1,a5,1448 # 800045a8 <_memory_end+0xf80045a8>
80006e80:	8000b7b7          	lui	a5,0x8000b
80006e84:	87078513          	addi	a0,a5,-1936 # 8000a870 <_memory_end+0xf800a870>
80006e88:	9a1fa0ef          	jal	ra,80001828 <task_create>
80006e8c:	cea42023          	sw	a0,-800(s0)
    task197 = task_create("task197" , user_task197 , NULL, 1024, 84);
80006e90:	05400713          	li	a4,84
80006e94:	40000693          	li	a3,1024
80006e98:	00000613          	li	a2,0
80006e9c:	800047b7          	lui	a5,0x80004
80006ea0:	5d078593          	addi	a1,a5,1488 # 800045d0 <_memory_end+0xf80045d0>
80006ea4:	8000b7b7          	lui	a5,0x8000b
80006ea8:	87878513          	addi	a0,a5,-1928 # 8000a878 <_memory_end+0xf800a878>
80006eac:	97dfa0ef          	jal	ra,80001828 <task_create>
80006eb0:	cca42e23          	sw	a0,-804(s0)
    task198 = task_create("task198" , user_task198 , NULL, 1024, 245);
80006eb4:	0f500713          	li	a4,245
80006eb8:	40000693          	li	a3,1024
80006ebc:	00000613          	li	a2,0
80006ec0:	800047b7          	lui	a5,0x80004
80006ec4:	5f878593          	addi	a1,a5,1528 # 800045f8 <_memory_end+0xf80045f8>
80006ec8:	8000b7b7          	lui	a5,0x8000b
80006ecc:	88078513          	addi	a0,a5,-1920 # 8000a880 <_memory_end+0xf800a880>
80006ed0:	959fa0ef          	jal	ra,80001828 <task_create>
80006ed4:	cca42c23          	sw	a0,-808(s0)
    task199 = task_create("task199" , user_task199 , NULL, 1024, 5);
80006ed8:	00500713          	li	a4,5
80006edc:	40000693          	li	a3,1024
80006ee0:	00000613          	li	a2,0
80006ee4:	800047b7          	lui	a5,0x80004
80006ee8:	62078593          	addi	a1,a5,1568 # 80004620 <_memory_end+0xf8004620>
80006eec:	8000b7b7          	lui	a5,0x8000b
80006ef0:	88878513          	addi	a0,a5,-1912 # 8000a888 <_memory_end+0xf800a888>
80006ef4:	935fa0ef          	jal	ra,80001828 <task_create>
80006ef8:	cca42a23          	sw	a0,-812(s0)
    task200 = task_create("task200" , user_task200 , NULL, 1024, 141);
80006efc:	08d00713          	li	a4,141
80006f00:	40000693          	li	a3,1024
80006f04:	00000613          	li	a2,0
80006f08:	800047b7          	lui	a5,0x80004
80006f0c:	64878593          	addi	a1,a5,1608 # 80004648 <_memory_end+0xf8004648>
80006f10:	8000b7b7          	lui	a5,0x8000b
80006f14:	89078513          	addi	a0,a5,-1904 # 8000a890 <_memory_end+0xf800a890>
80006f18:	911fa0ef          	jal	ra,80001828 <task_create>
80006f1c:	cca42823          	sw	a0,-816(s0)
    task201 = task_create("task201" , user_task201 , NULL, 1024, 84);
80006f20:	05400713          	li	a4,84
80006f24:	40000693          	li	a3,1024
80006f28:	00000613          	li	a2,0
80006f2c:	800047b7          	lui	a5,0x80004
80006f30:	67078593          	addi	a1,a5,1648 # 80004670 <_memory_end+0xf8004670>
80006f34:	8000b7b7          	lui	a5,0x8000b
80006f38:	89878513          	addi	a0,a5,-1896 # 8000a898 <_memory_end+0xf800a898>
80006f3c:	8edfa0ef          	jal	ra,80001828 <task_create>
80006f40:	cca42623          	sw	a0,-820(s0)
    task202 = task_create("task202" , user_task202 , NULL, 1024, 76);
80006f44:	04c00713          	li	a4,76
80006f48:	40000693          	li	a3,1024
80006f4c:	00000613          	li	a2,0
80006f50:	800047b7          	lui	a5,0x80004
80006f54:	69878593          	addi	a1,a5,1688 # 80004698 <_memory_end+0xf8004698>
80006f58:	8000b7b7          	lui	a5,0x8000b
80006f5c:	8a078513          	addi	a0,a5,-1888 # 8000a8a0 <_memory_end+0xf800a8a0>
80006f60:	8c9fa0ef          	jal	ra,80001828 <task_create>
80006f64:	cca42423          	sw	a0,-824(s0)
    task203 = task_create("task203" , user_task203 , NULL, 1024, 247);
80006f68:	0f700713          	li	a4,247
80006f6c:	40000693          	li	a3,1024
80006f70:	00000613          	li	a2,0
80006f74:	800047b7          	lui	a5,0x80004
80006f78:	6c078593          	addi	a1,a5,1728 # 800046c0 <_memory_end+0xf80046c0>
80006f7c:	8000b7b7          	lui	a5,0x8000b
80006f80:	8a878513          	addi	a0,a5,-1880 # 8000a8a8 <_memory_end+0xf800a8a8>
80006f84:	8a5fa0ef          	jal	ra,80001828 <task_create>
80006f88:	cca42223          	sw	a0,-828(s0)
    task204 = task_create("task204" , user_task204 , NULL, 1024, 253);
80006f8c:	0fd00713          	li	a4,253
80006f90:	40000693          	li	a3,1024
80006f94:	00000613          	li	a2,0
80006f98:	800047b7          	lui	a5,0x80004
80006f9c:	6e878593          	addi	a1,a5,1768 # 800046e8 <_memory_end+0xf80046e8>
80006fa0:	8000b7b7          	lui	a5,0x8000b
80006fa4:	8b078513          	addi	a0,a5,-1872 # 8000a8b0 <_memory_end+0xf800a8b0>
80006fa8:	881fa0ef          	jal	ra,80001828 <task_create>
80006fac:	cca42023          	sw	a0,-832(s0)
    task205 = task_create("task205" , user_task205 , NULL, 1024, 151);
80006fb0:	09700713          	li	a4,151
80006fb4:	40000693          	li	a3,1024
80006fb8:	00000613          	li	a2,0
80006fbc:	800047b7          	lui	a5,0x80004
80006fc0:	71078593          	addi	a1,a5,1808 # 80004710 <_memory_end+0xf8004710>
80006fc4:	8000b7b7          	lui	a5,0x8000b
80006fc8:	8b878513          	addi	a0,a5,-1864 # 8000a8b8 <_memory_end+0xf800a8b8>
80006fcc:	85dfa0ef          	jal	ra,80001828 <task_create>
80006fd0:	caa42e23          	sw	a0,-836(s0)
    task206 = task_create("task206" , user_task206 , NULL, 1024, 179);
80006fd4:	0b300713          	li	a4,179
80006fd8:	40000693          	li	a3,1024
80006fdc:	00000613          	li	a2,0
80006fe0:	800047b7          	lui	a5,0x80004
80006fe4:	73878593          	addi	a1,a5,1848 # 80004738 <_memory_end+0xf8004738>
80006fe8:	8000b7b7          	lui	a5,0x8000b
80006fec:	8c078513          	addi	a0,a5,-1856 # 8000a8c0 <_memory_end+0xf800a8c0>
80006ff0:	839fa0ef          	jal	ra,80001828 <task_create>
80006ff4:	caa42c23          	sw	a0,-840(s0)
    task207 = task_create("task207" , user_task207 , NULL, 1024, 92);
80006ff8:	05c00713          	li	a4,92
80006ffc:	40000693          	li	a3,1024
80007000:	00000613          	li	a2,0
80007004:	800047b7          	lui	a5,0x80004
80007008:	76078593          	addi	a1,a5,1888 # 80004760 <_memory_end+0xf8004760>
8000700c:	8000b7b7          	lui	a5,0x8000b
80007010:	8c878513          	addi	a0,a5,-1848 # 8000a8c8 <_memory_end+0xf800a8c8>
80007014:	815fa0ef          	jal	ra,80001828 <task_create>
80007018:	caa42a23          	sw	a0,-844(s0)
    task208 = task_create("task208" , user_task208 , NULL, 1024, 103);
8000701c:	06700713          	li	a4,103
80007020:	40000693          	li	a3,1024
80007024:	00000613          	li	a2,0
80007028:	800047b7          	lui	a5,0x80004
8000702c:	78878593          	addi	a1,a5,1928 # 80004788 <_memory_end+0xf8004788>
80007030:	8000b7b7          	lui	a5,0x8000b
80007034:	8d078513          	addi	a0,a5,-1840 # 8000a8d0 <_memory_end+0xf800a8d0>
80007038:	ff0fa0ef          	jal	ra,80001828 <task_create>
8000703c:	caa42823          	sw	a0,-848(s0)
    task209 = task_create("task209" , user_task209 , NULL, 1024, 72);
80007040:	04800713          	li	a4,72
80007044:	40000693          	li	a3,1024
80007048:	00000613          	li	a2,0
8000704c:	800047b7          	lui	a5,0x80004
80007050:	7b078593          	addi	a1,a5,1968 # 800047b0 <_memory_end+0xf80047b0>
80007054:	8000b7b7          	lui	a5,0x8000b
80007058:	8d878513          	addi	a0,a5,-1832 # 8000a8d8 <_memory_end+0xf800a8d8>
8000705c:	fccfa0ef          	jal	ra,80001828 <task_create>
80007060:	caa42623          	sw	a0,-852(s0)
    task210 = task_create("task210" , user_task210 , NULL, 1024, 125);
80007064:	07d00713          	li	a4,125
80007068:	40000693          	li	a3,1024
8000706c:	00000613          	li	a2,0
80007070:	800047b7          	lui	a5,0x80004
80007074:	7d878593          	addi	a1,a5,2008 # 800047d8 <_memory_end+0xf80047d8>
80007078:	8000b7b7          	lui	a5,0x8000b
8000707c:	8e078513          	addi	a0,a5,-1824 # 8000a8e0 <_memory_end+0xf800a8e0>
80007080:	fa8fa0ef          	jal	ra,80001828 <task_create>
80007084:	caa42423          	sw	a0,-856(s0)
    task211 = task_create("task211" , user_task211 , NULL, 1024, 241);
80007088:	0f100713          	li	a4,241
8000708c:	40000693          	li	a3,1024
80007090:	00000613          	li	a2,0
80007094:	800057b7          	lui	a5,0x80005
80007098:	80078593          	addi	a1,a5,-2048 # 80004800 <_memory_end+0xf8004800>
8000709c:	8000b7b7          	lui	a5,0x8000b
800070a0:	8e878513          	addi	a0,a5,-1816 # 8000a8e8 <_memory_end+0xf800a8e8>
800070a4:	f84fa0ef          	jal	ra,80001828 <task_create>
800070a8:	caa42223          	sw	a0,-860(s0)
    task212 = task_create("task212" , user_task212 , NULL, 1024, 143);
800070ac:	08f00713          	li	a4,143
800070b0:	40000693          	li	a3,1024
800070b4:	00000613          	li	a2,0
800070b8:	800057b7          	lui	a5,0x80005
800070bc:	82878593          	addi	a1,a5,-2008 # 80004828 <_memory_end+0xf8004828>
800070c0:	8000b7b7          	lui	a5,0x8000b
800070c4:	8f078513          	addi	a0,a5,-1808 # 8000a8f0 <_memory_end+0xf800a8f0>
800070c8:	f60fa0ef          	jal	ra,80001828 <task_create>
800070cc:	caa42023          	sw	a0,-864(s0)
    task213 = task_create("task213" , user_task213 , NULL, 1024, 255);
800070d0:	0ff00713          	li	a4,255
800070d4:	40000693          	li	a3,1024
800070d8:	00000613          	li	a2,0
800070dc:	800057b7          	lui	a5,0x80005
800070e0:	85078593          	addi	a1,a5,-1968 # 80004850 <_memory_end+0xf8004850>
800070e4:	8000b7b7          	lui	a5,0x8000b
800070e8:	8f878513          	addi	a0,a5,-1800 # 8000a8f8 <_memory_end+0xf800a8f8>
800070ec:	f3cfa0ef          	jal	ra,80001828 <task_create>
800070f0:	c8a42e23          	sw	a0,-868(s0)
    task214 = task_create("task214" , user_task214 , NULL, 1024, 107);
800070f4:	06b00713          	li	a4,107
800070f8:	40000693          	li	a3,1024
800070fc:	00000613          	li	a2,0
80007100:	800057b7          	lui	a5,0x80005
80007104:	87878593          	addi	a1,a5,-1928 # 80004878 <_memory_end+0xf8004878>
80007108:	8000b7b7          	lui	a5,0x8000b
8000710c:	90078513          	addi	a0,a5,-1792 # 8000a900 <_memory_end+0xf800a900>
80007110:	f18fa0ef          	jal	ra,80001828 <task_create>
80007114:	c8a42c23          	sw	a0,-872(s0)
    task215 = task_create("task215" , user_task215 , NULL, 1024, 183);
80007118:	0b700713          	li	a4,183
8000711c:	40000693          	li	a3,1024
80007120:	00000613          	li	a2,0
80007124:	800057b7          	lui	a5,0x80005
80007128:	8a078593          	addi	a1,a5,-1888 # 800048a0 <_memory_end+0xf80048a0>
8000712c:	8000b7b7          	lui	a5,0x8000b
80007130:	90878513          	addi	a0,a5,-1784 # 8000a908 <_memory_end+0xf800a908>
80007134:	ef4fa0ef          	jal	ra,80001828 <task_create>
80007138:	c8a42a23          	sw	a0,-876(s0)
    task216 = task_create("task216" , user_task216 , NULL, 1024, 190);
8000713c:	0be00713          	li	a4,190
80007140:	40000693          	li	a3,1024
80007144:	00000613          	li	a2,0
80007148:	800057b7          	lui	a5,0x80005
8000714c:	8c878593          	addi	a1,a5,-1848 # 800048c8 <_memory_end+0xf80048c8>
80007150:	8000b7b7          	lui	a5,0x8000b
80007154:	91078513          	addi	a0,a5,-1776 # 8000a910 <_memory_end+0xf800a910>
80007158:	ed0fa0ef          	jal	ra,80001828 <task_create>
8000715c:	c8a42823          	sw	a0,-880(s0)
    task217 = task_create("task217" , user_task217 , NULL, 1024, 54);
80007160:	03600713          	li	a4,54
80007164:	40000693          	li	a3,1024
80007168:	00000613          	li	a2,0
8000716c:	800057b7          	lui	a5,0x80005
80007170:	8f078593          	addi	a1,a5,-1808 # 800048f0 <_memory_end+0xf80048f0>
80007174:	8000b7b7          	lui	a5,0x8000b
80007178:	91878513          	addi	a0,a5,-1768 # 8000a918 <_memory_end+0xf800a918>
8000717c:	eacfa0ef          	jal	ra,80001828 <task_create>
80007180:	c8a42623          	sw	a0,-884(s0)
    task218 = task_create("task218" , user_task218 , NULL, 1024, 31);
80007184:	01f00713          	li	a4,31
80007188:	40000693          	li	a3,1024
8000718c:	00000613          	li	a2,0
80007190:	800057b7          	lui	a5,0x80005
80007194:	91878593          	addi	a1,a5,-1768 # 80004918 <_memory_end+0xf8004918>
80007198:	8000b7b7          	lui	a5,0x8000b
8000719c:	92078513          	addi	a0,a5,-1760 # 8000a920 <_memory_end+0xf800a920>
800071a0:	e88fa0ef          	jal	ra,80001828 <task_create>
800071a4:	c8a42423          	sw	a0,-888(s0)
    task219 = task_create("task219" , user_task219 , NULL, 1024, 254);
800071a8:	0fe00713          	li	a4,254
800071ac:	40000693          	li	a3,1024
800071b0:	00000613          	li	a2,0
800071b4:	800057b7          	lui	a5,0x80005
800071b8:	94078593          	addi	a1,a5,-1728 # 80004940 <_memory_end+0xf8004940>
800071bc:	8000b7b7          	lui	a5,0x8000b
800071c0:	92878513          	addi	a0,a5,-1752 # 8000a928 <_memory_end+0xf800a928>
800071c4:	e64fa0ef          	jal	ra,80001828 <task_create>
800071c8:	c8a42223          	sw	a0,-892(s0)
    task220 = task_create("task220" , user_task220 , NULL, 1024, 120);
800071cc:	07800713          	li	a4,120
800071d0:	40000693          	li	a3,1024
800071d4:	00000613          	li	a2,0
800071d8:	800057b7          	lui	a5,0x80005
800071dc:	96878593          	addi	a1,a5,-1688 # 80004968 <_memory_end+0xf8004968>
800071e0:	8000b7b7          	lui	a5,0x8000b
800071e4:	93078513          	addi	a0,a5,-1744 # 8000a930 <_memory_end+0xf800a930>
800071e8:	e40fa0ef          	jal	ra,80001828 <task_create>
800071ec:	c8a42023          	sw	a0,-896(s0)
    task221 = task_create("task221" , user_task221 , NULL, 1024, 140);
800071f0:	08c00713          	li	a4,140
800071f4:	40000693          	li	a3,1024
800071f8:	00000613          	li	a2,0
800071fc:	800057b7          	lui	a5,0x80005
80007200:	99078593          	addi	a1,a5,-1648 # 80004990 <_memory_end+0xf8004990>
80007204:	8000b7b7          	lui	a5,0x8000b
80007208:	93878513          	addi	a0,a5,-1736 # 8000a938 <_memory_end+0xf800a938>
8000720c:	e1cfa0ef          	jal	ra,80001828 <task_create>
80007210:	c6a42e23          	sw	a0,-900(s0)
    task222 = task_create("task222" , user_task222 , NULL, 1024, 196);
80007214:	0c400713          	li	a4,196
80007218:	40000693          	li	a3,1024
8000721c:	00000613          	li	a2,0
80007220:	800057b7          	lui	a5,0x80005
80007224:	9b878593          	addi	a1,a5,-1608 # 800049b8 <_memory_end+0xf80049b8>
80007228:	8000b7b7          	lui	a5,0x8000b
8000722c:	94078513          	addi	a0,a5,-1728 # 8000a940 <_memory_end+0xf800a940>
80007230:	df8fa0ef          	jal	ra,80001828 <task_create>
80007234:	c6a42c23          	sw	a0,-904(s0)
    task223 = task_create("task223" , user_task223 , NULL, 1024, 193);
80007238:	0c100713          	li	a4,193
8000723c:	40000693          	li	a3,1024
80007240:	00000613          	li	a2,0
80007244:	800057b7          	lui	a5,0x80005
80007248:	9e078593          	addi	a1,a5,-1568 # 800049e0 <_memory_end+0xf80049e0>
8000724c:	8000b7b7          	lui	a5,0x8000b
80007250:	94878513          	addi	a0,a5,-1720 # 8000a948 <_memory_end+0xf800a948>
80007254:	dd4fa0ef          	jal	ra,80001828 <task_create>
80007258:	c6a42a23          	sw	a0,-908(s0)
    task224 = task_create("task224" , user_task224 , NULL, 1024, 160);
8000725c:	0a000713          	li	a4,160
80007260:	40000693          	li	a3,1024
80007264:	00000613          	li	a2,0
80007268:	800057b7          	lui	a5,0x80005
8000726c:	a0878593          	addi	a1,a5,-1528 # 80004a08 <_memory_end+0xf8004a08>
80007270:	8000b7b7          	lui	a5,0x8000b
80007274:	95078513          	addi	a0,a5,-1712 # 8000a950 <_memory_end+0xf800a950>
80007278:	db0fa0ef          	jal	ra,80001828 <task_create>
8000727c:	c6a42823          	sw	a0,-912(s0)
    task225 = task_create("task225" , user_task225 , NULL, 1024, 66);
80007280:	04200713          	li	a4,66
80007284:	40000693          	li	a3,1024
80007288:	00000613          	li	a2,0
8000728c:	800057b7          	lui	a5,0x80005
80007290:	a3078593          	addi	a1,a5,-1488 # 80004a30 <_memory_end+0xf8004a30>
80007294:	8000b7b7          	lui	a5,0x8000b
80007298:	95878513          	addi	a0,a5,-1704 # 8000a958 <_memory_end+0xf800a958>
8000729c:	d8cfa0ef          	jal	ra,80001828 <task_create>
800072a0:	c6a42623          	sw	a0,-916(s0)
    task226 = task_create("task226" , user_task226 , NULL, 1024, 99);
800072a4:	06300713          	li	a4,99
800072a8:	40000693          	li	a3,1024
800072ac:	00000613          	li	a2,0
800072b0:	800057b7          	lui	a5,0x80005
800072b4:	a5878593          	addi	a1,a5,-1448 # 80004a58 <_memory_end+0xf8004a58>
800072b8:	8000b7b7          	lui	a5,0x8000b
800072bc:	96078513          	addi	a0,a5,-1696 # 8000a960 <_memory_end+0xf800a960>
800072c0:	d68fa0ef          	jal	ra,80001828 <task_create>
800072c4:	c6a42423          	sw	a0,-920(s0)
    task227 = task_create("task227" , user_task227 , NULL, 1024, 34);
800072c8:	02200713          	li	a4,34
800072cc:	40000693          	li	a3,1024
800072d0:	00000613          	li	a2,0
800072d4:	800057b7          	lui	a5,0x80005
800072d8:	a8078593          	addi	a1,a5,-1408 # 80004a80 <_memory_end+0xf8004a80>
800072dc:	8000b7b7          	lui	a5,0x8000b
800072e0:	96878513          	addi	a0,a5,-1688 # 8000a968 <_memory_end+0xf800a968>
800072e4:	d44fa0ef          	jal	ra,80001828 <task_create>
800072e8:	c6a42223          	sw	a0,-924(s0)
    task228 = task_create("task228" , user_task228 , NULL, 1024, 58);
800072ec:	03a00713          	li	a4,58
800072f0:	40000693          	li	a3,1024
800072f4:	00000613          	li	a2,0
800072f8:	800057b7          	lui	a5,0x80005
800072fc:	aa878593          	addi	a1,a5,-1368 # 80004aa8 <_memory_end+0xf8004aa8>
80007300:	8000b7b7          	lui	a5,0x8000b
80007304:	97078513          	addi	a0,a5,-1680 # 8000a970 <_memory_end+0xf800a970>
80007308:	d20fa0ef          	jal	ra,80001828 <task_create>
8000730c:	c6a42023          	sw	a0,-928(s0)
    task229 = task_create("task229" , user_task229 , NULL, 1024, 130);
80007310:	08200713          	li	a4,130
80007314:	40000693          	li	a3,1024
80007318:	00000613          	li	a2,0
8000731c:	800057b7          	lui	a5,0x80005
80007320:	ad078593          	addi	a1,a5,-1328 # 80004ad0 <_memory_end+0xf8004ad0>
80007324:	8000b7b7          	lui	a5,0x8000b
80007328:	97878513          	addi	a0,a5,-1672 # 8000a978 <_memory_end+0xf800a978>
8000732c:	cfcfa0ef          	jal	ra,80001828 <task_create>
80007330:	c4a42e23          	sw	a0,-932(s0)
    task230 = task_create("task230" , user_task230 , NULL, 1024, 202);
80007334:	0ca00713          	li	a4,202
80007338:	40000693          	li	a3,1024
8000733c:	00000613          	li	a2,0
80007340:	800057b7          	lui	a5,0x80005
80007344:	af878593          	addi	a1,a5,-1288 # 80004af8 <_memory_end+0xf8004af8>
80007348:	8000b7b7          	lui	a5,0x8000b
8000734c:	98078513          	addi	a0,a5,-1664 # 8000a980 <_memory_end+0xf800a980>
80007350:	cd8fa0ef          	jal	ra,80001828 <task_create>
80007354:	c4a42c23          	sw	a0,-936(s0)
    task231 = task_create("task231" , user_task231 , NULL, 1024, 125);
80007358:	07d00713          	li	a4,125
8000735c:	40000693          	li	a3,1024
80007360:	00000613          	li	a2,0
80007364:	800057b7          	lui	a5,0x80005
80007368:	b2078593          	addi	a1,a5,-1248 # 80004b20 <_memory_end+0xf8004b20>
8000736c:	8000b7b7          	lui	a5,0x8000b
80007370:	98878513          	addi	a0,a5,-1656 # 8000a988 <_memory_end+0xf800a988>
80007374:	cb4fa0ef          	jal	ra,80001828 <task_create>
80007378:	c4a42a23          	sw	a0,-940(s0)
    task232 = task_create("task232" , user_task232 , NULL, 1024, 130);
8000737c:	08200713          	li	a4,130
80007380:	40000693          	li	a3,1024
80007384:	00000613          	li	a2,0
80007388:	800057b7          	lui	a5,0x80005
8000738c:	b4878593          	addi	a1,a5,-1208 # 80004b48 <_memory_end+0xf8004b48>
80007390:	8000b7b7          	lui	a5,0x8000b
80007394:	99078513          	addi	a0,a5,-1648 # 8000a990 <_memory_end+0xf800a990>
80007398:	c90fa0ef          	jal	ra,80001828 <task_create>
8000739c:	c4a42823          	sw	a0,-944(s0)
    task233 = task_create("task233" , user_task233 , NULL, 1024, 123);
800073a0:	07b00713          	li	a4,123
800073a4:	40000693          	li	a3,1024
800073a8:	00000613          	li	a2,0
800073ac:	800057b7          	lui	a5,0x80005
800073b0:	b7078593          	addi	a1,a5,-1168 # 80004b70 <_memory_end+0xf8004b70>
800073b4:	8000b7b7          	lui	a5,0x8000b
800073b8:	99878513          	addi	a0,a5,-1640 # 8000a998 <_memory_end+0xf800a998>
800073bc:	c6cfa0ef          	jal	ra,80001828 <task_create>
800073c0:	c4a42623          	sw	a0,-948(s0)
    task234 = task_create("task234" , user_task234 , NULL, 1024, 51);
800073c4:	03300713          	li	a4,51
800073c8:	40000693          	li	a3,1024
800073cc:	00000613          	li	a2,0
800073d0:	800057b7          	lui	a5,0x80005
800073d4:	b9878593          	addi	a1,a5,-1128 # 80004b98 <_memory_end+0xf8004b98>
800073d8:	8000b7b7          	lui	a5,0x8000b
800073dc:	9a078513          	addi	a0,a5,-1632 # 8000a9a0 <_memory_end+0xf800a9a0>
800073e0:	c48fa0ef          	jal	ra,80001828 <task_create>
800073e4:	c4a42423          	sw	a0,-952(s0)
    task235 = task_create("task235" , user_task235 , NULL, 1024, 184);
800073e8:	0b800713          	li	a4,184
800073ec:	40000693          	li	a3,1024
800073f0:	00000613          	li	a2,0
800073f4:	800057b7          	lui	a5,0x80005
800073f8:	bc078593          	addi	a1,a5,-1088 # 80004bc0 <_memory_end+0xf8004bc0>
800073fc:	8000b7b7          	lui	a5,0x8000b
80007400:	9a878513          	addi	a0,a5,-1624 # 8000a9a8 <_memory_end+0xf800a9a8>
80007404:	c24fa0ef          	jal	ra,80001828 <task_create>
80007408:	c4a42223          	sw	a0,-956(s0)
    task236 = task_create("task236" , user_task236 , NULL, 1024, 22);
8000740c:	01600713          	li	a4,22
80007410:	40000693          	li	a3,1024
80007414:	00000613          	li	a2,0
80007418:	800057b7          	lui	a5,0x80005
8000741c:	be878593          	addi	a1,a5,-1048 # 80004be8 <_memory_end+0xf8004be8>
80007420:	8000b7b7          	lui	a5,0x8000b
80007424:	9b078513          	addi	a0,a5,-1616 # 8000a9b0 <_memory_end+0xf800a9b0>
80007428:	c00fa0ef          	jal	ra,80001828 <task_create>
8000742c:	c4a42023          	sw	a0,-960(s0)
    task237 = task_create("task237" , user_task237 , NULL, 1024, 94);
80007430:	05e00713          	li	a4,94
80007434:	40000693          	li	a3,1024
80007438:	00000613          	li	a2,0
8000743c:	800057b7          	lui	a5,0x80005
80007440:	c1078593          	addi	a1,a5,-1008 # 80004c10 <_memory_end+0xf8004c10>
80007444:	8000b7b7          	lui	a5,0x8000b
80007448:	9b878513          	addi	a0,a5,-1608 # 8000a9b8 <_memory_end+0xf800a9b8>
8000744c:	bdcfa0ef          	jal	ra,80001828 <task_create>
80007450:	c2a42e23          	sw	a0,-964(s0)
    task238 = task_create("task238" , user_task238 , NULL, 1024, 78);
80007454:	04e00713          	li	a4,78
80007458:	40000693          	li	a3,1024
8000745c:	00000613          	li	a2,0
80007460:	800057b7          	lui	a5,0x80005
80007464:	c3878593          	addi	a1,a5,-968 # 80004c38 <_memory_end+0xf8004c38>
80007468:	8000b7b7          	lui	a5,0x8000b
8000746c:	9c078513          	addi	a0,a5,-1600 # 8000a9c0 <_memory_end+0xf800a9c0>
80007470:	bb8fa0ef          	jal	ra,80001828 <task_create>
80007474:	c2a42c23          	sw	a0,-968(s0)
    task239 = task_create("task239" , user_task239 , NULL, 1024, 94);
80007478:	05e00713          	li	a4,94
8000747c:	40000693          	li	a3,1024
80007480:	00000613          	li	a2,0
80007484:	800057b7          	lui	a5,0x80005
80007488:	c6078593          	addi	a1,a5,-928 # 80004c60 <_memory_end+0xf8004c60>
8000748c:	8000b7b7          	lui	a5,0x8000b
80007490:	9c878513          	addi	a0,a5,-1592 # 8000a9c8 <_memory_end+0xf800a9c8>
80007494:	b94fa0ef          	jal	ra,80001828 <task_create>
80007498:	c2a42a23          	sw	a0,-972(s0)
    task240 = task_create("task240" , user_task240 , NULL, 1024, 97);
8000749c:	06100713          	li	a4,97
800074a0:	40000693          	li	a3,1024
800074a4:	00000613          	li	a2,0
800074a8:	800057b7          	lui	a5,0x80005
800074ac:	c8878593          	addi	a1,a5,-888 # 80004c88 <_memory_end+0xf8004c88>
800074b0:	8000b7b7          	lui	a5,0x8000b
800074b4:	9d078513          	addi	a0,a5,-1584 # 8000a9d0 <_memory_end+0xf800a9d0>
800074b8:	b70fa0ef          	jal	ra,80001828 <task_create>
800074bc:	c2a42823          	sw	a0,-976(s0)
    task241 = task_create("task241" , user_task241 , NULL, 1024, 26);
800074c0:	01a00713          	li	a4,26
800074c4:	40000693          	li	a3,1024
800074c8:	00000613          	li	a2,0
800074cc:	800057b7          	lui	a5,0x80005
800074d0:	cb078593          	addi	a1,a5,-848 # 80004cb0 <_memory_end+0xf8004cb0>
800074d4:	8000b7b7          	lui	a5,0x8000b
800074d8:	9d878513          	addi	a0,a5,-1576 # 8000a9d8 <_memory_end+0xf800a9d8>
800074dc:	b4cfa0ef          	jal	ra,80001828 <task_create>
800074e0:	c2a42623          	sw	a0,-980(s0)
    task242 = task_create("task242" , user_task242 , NULL, 1024, 238);
800074e4:	0ee00713          	li	a4,238
800074e8:	40000693          	li	a3,1024
800074ec:	00000613          	li	a2,0
800074f0:	800057b7          	lui	a5,0x80005
800074f4:	cd878593          	addi	a1,a5,-808 # 80004cd8 <_memory_end+0xf8004cd8>
800074f8:	8000b7b7          	lui	a5,0x8000b
800074fc:	9e078513          	addi	a0,a5,-1568 # 8000a9e0 <_memory_end+0xf800a9e0>
80007500:	b28fa0ef          	jal	ra,80001828 <task_create>
80007504:	c2a42423          	sw	a0,-984(s0)
    task243 = task_create("task243" , user_task243 , NULL, 1024, 120);
80007508:	07800713          	li	a4,120
8000750c:	40000693          	li	a3,1024
80007510:	00000613          	li	a2,0
80007514:	800057b7          	lui	a5,0x80005
80007518:	d0078593          	addi	a1,a5,-768 # 80004d00 <_memory_end+0xf8004d00>
8000751c:	8000b7b7          	lui	a5,0x8000b
80007520:	9e878513          	addi	a0,a5,-1560 # 8000a9e8 <_memory_end+0xf800a9e8>
80007524:	b04fa0ef          	jal	ra,80001828 <task_create>
80007528:	c2a42223          	sw	a0,-988(s0)
    task244 = task_create("task244" , user_task244 , NULL, 1024, 97);
8000752c:	06100713          	li	a4,97
80007530:	40000693          	li	a3,1024
80007534:	00000613          	li	a2,0
80007538:	800057b7          	lui	a5,0x80005
8000753c:	d2878593          	addi	a1,a5,-728 # 80004d28 <_memory_end+0xf8004d28>
80007540:	8000b7b7          	lui	a5,0x8000b
80007544:	9f078513          	addi	a0,a5,-1552 # 8000a9f0 <_memory_end+0xf800a9f0>
80007548:	ae0fa0ef          	jal	ra,80001828 <task_create>
8000754c:	c2a42023          	sw	a0,-992(s0)
    task245 = task_create("task245" , user_task245 , NULL, 1024, 206);
80007550:	0ce00713          	li	a4,206
80007554:	40000693          	li	a3,1024
80007558:	00000613          	li	a2,0
8000755c:	800057b7          	lui	a5,0x80005
80007560:	d5078593          	addi	a1,a5,-688 # 80004d50 <_memory_end+0xf8004d50>
80007564:	8000b7b7          	lui	a5,0x8000b
80007568:	9f878513          	addi	a0,a5,-1544 # 8000a9f8 <_memory_end+0xf800a9f8>
8000756c:	abcfa0ef          	jal	ra,80001828 <task_create>
80007570:	c0a42e23          	sw	a0,-996(s0)
    task246 = task_create("task246" , user_task246 , NULL, 1024, 125);
80007574:	07d00713          	li	a4,125
80007578:	40000693          	li	a3,1024
8000757c:	00000613          	li	a2,0
80007580:	800057b7          	lui	a5,0x80005
80007584:	d7878593          	addi	a1,a5,-648 # 80004d78 <_memory_end+0xf8004d78>
80007588:	8000b7b7          	lui	a5,0x8000b
8000758c:	a0078513          	addi	a0,a5,-1536 # 8000aa00 <_memory_end+0xf800aa00>
80007590:	a98fa0ef          	jal	ra,80001828 <task_create>
80007594:	c0a42c23          	sw	a0,-1000(s0)
    task247 = task_create("task247" , user_task247 , NULL, 1024, 39);
80007598:	02700713          	li	a4,39
8000759c:	40000693          	li	a3,1024
800075a0:	00000613          	li	a2,0
800075a4:	800057b7          	lui	a5,0x80005
800075a8:	da078593          	addi	a1,a5,-608 # 80004da0 <_memory_end+0xf8004da0>
800075ac:	8000b7b7          	lui	a5,0x8000b
800075b0:	a0878513          	addi	a0,a5,-1528 # 8000aa08 <_memory_end+0xf800aa08>
800075b4:	a74fa0ef          	jal	ra,80001828 <task_create>
800075b8:	c0a42a23          	sw	a0,-1004(s0)
    task248 = task_create("task248" , user_task248 , NULL, 1024, 2);
800075bc:	00200713          	li	a4,2
800075c0:	40000693          	li	a3,1024
800075c4:	00000613          	li	a2,0
800075c8:	800057b7          	lui	a5,0x80005
800075cc:	dc878593          	addi	a1,a5,-568 # 80004dc8 <_memory_end+0xf8004dc8>
800075d0:	8000b7b7          	lui	a5,0x8000b
800075d4:	a1078513          	addi	a0,a5,-1520 # 8000aa10 <_memory_end+0xf800aa10>
800075d8:	a50fa0ef          	jal	ra,80001828 <task_create>
800075dc:	c0a42823          	sw	a0,-1008(s0)
    task249 = task_create("task249" , user_task249 , NULL, 1024, 190);
800075e0:	0be00713          	li	a4,190
800075e4:	40000693          	li	a3,1024
800075e8:	00000613          	li	a2,0
800075ec:	800057b7          	lui	a5,0x80005
800075f0:	df078593          	addi	a1,a5,-528 # 80004df0 <_memory_end+0xf8004df0>
800075f4:	8000b7b7          	lui	a5,0x8000b
800075f8:	a1878513          	addi	a0,a5,-1512 # 8000aa18 <_memory_end+0xf800aa18>
800075fc:	a2cfa0ef          	jal	ra,80001828 <task_create>
80007600:	c0a42623          	sw	a0,-1012(s0)
    task250 = task_create("task250" , user_task250 , NULL, 1024, 9);
80007604:	00900713          	li	a4,9
80007608:	40000693          	li	a3,1024
8000760c:	00000613          	li	a2,0
80007610:	800057b7          	lui	a5,0x80005
80007614:	e1878593          	addi	a1,a5,-488 # 80004e18 <_memory_end+0xf8004e18>
80007618:	8000b7b7          	lui	a5,0x8000b
8000761c:	a2078513          	addi	a0,a5,-1504 # 8000aa20 <_memory_end+0xf800aa20>
80007620:	a08fa0ef          	jal	ra,80001828 <task_create>
80007624:	c0a42423          	sw	a0,-1016(s0)
    task251 = task_create("task251" , user_task251 , NULL, 1024, 53);
80007628:	03500713          	li	a4,53
8000762c:	40000693          	li	a3,1024
80007630:	00000613          	li	a2,0
80007634:	800057b7          	lui	a5,0x80005
80007638:	e4078593          	addi	a1,a5,-448 # 80004e40 <_memory_end+0xf8004e40>
8000763c:	8000b7b7          	lui	a5,0x8000b
80007640:	a2878513          	addi	a0,a5,-1496 # 8000aa28 <_memory_end+0xf800aa28>
80007644:	9e4fa0ef          	jal	ra,80001828 <task_create>
80007648:	c0a42223          	sw	a0,-1020(s0)
    task252 = task_create("task252" , user_task252 , NULL, 1024, 146);
8000764c:	09200713          	li	a4,146
80007650:	40000693          	li	a3,1024
80007654:	00000613          	li	a2,0
80007658:	800057b7          	lui	a5,0x80005
8000765c:	e6878593          	addi	a1,a5,-408 # 80004e68 <_memory_end+0xf8004e68>
80007660:	8000b7b7          	lui	a5,0x8000b
80007664:	a3078513          	addi	a0,a5,-1488 # 8000aa30 <_memory_end+0xf800aa30>
80007668:	9c0fa0ef          	jal	ra,80001828 <task_create>
8000766c:	c0a42023          	sw	a0,-1024(s0)
    task253 = task_create("task253" , user_task253 , NULL, 1024, 21);
80007670:	01500713          	li	a4,21
80007674:	40000693          	li	a3,1024
80007678:	00000613          	li	a2,0
8000767c:	800057b7          	lui	a5,0x80005
80007680:	e9078593          	addi	a1,a5,-368 # 80004e90 <_memory_end+0xf8004e90>
80007684:	8000b7b7          	lui	a5,0x8000b
80007688:	a3878513          	addi	a0,a5,-1480 # 8000aa38 <_memory_end+0xf800aa38>
8000768c:	99cfa0ef          	jal	ra,80001828 <task_create>
80007690:	bea42e23          	sw	a0,-1028(s0)
    task254 = task_create("task254" , user_task254 , NULL, 1024, 15);
80007694:	00f00713          	li	a4,15
80007698:	40000693          	li	a3,1024
8000769c:	00000613          	li	a2,0
800076a0:	800057b7          	lui	a5,0x80005
800076a4:	eb878593          	addi	a1,a5,-328 # 80004eb8 <_memory_end+0xf8004eb8>
800076a8:	8000b7b7          	lui	a5,0x8000b
800076ac:	a4078513          	addi	a0,a5,-1472 # 8000aa40 <_memory_end+0xf800aa40>
800076b0:	978fa0ef          	jal	ra,80001828 <task_create>
800076b4:	bea42c23          	sw	a0,-1032(s0)
    task255 = task_create("task255" , user_task255 , NULL, 1024, 228);
800076b8:	0e400713          	li	a4,228
800076bc:	40000693          	li	a3,1024
800076c0:	00000613          	li	a2,0
800076c4:	800057b7          	lui	a5,0x80005
800076c8:	ee078593          	addi	a1,a5,-288 # 80004ee0 <_memory_end+0xf8004ee0>
800076cc:	8000b7b7          	lui	a5,0x8000b
800076d0:	a4878513          	addi	a0,a5,-1464 # 8000aa48 <_memory_end+0xf800aa48>
800076d4:	954fa0ef          	jal	ra,80001828 <task_create>
800076d8:	bea42a23          	sw	a0,-1036(s0)
    task256 = task_create("task256" , user_task256 , NULL, 1024, 177);
800076dc:	0b100713          	li	a4,177
800076e0:	40000693          	li	a3,1024
800076e4:	00000613          	li	a2,0
800076e8:	800057b7          	lui	a5,0x80005
800076ec:	f0878593          	addi	a1,a5,-248 # 80004f08 <_memory_end+0xf8004f08>
800076f0:	8000b7b7          	lui	a5,0x8000b
800076f4:	a5078513          	addi	a0,a5,-1456 # 8000aa50 <_memory_end+0xf800aa50>
800076f8:	930fa0ef          	jal	ra,80001828 <task_create>
800076fc:	bea42823          	sw	a0,-1040(s0)
    task257 = task_create("task257" , user_task257 , NULL, 1024, 50);
80007700:	03200713          	li	a4,50
80007704:	40000693          	li	a3,1024
80007708:	00000613          	li	a2,0
8000770c:	800057b7          	lui	a5,0x80005
80007710:	f3078593          	addi	a1,a5,-208 # 80004f30 <_memory_end+0xf8004f30>
80007714:	8000b7b7          	lui	a5,0x8000b
80007718:	a5878513          	addi	a0,a5,-1448 # 8000aa58 <_memory_end+0xf800aa58>
8000771c:	90cfa0ef          	jal	ra,80001828 <task_create>
80007720:	bea42623          	sw	a0,-1044(s0)
    task258 = task_create("task258" , user_task258 , NULL, 1024, 24);
80007724:	01800713          	li	a4,24
80007728:	40000693          	li	a3,1024
8000772c:	00000613          	li	a2,0
80007730:	800057b7          	lui	a5,0x80005
80007734:	f5878593          	addi	a1,a5,-168 # 80004f58 <_memory_end+0xf8004f58>
80007738:	8000b7b7          	lui	a5,0x8000b
8000773c:	a6078513          	addi	a0,a5,-1440 # 8000aa60 <_memory_end+0xf800aa60>
80007740:	8e8fa0ef          	jal	ra,80001828 <task_create>
80007744:	bea42423          	sw	a0,-1048(s0)
    task259 = task_create("task259" , user_task259 , NULL, 1024, 28);
80007748:	01c00713          	li	a4,28
8000774c:	40000693          	li	a3,1024
80007750:	00000613          	li	a2,0
80007754:	800057b7          	lui	a5,0x80005
80007758:	f8078593          	addi	a1,a5,-128 # 80004f80 <_memory_end+0xf8004f80>
8000775c:	8000b7b7          	lui	a5,0x8000b
80007760:	a6878513          	addi	a0,a5,-1432 # 8000aa68 <_memory_end+0xf800aa68>
80007764:	8c4fa0ef          	jal	ra,80001828 <task_create>
80007768:	bea42223          	sw	a0,-1052(s0)
    task260 = task_create("task260" , user_task260 , NULL, 1024, 202);
8000776c:	0ca00713          	li	a4,202
80007770:	40000693          	li	a3,1024
80007774:	00000613          	li	a2,0
80007778:	800057b7          	lui	a5,0x80005
8000777c:	fa878593          	addi	a1,a5,-88 # 80004fa8 <_memory_end+0xf8004fa8>
80007780:	8000b7b7          	lui	a5,0x8000b
80007784:	a7078513          	addi	a0,a5,-1424 # 8000aa70 <_memory_end+0xf800aa70>
80007788:	8a0fa0ef          	jal	ra,80001828 <task_create>
8000778c:	bea42023          	sw	a0,-1056(s0)
    task261 = task_create("task261" , user_task261 , NULL, 1024, 144);
80007790:	09000713          	li	a4,144
80007794:	40000693          	li	a3,1024
80007798:	00000613          	li	a2,0
8000779c:	800057b7          	lui	a5,0x80005
800077a0:	fd078593          	addi	a1,a5,-48 # 80004fd0 <_memory_end+0xf8004fd0>
800077a4:	8000b7b7          	lui	a5,0x8000b
800077a8:	a7878513          	addi	a0,a5,-1416 # 8000aa78 <_memory_end+0xf800aa78>
800077ac:	87cfa0ef          	jal	ra,80001828 <task_create>
800077b0:	bca42e23          	sw	a0,-1060(s0)
    task262 = task_create("task262" , user_task262 , NULL, 1024, 82);
800077b4:	05200713          	li	a4,82
800077b8:	40000693          	li	a3,1024
800077bc:	00000613          	li	a2,0
800077c0:	800057b7          	lui	a5,0x80005
800077c4:	ff878593          	addi	a1,a5,-8 # 80004ff8 <_memory_end+0xf8004ff8>
800077c8:	8000b7b7          	lui	a5,0x8000b
800077cc:	a8078513          	addi	a0,a5,-1408 # 8000aa80 <_memory_end+0xf800aa80>
800077d0:	858fa0ef          	jal	ra,80001828 <task_create>
800077d4:	bca42c23          	sw	a0,-1064(s0)
    task263 = task_create("task263" , user_task263 , NULL, 1024, 34);
800077d8:	02200713          	li	a4,34
800077dc:	40000693          	li	a3,1024
800077e0:	00000613          	li	a2,0
800077e4:	800057b7          	lui	a5,0x80005
800077e8:	02078593          	addi	a1,a5,32 # 80005020 <_memory_end+0xf8005020>
800077ec:	8000b7b7          	lui	a5,0x8000b
800077f0:	a8878513          	addi	a0,a5,-1400 # 8000aa88 <_memory_end+0xf800aa88>
800077f4:	834fa0ef          	jal	ra,80001828 <task_create>
800077f8:	bca42a23          	sw	a0,-1068(s0)
    task264 = task_create("task264" , user_task264 , NULL, 1024, 59);
800077fc:	03b00713          	li	a4,59
80007800:	40000693          	li	a3,1024
80007804:	00000613          	li	a2,0
80007808:	800057b7          	lui	a5,0x80005
8000780c:	04878593          	addi	a1,a5,72 # 80005048 <_memory_end+0xf8005048>
80007810:	8000b7b7          	lui	a5,0x8000b
80007814:	a9078513          	addi	a0,a5,-1392 # 8000aa90 <_memory_end+0xf800aa90>
80007818:	810fa0ef          	jal	ra,80001828 <task_create>
8000781c:	bca42823          	sw	a0,-1072(s0)
    task265 = task_create("task265" , user_task265 , NULL, 1024, 154);
80007820:	09a00713          	li	a4,154
80007824:	40000693          	li	a3,1024
80007828:	00000613          	li	a2,0
8000782c:	800057b7          	lui	a5,0x80005
80007830:	07078593          	addi	a1,a5,112 # 80005070 <_memory_end+0xf8005070>
80007834:	8000b7b7          	lui	a5,0x8000b
80007838:	a9878513          	addi	a0,a5,-1384 # 8000aa98 <_memory_end+0xf800aa98>
8000783c:	fedf90ef          	jal	ra,80001828 <task_create>
80007840:	bca42623          	sw	a0,-1076(s0)
    task266 = task_create("task266" , user_task266 , NULL, 1024, 209);
80007844:	0d100713          	li	a4,209
80007848:	40000693          	li	a3,1024
8000784c:	00000613          	li	a2,0
80007850:	800057b7          	lui	a5,0x80005
80007854:	09878593          	addi	a1,a5,152 # 80005098 <_memory_end+0xf8005098>
80007858:	8000b7b7          	lui	a5,0x8000b
8000785c:	aa078513          	addi	a0,a5,-1376 # 8000aaa0 <_memory_end+0xf800aaa0>
80007860:	fc9f90ef          	jal	ra,80001828 <task_create>
80007864:	bca42423          	sw	a0,-1080(s0)
    task267 = task_create("task267" , user_task267 , NULL, 1024, 206);
80007868:	0ce00713          	li	a4,206
8000786c:	40000693          	li	a3,1024
80007870:	00000613          	li	a2,0
80007874:	800057b7          	lui	a5,0x80005
80007878:	0c078593          	addi	a1,a5,192 # 800050c0 <_memory_end+0xf80050c0>
8000787c:	8000b7b7          	lui	a5,0x8000b
80007880:	aa878513          	addi	a0,a5,-1368 # 8000aaa8 <_memory_end+0xf800aaa8>
80007884:	fa5f90ef          	jal	ra,80001828 <task_create>
80007888:	bca42223          	sw	a0,-1084(s0)
    task268 = task_create("task268" , user_task268 , NULL, 1024, 71);
8000788c:	04700713          	li	a4,71
80007890:	40000693          	li	a3,1024
80007894:	00000613          	li	a2,0
80007898:	800057b7          	lui	a5,0x80005
8000789c:	0e878593          	addi	a1,a5,232 # 800050e8 <_memory_end+0xf80050e8>
800078a0:	8000b7b7          	lui	a5,0x8000b
800078a4:	ab078513          	addi	a0,a5,-1360 # 8000aab0 <_memory_end+0xf800aab0>
800078a8:	f81f90ef          	jal	ra,80001828 <task_create>
800078ac:	bca42023          	sw	a0,-1088(s0)
    task269 = task_create("task269" , user_task269 , NULL, 1024, 250);
800078b0:	0fa00713          	li	a4,250
800078b4:	40000693          	li	a3,1024
800078b8:	00000613          	li	a2,0
800078bc:	800057b7          	lui	a5,0x80005
800078c0:	11078593          	addi	a1,a5,272 # 80005110 <_memory_end+0xf8005110>
800078c4:	8000b7b7          	lui	a5,0x8000b
800078c8:	ab878513          	addi	a0,a5,-1352 # 8000aab8 <_memory_end+0xf800aab8>
800078cc:	f5df90ef          	jal	ra,80001828 <task_create>
800078d0:	baa42e23          	sw	a0,-1092(s0)
    task270 = task_create("task270" , user_task270 , NULL, 1024, 185);
800078d4:	0b900713          	li	a4,185
800078d8:	40000693          	li	a3,1024
800078dc:	00000613          	li	a2,0
800078e0:	800057b7          	lui	a5,0x80005
800078e4:	13878593          	addi	a1,a5,312 # 80005138 <_memory_end+0xf8005138>
800078e8:	8000b7b7          	lui	a5,0x8000b
800078ec:	ac078513          	addi	a0,a5,-1344 # 8000aac0 <_memory_end+0xf800aac0>
800078f0:	f39f90ef          	jal	ra,80001828 <task_create>
800078f4:	baa42c23          	sw	a0,-1096(s0)
    task271 = task_create("task271" , user_task271 , NULL, 1024, 174);
800078f8:	0ae00713          	li	a4,174
800078fc:	40000693          	li	a3,1024
80007900:	00000613          	li	a2,0
80007904:	800057b7          	lui	a5,0x80005
80007908:	16078593          	addi	a1,a5,352 # 80005160 <_memory_end+0xf8005160>
8000790c:	8000b7b7          	lui	a5,0x8000b
80007910:	ac878513          	addi	a0,a5,-1336 # 8000aac8 <_memory_end+0xf800aac8>
80007914:	f15f90ef          	jal	ra,80001828 <task_create>
80007918:	baa42a23          	sw	a0,-1100(s0)
    task272 = task_create("task272" , user_task272 , NULL, 1024, 190);
8000791c:	0be00713          	li	a4,190
80007920:	40000693          	li	a3,1024
80007924:	00000613          	li	a2,0
80007928:	800057b7          	lui	a5,0x80005
8000792c:	18878593          	addi	a1,a5,392 # 80005188 <_memory_end+0xf8005188>
80007930:	8000b7b7          	lui	a5,0x8000b
80007934:	ad078513          	addi	a0,a5,-1328 # 8000aad0 <_memory_end+0xf800aad0>
80007938:	ef1f90ef          	jal	ra,80001828 <task_create>
8000793c:	baa42823          	sw	a0,-1104(s0)
    task273 = task_create("task273" , user_task273 , NULL, 1024, 212);
80007940:	0d400713          	li	a4,212
80007944:	40000693          	li	a3,1024
80007948:	00000613          	li	a2,0
8000794c:	800057b7          	lui	a5,0x80005
80007950:	1b078593          	addi	a1,a5,432 # 800051b0 <_memory_end+0xf80051b0>
80007954:	8000b7b7          	lui	a5,0x8000b
80007958:	ad878513          	addi	a0,a5,-1320 # 8000aad8 <_memory_end+0xf800aad8>
8000795c:	ecdf90ef          	jal	ra,80001828 <task_create>
80007960:	baa42623          	sw	a0,-1108(s0)
    task274 = task_create("task274" , user_task274 , NULL, 1024, 192);
80007964:	0c000713          	li	a4,192
80007968:	40000693          	li	a3,1024
8000796c:	00000613          	li	a2,0
80007970:	800057b7          	lui	a5,0x80005
80007974:	1d878593          	addi	a1,a5,472 # 800051d8 <_memory_end+0xf80051d8>
80007978:	8000b7b7          	lui	a5,0x8000b
8000797c:	ae078513          	addi	a0,a5,-1312 # 8000aae0 <_memory_end+0xf800aae0>
80007980:	ea9f90ef          	jal	ra,80001828 <task_create>
80007984:	baa42423          	sw	a0,-1112(s0)
    task275 = task_create("task275" , user_task275 , NULL, 1024, 21);
80007988:	01500713          	li	a4,21
8000798c:	40000693          	li	a3,1024
80007990:	00000613          	li	a2,0
80007994:	800057b7          	lui	a5,0x80005
80007998:	20078593          	addi	a1,a5,512 # 80005200 <_memory_end+0xf8005200>
8000799c:	8000b7b7          	lui	a5,0x8000b
800079a0:	ae878513          	addi	a0,a5,-1304 # 8000aae8 <_memory_end+0xf800aae8>
800079a4:	e85f90ef          	jal	ra,80001828 <task_create>
800079a8:	baa42223          	sw	a0,-1116(s0)
    task276 = task_create("task276" , user_task276 , NULL, 1024, 193);
800079ac:	0c100713          	li	a4,193
800079b0:	40000693          	li	a3,1024
800079b4:	00000613          	li	a2,0
800079b8:	800057b7          	lui	a5,0x80005
800079bc:	22878593          	addi	a1,a5,552 # 80005228 <_memory_end+0xf8005228>
800079c0:	8000b7b7          	lui	a5,0x8000b
800079c4:	af078513          	addi	a0,a5,-1296 # 8000aaf0 <_memory_end+0xf800aaf0>
800079c8:	e61f90ef          	jal	ra,80001828 <task_create>
800079cc:	baa42023          	sw	a0,-1120(s0)
    task277 = task_create("task277" , user_task277 , NULL, 1024, 244);
800079d0:	0f400713          	li	a4,244
800079d4:	40000693          	li	a3,1024
800079d8:	00000613          	li	a2,0
800079dc:	800057b7          	lui	a5,0x80005
800079e0:	25078593          	addi	a1,a5,592 # 80005250 <_memory_end+0xf8005250>
800079e4:	8000b7b7          	lui	a5,0x8000b
800079e8:	af878513          	addi	a0,a5,-1288 # 8000aaf8 <_memory_end+0xf800aaf8>
800079ec:	e3df90ef          	jal	ra,80001828 <task_create>
800079f0:	b8a42e23          	sw	a0,-1124(s0)
    task278 = task_create("task278" , user_task278 , NULL, 1024, 253);
800079f4:	0fd00713          	li	a4,253
800079f8:	40000693          	li	a3,1024
800079fc:	00000613          	li	a2,0
80007a00:	800057b7          	lui	a5,0x80005
80007a04:	27878593          	addi	a1,a5,632 # 80005278 <_memory_end+0xf8005278>
80007a08:	8000b7b7          	lui	a5,0x8000b
80007a0c:	b0078513          	addi	a0,a5,-1280 # 8000ab00 <_memory_end+0xf800ab00>
80007a10:	e19f90ef          	jal	ra,80001828 <task_create>
80007a14:	b8a42c23          	sw	a0,-1128(s0)
    task279 = task_create("task279" , user_task279 , NULL, 1024, 40);
80007a18:	02800713          	li	a4,40
80007a1c:	40000693          	li	a3,1024
80007a20:	00000613          	li	a2,0
80007a24:	800057b7          	lui	a5,0x80005
80007a28:	2a078593          	addi	a1,a5,672 # 800052a0 <_memory_end+0xf80052a0>
80007a2c:	8000b7b7          	lui	a5,0x8000b
80007a30:	b0878513          	addi	a0,a5,-1272 # 8000ab08 <_memory_end+0xf800ab08>
80007a34:	df5f90ef          	jal	ra,80001828 <task_create>
80007a38:	b8a42a23          	sw	a0,-1132(s0)
    task280 = task_create("task280" , user_task280 , NULL, 1024, 239);
80007a3c:	0ef00713          	li	a4,239
80007a40:	40000693          	li	a3,1024
80007a44:	00000613          	li	a2,0
80007a48:	800057b7          	lui	a5,0x80005
80007a4c:	2c878593          	addi	a1,a5,712 # 800052c8 <_memory_end+0xf80052c8>
80007a50:	8000b7b7          	lui	a5,0x8000b
80007a54:	b1078513          	addi	a0,a5,-1264 # 8000ab10 <_memory_end+0xf800ab10>
80007a58:	dd1f90ef          	jal	ra,80001828 <task_create>
80007a5c:	b8a42823          	sw	a0,-1136(s0)
    task_startup(task1);
80007a60:	fec42503          	lw	a0,-20(s0)
80007a64:	e5df90ef          	jal	ra,800018c0 <task_startup>
    task_startup(task2);
80007a68:	fe842503          	lw	a0,-24(s0)
80007a6c:	e55f90ef          	jal	ra,800018c0 <task_startup>
    task_startup(task3);
80007a70:	fe442503          	lw	a0,-28(s0)
80007a74:	e4df90ef          	jal	ra,800018c0 <task_startup>
    task_startup(task4);
80007a78:	fe042503          	lw	a0,-32(s0)
80007a7c:	e45f90ef          	jal	ra,800018c0 <task_startup>
    task_startup(task5);
80007a80:	fdc42503          	lw	a0,-36(s0)
80007a84:	e3df90ef          	jal	ra,800018c0 <task_startup>
    task_startup(task6);
80007a88:	fd842503          	lw	a0,-40(s0)
80007a8c:	e35f90ef          	jal	ra,800018c0 <task_startup>
    task_startup(task7);
80007a90:	fd442503          	lw	a0,-44(s0)
80007a94:	e2df90ef          	jal	ra,800018c0 <task_startup>
    task_startup(task8);
80007a98:	fd042503          	lw	a0,-48(s0)
80007a9c:	e25f90ef          	jal	ra,800018c0 <task_startup>
    task_startup(task9);
80007aa0:	fcc42503          	lw	a0,-52(s0)
80007aa4:	e1df90ef          	jal	ra,800018c0 <task_startup>
    task_startup(task10);
80007aa8:	fc842503          	lw	a0,-56(s0)
80007aac:	e15f90ef          	jal	ra,800018c0 <task_startup>
    task_startup(task11);
80007ab0:	fc442503          	lw	a0,-60(s0)
80007ab4:	e0df90ef          	jal	ra,800018c0 <task_startup>
    task_startup(task12);
80007ab8:	fc042503          	lw	a0,-64(s0)
80007abc:	e05f90ef          	jal	ra,800018c0 <task_startup>
    task_startup(task13);
80007ac0:	fbc42503          	lw	a0,-68(s0)
80007ac4:	dfdf90ef          	jal	ra,800018c0 <task_startup>
    task_startup(task14);
80007ac8:	fb842503          	lw	a0,-72(s0)
80007acc:	df5f90ef          	jal	ra,800018c0 <task_startup>
    task_startup(task15);
80007ad0:	fb442503          	lw	a0,-76(s0)
80007ad4:	dedf90ef          	jal	ra,800018c0 <task_startup>
    task_startup(task16);
80007ad8:	fb042503          	lw	a0,-80(s0)
80007adc:	de5f90ef          	jal	ra,800018c0 <task_startup>
    task_startup(task17);
80007ae0:	fac42503          	lw	a0,-84(s0)
80007ae4:	dddf90ef          	jal	ra,800018c0 <task_startup>
    task_startup(task18);
80007ae8:	fa842503          	lw	a0,-88(s0)
80007aec:	dd5f90ef          	jal	ra,800018c0 <task_startup>
    task_startup(task19);
80007af0:	fa442503          	lw	a0,-92(s0)
80007af4:	dcdf90ef          	jal	ra,800018c0 <task_startup>
    task_startup(task20);
80007af8:	fa042503          	lw	a0,-96(s0)
80007afc:	dc5f90ef          	jal	ra,800018c0 <task_startup>
    task_startup(task21);
80007b00:	f9c42503          	lw	a0,-100(s0)
80007b04:	dbdf90ef          	jal	ra,800018c0 <task_startup>
    task_startup(task22);
80007b08:	f9842503          	lw	a0,-104(s0)
80007b0c:	db5f90ef          	jal	ra,800018c0 <task_startup>
    task_startup(task23);
80007b10:	f9442503          	lw	a0,-108(s0)
80007b14:	dadf90ef          	jal	ra,800018c0 <task_startup>
    task_startup(task24);
80007b18:	f9042503          	lw	a0,-112(s0)
80007b1c:	da5f90ef          	jal	ra,800018c0 <task_startup>
    task_startup(task25);
80007b20:	f8c42503          	lw	a0,-116(s0)
80007b24:	d9df90ef          	jal	ra,800018c0 <task_startup>
    task_startup(task26);
80007b28:	f8842503          	lw	a0,-120(s0)
80007b2c:	d95f90ef          	jal	ra,800018c0 <task_startup>
    task_startup(task27);
80007b30:	f8442503          	lw	a0,-124(s0)
80007b34:	d8df90ef          	jal	ra,800018c0 <task_startup>
    task_startup(task28);
80007b38:	f8042503          	lw	a0,-128(s0)
80007b3c:	d85f90ef          	jal	ra,800018c0 <task_startup>
    task_startup(task29);
80007b40:	f7c42503          	lw	a0,-132(s0)
80007b44:	d7df90ef          	jal	ra,800018c0 <task_startup>
    task_startup(task30);
80007b48:	f7842503          	lw	a0,-136(s0)
80007b4c:	d75f90ef          	jal	ra,800018c0 <task_startup>
    task_startup(task31);
80007b50:	f7442503          	lw	a0,-140(s0)
80007b54:	d6df90ef          	jal	ra,800018c0 <task_startup>
    task_startup(task32);
80007b58:	f7042503          	lw	a0,-144(s0)
80007b5c:	d65f90ef          	jal	ra,800018c0 <task_startup>
    task_startup(task33);
80007b60:	f6c42503          	lw	a0,-148(s0)
80007b64:	d5df90ef          	jal	ra,800018c0 <task_startup>
    task_startup(task34);
80007b68:	f6842503          	lw	a0,-152(s0)
80007b6c:	d55f90ef          	jal	ra,800018c0 <task_startup>
    task_startup(task35);
80007b70:	f6442503          	lw	a0,-156(s0)
80007b74:	d4df90ef          	jal	ra,800018c0 <task_startup>
    task_startup(task36);
80007b78:	f6042503          	lw	a0,-160(s0)
80007b7c:	d45f90ef          	jal	ra,800018c0 <task_startup>
    task_startup(task37);
80007b80:	f5c42503          	lw	a0,-164(s0)
80007b84:	d3df90ef          	jal	ra,800018c0 <task_startup>
    task_startup(task38);
80007b88:	f5842503          	lw	a0,-168(s0)
80007b8c:	d35f90ef          	jal	ra,800018c0 <task_startup>
    task_startup(task39);
80007b90:	f5442503          	lw	a0,-172(s0)
80007b94:	d2df90ef          	jal	ra,800018c0 <task_startup>
    task_startup(task40);
80007b98:	f5042503          	lw	a0,-176(s0)
80007b9c:	d25f90ef          	jal	ra,800018c0 <task_startup>
    task_startup(task41);
80007ba0:	f4c42503          	lw	a0,-180(s0)
80007ba4:	d1df90ef          	jal	ra,800018c0 <task_startup>
    task_startup(task42);
80007ba8:	f4842503          	lw	a0,-184(s0)
80007bac:	d15f90ef          	jal	ra,800018c0 <task_startup>
    task_startup(task43);
80007bb0:	f4442503          	lw	a0,-188(s0)
80007bb4:	d0df90ef          	jal	ra,800018c0 <task_startup>
    task_startup(task44);
80007bb8:	f4042503          	lw	a0,-192(s0)
80007bbc:	d05f90ef          	jal	ra,800018c0 <task_startup>
    task_startup(task45);
80007bc0:	f3c42503          	lw	a0,-196(s0)
80007bc4:	cfdf90ef          	jal	ra,800018c0 <task_startup>
    task_startup(task46);
80007bc8:	f3842503          	lw	a0,-200(s0)
80007bcc:	cf5f90ef          	jal	ra,800018c0 <task_startup>
    task_startup(task47);
80007bd0:	f3442503          	lw	a0,-204(s0)
80007bd4:	cedf90ef          	jal	ra,800018c0 <task_startup>
    task_startup(task48);
80007bd8:	f3042503          	lw	a0,-208(s0)
80007bdc:	ce5f90ef          	jal	ra,800018c0 <task_startup>
    task_startup(task49);
80007be0:	f2c42503          	lw	a0,-212(s0)
80007be4:	cddf90ef          	jal	ra,800018c0 <task_startup>
    task_startup(task50);
80007be8:	f2842503          	lw	a0,-216(s0)
80007bec:	cd5f90ef          	jal	ra,800018c0 <task_startup>
    task_startup(task51);
80007bf0:	f2442503          	lw	a0,-220(s0)
80007bf4:	ccdf90ef          	jal	ra,800018c0 <task_startup>
    task_startup(task52);
80007bf8:	f2042503          	lw	a0,-224(s0)
80007bfc:	cc5f90ef          	jal	ra,800018c0 <task_startup>
    task_startup(task53);
80007c00:	f1c42503          	lw	a0,-228(s0)
80007c04:	cbdf90ef          	jal	ra,800018c0 <task_startup>
    task_startup(task54);
80007c08:	f1842503          	lw	a0,-232(s0)
80007c0c:	cb5f90ef          	jal	ra,800018c0 <task_startup>
    task_startup(task55);
80007c10:	f1442503          	lw	a0,-236(s0)
80007c14:	cadf90ef          	jal	ra,800018c0 <task_startup>
    task_startup(task56);
80007c18:	f1042503          	lw	a0,-240(s0)
80007c1c:	ca5f90ef          	jal	ra,800018c0 <task_startup>
    task_startup(task57);
80007c20:	f0c42503          	lw	a0,-244(s0)
80007c24:	c9df90ef          	jal	ra,800018c0 <task_startup>
    task_startup(task58);
80007c28:	f0842503          	lw	a0,-248(s0)
80007c2c:	c95f90ef          	jal	ra,800018c0 <task_startup>
    task_startup(task59);
80007c30:	f0442503          	lw	a0,-252(s0)
80007c34:	c8df90ef          	jal	ra,800018c0 <task_startup>
    task_startup(task60);
80007c38:	f0042503          	lw	a0,-256(s0)
80007c3c:	c85f90ef          	jal	ra,800018c0 <task_startup>
    task_startup(task61);
80007c40:	efc42503          	lw	a0,-260(s0)
80007c44:	c7df90ef          	jal	ra,800018c0 <task_startup>
    task_startup(task62);
80007c48:	ef842503          	lw	a0,-264(s0)
80007c4c:	c75f90ef          	jal	ra,800018c0 <task_startup>
    task_startup(task63);
80007c50:	ef442503          	lw	a0,-268(s0)
80007c54:	c6df90ef          	jal	ra,800018c0 <task_startup>
    task_startup(task64);
80007c58:	ef042503          	lw	a0,-272(s0)
80007c5c:	c65f90ef          	jal	ra,800018c0 <task_startup>
    task_startup(task65);
80007c60:	eec42503          	lw	a0,-276(s0)
80007c64:	c5df90ef          	jal	ra,800018c0 <task_startup>
    task_startup(task66);
80007c68:	ee842503          	lw	a0,-280(s0)
80007c6c:	c55f90ef          	jal	ra,800018c0 <task_startup>
    task_startup(task67);
80007c70:	ee442503          	lw	a0,-284(s0)
80007c74:	c4df90ef          	jal	ra,800018c0 <task_startup>
    task_startup(task68);
80007c78:	ee042503          	lw	a0,-288(s0)
80007c7c:	c45f90ef          	jal	ra,800018c0 <task_startup>
    task_startup(task69);
80007c80:	edc42503          	lw	a0,-292(s0)
80007c84:	c3df90ef          	jal	ra,800018c0 <task_startup>
    task_startup(task70);
80007c88:	ed842503          	lw	a0,-296(s0)
80007c8c:	c35f90ef          	jal	ra,800018c0 <task_startup>
    task_startup(task71);
80007c90:	ed442503          	lw	a0,-300(s0)
80007c94:	c2df90ef          	jal	ra,800018c0 <task_startup>
    task_startup(task72);
80007c98:	ed042503          	lw	a0,-304(s0)
80007c9c:	c25f90ef          	jal	ra,800018c0 <task_startup>
    task_startup(task73);
80007ca0:	ecc42503          	lw	a0,-308(s0)
80007ca4:	c1df90ef          	jal	ra,800018c0 <task_startup>
    task_startup(task74);
80007ca8:	ec842503          	lw	a0,-312(s0)
80007cac:	c15f90ef          	jal	ra,800018c0 <task_startup>
    task_startup(task75);
80007cb0:	ec442503          	lw	a0,-316(s0)
80007cb4:	c0df90ef          	jal	ra,800018c0 <task_startup>
    task_startup(task76);
80007cb8:	ec042503          	lw	a0,-320(s0)
80007cbc:	c05f90ef          	jal	ra,800018c0 <task_startup>
    task_startup(task77);
80007cc0:	ebc42503          	lw	a0,-324(s0)
80007cc4:	bfdf90ef          	jal	ra,800018c0 <task_startup>
    task_startup(task78);
80007cc8:	eb842503          	lw	a0,-328(s0)
80007ccc:	bf5f90ef          	jal	ra,800018c0 <task_startup>
    task_startup(task79);
80007cd0:	eb442503          	lw	a0,-332(s0)
80007cd4:	bedf90ef          	jal	ra,800018c0 <task_startup>
    task_startup(task80);
80007cd8:	eb042503          	lw	a0,-336(s0)
80007cdc:	be5f90ef          	jal	ra,800018c0 <task_startup>
    task_startup(task81);
80007ce0:	eac42503          	lw	a0,-340(s0)
80007ce4:	bddf90ef          	jal	ra,800018c0 <task_startup>
    task_startup(task82);
80007ce8:	ea842503          	lw	a0,-344(s0)
80007cec:	bd5f90ef          	jal	ra,800018c0 <task_startup>
    task_startup(task83);
80007cf0:	ea442503          	lw	a0,-348(s0)
80007cf4:	bcdf90ef          	jal	ra,800018c0 <task_startup>
    task_startup(task84);
80007cf8:	ea042503          	lw	a0,-352(s0)
80007cfc:	bc5f90ef          	jal	ra,800018c0 <task_startup>
    task_startup(task85);
80007d00:	e9c42503          	lw	a0,-356(s0)
80007d04:	bbdf90ef          	jal	ra,800018c0 <task_startup>
    task_startup(task86);
80007d08:	e9842503          	lw	a0,-360(s0)
80007d0c:	bb5f90ef          	jal	ra,800018c0 <task_startup>
    task_startup(task87);
80007d10:	e9442503          	lw	a0,-364(s0)
80007d14:	badf90ef          	jal	ra,800018c0 <task_startup>
    task_startup(task88);
80007d18:	e9042503          	lw	a0,-368(s0)
80007d1c:	ba5f90ef          	jal	ra,800018c0 <task_startup>
    task_startup(task89);
80007d20:	e8c42503          	lw	a0,-372(s0)
80007d24:	b9df90ef          	jal	ra,800018c0 <task_startup>
    task_startup(task90);
80007d28:	e8842503          	lw	a0,-376(s0)
80007d2c:	b95f90ef          	jal	ra,800018c0 <task_startup>
    task_startup(task91);
80007d30:	e8442503          	lw	a0,-380(s0)
80007d34:	b8df90ef          	jal	ra,800018c0 <task_startup>
    task_startup(task92);
80007d38:	e8042503          	lw	a0,-384(s0)
80007d3c:	b85f90ef          	jal	ra,800018c0 <task_startup>
    task_startup(task93);
80007d40:	e7c42503          	lw	a0,-388(s0)
80007d44:	b7df90ef          	jal	ra,800018c0 <task_startup>
    task_startup(task94);
80007d48:	e7842503          	lw	a0,-392(s0)
80007d4c:	b75f90ef          	jal	ra,800018c0 <task_startup>
    task_startup(task95);
80007d50:	e7442503          	lw	a0,-396(s0)
80007d54:	b6df90ef          	jal	ra,800018c0 <task_startup>
    task_startup(task96);
80007d58:	e7042503          	lw	a0,-400(s0)
80007d5c:	b65f90ef          	jal	ra,800018c0 <task_startup>
    task_startup(task97);
80007d60:	e6c42503          	lw	a0,-404(s0)
80007d64:	b5df90ef          	jal	ra,800018c0 <task_startup>
    task_startup(task98);
80007d68:	e6842503          	lw	a0,-408(s0)
80007d6c:	b55f90ef          	jal	ra,800018c0 <task_startup>
    task_startup(task99);
80007d70:	e6442503          	lw	a0,-412(s0)
80007d74:	b4df90ef          	jal	ra,800018c0 <task_startup>
    task_startup(task100);
80007d78:	e6042503          	lw	a0,-416(s0)
80007d7c:	b45f90ef          	jal	ra,800018c0 <task_startup>
    task_startup(task101);
80007d80:	e5c42503          	lw	a0,-420(s0)
80007d84:	b3df90ef          	jal	ra,800018c0 <task_startup>
    task_startup(task102);
80007d88:	e5842503          	lw	a0,-424(s0)
80007d8c:	b35f90ef          	jal	ra,800018c0 <task_startup>
    task_startup(task103);
80007d90:	e5442503          	lw	a0,-428(s0)
80007d94:	b2df90ef          	jal	ra,800018c0 <task_startup>
    task_startup(task104);
80007d98:	e5042503          	lw	a0,-432(s0)
80007d9c:	b25f90ef          	jal	ra,800018c0 <task_startup>
    task_startup(task105);
80007da0:	e4c42503          	lw	a0,-436(s0)
80007da4:	b1df90ef          	jal	ra,800018c0 <task_startup>
    task_startup(task106);
80007da8:	e4842503          	lw	a0,-440(s0)
80007dac:	b15f90ef          	jal	ra,800018c0 <task_startup>
    task_startup(task107);
80007db0:	e4442503          	lw	a0,-444(s0)
80007db4:	b0df90ef          	jal	ra,800018c0 <task_startup>
    task_startup(task108);
80007db8:	e4042503          	lw	a0,-448(s0)
80007dbc:	b05f90ef          	jal	ra,800018c0 <task_startup>
    task_startup(task109);
80007dc0:	e3c42503          	lw	a0,-452(s0)
80007dc4:	afdf90ef          	jal	ra,800018c0 <task_startup>
    task_startup(task110);
80007dc8:	e3842503          	lw	a0,-456(s0)
80007dcc:	af5f90ef          	jal	ra,800018c0 <task_startup>
    task_startup(task111);
80007dd0:	e3442503          	lw	a0,-460(s0)
80007dd4:	aedf90ef          	jal	ra,800018c0 <task_startup>
    task_startup(task112);
80007dd8:	e3042503          	lw	a0,-464(s0)
80007ddc:	ae5f90ef          	jal	ra,800018c0 <task_startup>
    task_startup(task113);
80007de0:	e2c42503          	lw	a0,-468(s0)
80007de4:	addf90ef          	jal	ra,800018c0 <task_startup>
    task_startup(task114);
80007de8:	e2842503          	lw	a0,-472(s0)
80007dec:	ad5f90ef          	jal	ra,800018c0 <task_startup>
    task_startup(task115);
80007df0:	e2442503          	lw	a0,-476(s0)
80007df4:	acdf90ef          	jal	ra,800018c0 <task_startup>
    task_startup(task116);
80007df8:	e2042503          	lw	a0,-480(s0)
80007dfc:	ac5f90ef          	jal	ra,800018c0 <task_startup>
    task_startup(task117);
80007e00:	e1c42503          	lw	a0,-484(s0)
80007e04:	abdf90ef          	jal	ra,800018c0 <task_startup>
    task_startup(task118);
80007e08:	e1842503          	lw	a0,-488(s0)
80007e0c:	ab5f90ef          	jal	ra,800018c0 <task_startup>
    task_startup(task119);
80007e10:	e1442503          	lw	a0,-492(s0)
80007e14:	aadf90ef          	jal	ra,800018c0 <task_startup>
    task_startup(task120);
80007e18:	e1042503          	lw	a0,-496(s0)
80007e1c:	aa5f90ef          	jal	ra,800018c0 <task_startup>
    task_startup(task121);
80007e20:	e0c42503          	lw	a0,-500(s0)
80007e24:	a9df90ef          	jal	ra,800018c0 <task_startup>
    task_startup(task122);
80007e28:	e0842503          	lw	a0,-504(s0)
80007e2c:	a95f90ef          	jal	ra,800018c0 <task_startup>
    task_startup(task123);
80007e30:	e0442503          	lw	a0,-508(s0)
80007e34:	a8df90ef          	jal	ra,800018c0 <task_startup>
    task_startup(task124);
80007e38:	e0042503          	lw	a0,-512(s0)
80007e3c:	a85f90ef          	jal	ra,800018c0 <task_startup>
    task_startup(task125);
80007e40:	dfc42503          	lw	a0,-516(s0)
80007e44:	a7df90ef          	jal	ra,800018c0 <task_startup>
    task_startup(task126);
80007e48:	df842503          	lw	a0,-520(s0)
80007e4c:	a75f90ef          	jal	ra,800018c0 <task_startup>
    task_startup(task127);
80007e50:	df442503          	lw	a0,-524(s0)
80007e54:	a6df90ef          	jal	ra,800018c0 <task_startup>
    task_startup(task128);
80007e58:	df042503          	lw	a0,-528(s0)
80007e5c:	a65f90ef          	jal	ra,800018c0 <task_startup>
    task_startup(task129);
80007e60:	dec42503          	lw	a0,-532(s0)
80007e64:	a5df90ef          	jal	ra,800018c0 <task_startup>
    task_startup(task130);
80007e68:	de842503          	lw	a0,-536(s0)
80007e6c:	a55f90ef          	jal	ra,800018c0 <task_startup>
    task_startup(task131);
80007e70:	de442503          	lw	a0,-540(s0)
80007e74:	a4df90ef          	jal	ra,800018c0 <task_startup>
    task_startup(task132);
80007e78:	de042503          	lw	a0,-544(s0)
80007e7c:	a45f90ef          	jal	ra,800018c0 <task_startup>
    task_startup(task133);
80007e80:	ddc42503          	lw	a0,-548(s0)
80007e84:	a3df90ef          	jal	ra,800018c0 <task_startup>
    task_startup(task134);
80007e88:	dd842503          	lw	a0,-552(s0)
80007e8c:	a35f90ef          	jal	ra,800018c0 <task_startup>
    task_startup(task135);
80007e90:	dd442503          	lw	a0,-556(s0)
80007e94:	a2df90ef          	jal	ra,800018c0 <task_startup>
    task_startup(task136);
80007e98:	dd042503          	lw	a0,-560(s0)
80007e9c:	a25f90ef          	jal	ra,800018c0 <task_startup>
    task_startup(task137);
80007ea0:	dcc42503          	lw	a0,-564(s0)
80007ea4:	a1df90ef          	jal	ra,800018c0 <task_startup>
    task_startup(task138);
80007ea8:	dc842503          	lw	a0,-568(s0)
80007eac:	a15f90ef          	jal	ra,800018c0 <task_startup>
    task_startup(task139);
80007eb0:	dc442503          	lw	a0,-572(s0)
80007eb4:	a0df90ef          	jal	ra,800018c0 <task_startup>
    task_startup(task140);
80007eb8:	dc042503          	lw	a0,-576(s0)
80007ebc:	a05f90ef          	jal	ra,800018c0 <task_startup>
    task_startup(task141);
80007ec0:	dbc42503          	lw	a0,-580(s0)
80007ec4:	9fdf90ef          	jal	ra,800018c0 <task_startup>
    task_startup(task142);
80007ec8:	db842503          	lw	a0,-584(s0)
80007ecc:	9f5f90ef          	jal	ra,800018c0 <task_startup>
    task_startup(task143);
80007ed0:	db442503          	lw	a0,-588(s0)
80007ed4:	9edf90ef          	jal	ra,800018c0 <task_startup>
    task_startup(task144);
80007ed8:	db042503          	lw	a0,-592(s0)
80007edc:	9e5f90ef          	jal	ra,800018c0 <task_startup>
    task_startup(task145);
80007ee0:	dac42503          	lw	a0,-596(s0)
80007ee4:	9ddf90ef          	jal	ra,800018c0 <task_startup>
    task_startup(task146);
80007ee8:	da842503          	lw	a0,-600(s0)
80007eec:	9d5f90ef          	jal	ra,800018c0 <task_startup>
    task_startup(task147);
80007ef0:	da442503          	lw	a0,-604(s0)
80007ef4:	9cdf90ef          	jal	ra,800018c0 <task_startup>
    task_startup(task148);
80007ef8:	da042503          	lw	a0,-608(s0)
80007efc:	9c5f90ef          	jal	ra,800018c0 <task_startup>
    task_startup(task149);
80007f00:	d9c42503          	lw	a0,-612(s0)
80007f04:	9bdf90ef          	jal	ra,800018c0 <task_startup>
    task_startup(task150);
80007f08:	d9842503          	lw	a0,-616(s0)
80007f0c:	9b5f90ef          	jal	ra,800018c0 <task_startup>
    task_startup(task151);
80007f10:	d9442503          	lw	a0,-620(s0)
80007f14:	9adf90ef          	jal	ra,800018c0 <task_startup>
    task_startup(task152);
80007f18:	d9042503          	lw	a0,-624(s0)
80007f1c:	9a5f90ef          	jal	ra,800018c0 <task_startup>
    task_startup(task153);
80007f20:	d8c42503          	lw	a0,-628(s0)
80007f24:	99df90ef          	jal	ra,800018c0 <task_startup>
    task_startup(task154);
80007f28:	d8842503          	lw	a0,-632(s0)
80007f2c:	995f90ef          	jal	ra,800018c0 <task_startup>
    task_startup(task155);
80007f30:	d8442503          	lw	a0,-636(s0)
80007f34:	98df90ef          	jal	ra,800018c0 <task_startup>
    task_startup(task156);
80007f38:	d8042503          	lw	a0,-640(s0)
80007f3c:	985f90ef          	jal	ra,800018c0 <task_startup>
    task_startup(task157);
80007f40:	d7c42503          	lw	a0,-644(s0)
80007f44:	97df90ef          	jal	ra,800018c0 <task_startup>
    task_startup(task158);
80007f48:	d7842503          	lw	a0,-648(s0)
80007f4c:	975f90ef          	jal	ra,800018c0 <task_startup>
    task_startup(task159);
80007f50:	d7442503          	lw	a0,-652(s0)
80007f54:	96df90ef          	jal	ra,800018c0 <task_startup>
    task_startup(task160);
80007f58:	d7042503          	lw	a0,-656(s0)
80007f5c:	965f90ef          	jal	ra,800018c0 <task_startup>
    task_startup(task161);
80007f60:	d6c42503          	lw	a0,-660(s0)
80007f64:	95df90ef          	jal	ra,800018c0 <task_startup>
    task_startup(task162);
80007f68:	d6842503          	lw	a0,-664(s0)
80007f6c:	955f90ef          	jal	ra,800018c0 <task_startup>
    task_startup(task163);
80007f70:	d6442503          	lw	a0,-668(s0)
80007f74:	94df90ef          	jal	ra,800018c0 <task_startup>
    task_startup(task164);
80007f78:	d6042503          	lw	a0,-672(s0)
80007f7c:	945f90ef          	jal	ra,800018c0 <task_startup>
    task_startup(task165);
80007f80:	d5c42503          	lw	a0,-676(s0)
80007f84:	93df90ef          	jal	ra,800018c0 <task_startup>
    task_startup(task166);
80007f88:	d5842503          	lw	a0,-680(s0)
80007f8c:	935f90ef          	jal	ra,800018c0 <task_startup>
    task_startup(task167);
80007f90:	d5442503          	lw	a0,-684(s0)
80007f94:	92df90ef          	jal	ra,800018c0 <task_startup>
    task_startup(task168);
80007f98:	d5042503          	lw	a0,-688(s0)
80007f9c:	925f90ef          	jal	ra,800018c0 <task_startup>
    task_startup(task169);
80007fa0:	d4c42503          	lw	a0,-692(s0)
80007fa4:	91df90ef          	jal	ra,800018c0 <task_startup>
    task_startup(task170);
80007fa8:	d4842503          	lw	a0,-696(s0)
80007fac:	915f90ef          	jal	ra,800018c0 <task_startup>
    task_startup(task171);
80007fb0:	d4442503          	lw	a0,-700(s0)
80007fb4:	90df90ef          	jal	ra,800018c0 <task_startup>
    task_startup(task172);
80007fb8:	d4042503          	lw	a0,-704(s0)
80007fbc:	905f90ef          	jal	ra,800018c0 <task_startup>
    task_startup(task173);
80007fc0:	d3c42503          	lw	a0,-708(s0)
80007fc4:	8fdf90ef          	jal	ra,800018c0 <task_startup>
    task_startup(task174);
80007fc8:	d3842503          	lw	a0,-712(s0)
80007fcc:	8f5f90ef          	jal	ra,800018c0 <task_startup>
    task_startup(task175);
80007fd0:	d3442503          	lw	a0,-716(s0)
80007fd4:	8edf90ef          	jal	ra,800018c0 <task_startup>
    task_startup(task176);
80007fd8:	d3042503          	lw	a0,-720(s0)
80007fdc:	8e5f90ef          	jal	ra,800018c0 <task_startup>
    task_startup(task177);
80007fe0:	d2c42503          	lw	a0,-724(s0)
80007fe4:	8ddf90ef          	jal	ra,800018c0 <task_startup>
    task_startup(task178);
80007fe8:	d2842503          	lw	a0,-728(s0)
80007fec:	8d5f90ef          	jal	ra,800018c0 <task_startup>
    task_startup(task179);
80007ff0:	d2442503          	lw	a0,-732(s0)
80007ff4:	8cdf90ef          	jal	ra,800018c0 <task_startup>
    task_startup(task180);
80007ff8:	d2042503          	lw	a0,-736(s0)
80007ffc:	8c5f90ef          	jal	ra,800018c0 <task_startup>
    task_startup(task181);
80008000:	d1c42503          	lw	a0,-740(s0)
80008004:	8bdf90ef          	jal	ra,800018c0 <task_startup>
    task_startup(task182);
80008008:	d1842503          	lw	a0,-744(s0)
8000800c:	8b5f90ef          	jal	ra,800018c0 <task_startup>
    task_startup(task183);
80008010:	d1442503          	lw	a0,-748(s0)
80008014:	8adf90ef          	jal	ra,800018c0 <task_startup>
    task_startup(task184);
80008018:	d1042503          	lw	a0,-752(s0)
8000801c:	8a5f90ef          	jal	ra,800018c0 <task_startup>
    task_startup(task185);
80008020:	d0c42503          	lw	a0,-756(s0)
80008024:	89df90ef          	jal	ra,800018c0 <task_startup>
    task_startup(task186);
80008028:	d0842503          	lw	a0,-760(s0)
8000802c:	895f90ef          	jal	ra,800018c0 <task_startup>
    task_startup(task187);
80008030:	d0442503          	lw	a0,-764(s0)
80008034:	88df90ef          	jal	ra,800018c0 <task_startup>
    task_startup(task188);
80008038:	d0042503          	lw	a0,-768(s0)
8000803c:	885f90ef          	jal	ra,800018c0 <task_startup>
    task_startup(task189);
80008040:	cfc42503          	lw	a0,-772(s0)
80008044:	87df90ef          	jal	ra,800018c0 <task_startup>
    task_startup(task190);
80008048:	cf842503          	lw	a0,-776(s0)
8000804c:	875f90ef          	jal	ra,800018c0 <task_startup>
    task_startup(task191);
80008050:	cf442503          	lw	a0,-780(s0)
80008054:	86df90ef          	jal	ra,800018c0 <task_startup>
    task_startup(task192);
80008058:	cf042503          	lw	a0,-784(s0)
8000805c:	865f90ef          	jal	ra,800018c0 <task_startup>
    task_startup(task193);
80008060:	cec42503          	lw	a0,-788(s0)
80008064:	85df90ef          	jal	ra,800018c0 <task_startup>
    task_startup(task194);
80008068:	ce842503          	lw	a0,-792(s0)
8000806c:	855f90ef          	jal	ra,800018c0 <task_startup>
    task_startup(task195);
80008070:	ce442503          	lw	a0,-796(s0)
80008074:	84df90ef          	jal	ra,800018c0 <task_startup>
    task_startup(task196);
80008078:	ce042503          	lw	a0,-800(s0)
8000807c:	845f90ef          	jal	ra,800018c0 <task_startup>
    task_startup(task197);
80008080:	cdc42503          	lw	a0,-804(s0)
80008084:	83df90ef          	jal	ra,800018c0 <task_startup>
    task_startup(task198);
80008088:	cd842503          	lw	a0,-808(s0)
8000808c:	835f90ef          	jal	ra,800018c0 <task_startup>
    task_startup(task199);
80008090:	cd442503          	lw	a0,-812(s0)
80008094:	82df90ef          	jal	ra,800018c0 <task_startup>
    task_startup(task200);
80008098:	cd042503          	lw	a0,-816(s0)
8000809c:	825f90ef          	jal	ra,800018c0 <task_startup>
    task_startup(task201);
800080a0:	ccc42503          	lw	a0,-820(s0)
800080a4:	81df90ef          	jal	ra,800018c0 <task_startup>
    task_startup(task202);
800080a8:	cc842503          	lw	a0,-824(s0)
800080ac:	815f90ef          	jal	ra,800018c0 <task_startup>
    task_startup(task203);
800080b0:	cc442503          	lw	a0,-828(s0)
800080b4:	80df90ef          	jal	ra,800018c0 <task_startup>
    task_startup(task204);
800080b8:	cc042503          	lw	a0,-832(s0)
800080bc:	805f90ef          	jal	ra,800018c0 <task_startup>
    task_startup(task205);
800080c0:	cbc42503          	lw	a0,-836(s0)
800080c4:	ffcf90ef          	jal	ra,800018c0 <task_startup>
    task_startup(task206);
800080c8:	cb842503          	lw	a0,-840(s0)
800080cc:	ff4f90ef          	jal	ra,800018c0 <task_startup>
    task_startup(task207);
800080d0:	cb442503          	lw	a0,-844(s0)
800080d4:	fecf90ef          	jal	ra,800018c0 <task_startup>
    task_startup(task208);
800080d8:	cb042503          	lw	a0,-848(s0)
800080dc:	fe4f90ef          	jal	ra,800018c0 <task_startup>
    task_startup(task209);
800080e0:	cac42503          	lw	a0,-852(s0)
800080e4:	fdcf90ef          	jal	ra,800018c0 <task_startup>
    task_startup(task210);
800080e8:	ca842503          	lw	a0,-856(s0)
800080ec:	fd4f90ef          	jal	ra,800018c0 <task_startup>
    task_startup(task211);
800080f0:	ca442503          	lw	a0,-860(s0)
800080f4:	fccf90ef          	jal	ra,800018c0 <task_startup>
    task_startup(task212);
800080f8:	ca042503          	lw	a0,-864(s0)
800080fc:	fc4f90ef          	jal	ra,800018c0 <task_startup>
    task_startup(task213);
80008100:	c9c42503          	lw	a0,-868(s0)
80008104:	fbcf90ef          	jal	ra,800018c0 <task_startup>
    task_startup(task214);
80008108:	c9842503          	lw	a0,-872(s0)
8000810c:	fb4f90ef          	jal	ra,800018c0 <task_startup>
    task_startup(task215);
80008110:	c9442503          	lw	a0,-876(s0)
80008114:	facf90ef          	jal	ra,800018c0 <task_startup>
    task_startup(task216);
80008118:	c9042503          	lw	a0,-880(s0)
8000811c:	fa4f90ef          	jal	ra,800018c0 <task_startup>
    task_startup(task217);
80008120:	c8c42503          	lw	a0,-884(s0)
80008124:	f9cf90ef          	jal	ra,800018c0 <task_startup>
    task_startup(task218);
80008128:	c8842503          	lw	a0,-888(s0)
8000812c:	f94f90ef          	jal	ra,800018c0 <task_startup>
    task_startup(task219);
80008130:	c8442503          	lw	a0,-892(s0)
80008134:	f8cf90ef          	jal	ra,800018c0 <task_startup>
    task_startup(task220);
80008138:	c8042503          	lw	a0,-896(s0)
8000813c:	f84f90ef          	jal	ra,800018c0 <task_startup>
    task_startup(task221);
80008140:	c7c42503          	lw	a0,-900(s0)
80008144:	f7cf90ef          	jal	ra,800018c0 <task_startup>
    task_startup(task222);
80008148:	c7842503          	lw	a0,-904(s0)
8000814c:	f74f90ef          	jal	ra,800018c0 <task_startup>
    task_startup(task223);
80008150:	c7442503          	lw	a0,-908(s0)
80008154:	f6cf90ef          	jal	ra,800018c0 <task_startup>
    task_startup(task224);
80008158:	c7042503          	lw	a0,-912(s0)
8000815c:	f64f90ef          	jal	ra,800018c0 <task_startup>
    task_startup(task225);
80008160:	c6c42503          	lw	a0,-916(s0)
80008164:	f5cf90ef          	jal	ra,800018c0 <task_startup>
    task_startup(task226);
80008168:	c6842503          	lw	a0,-920(s0)
8000816c:	f54f90ef          	jal	ra,800018c0 <task_startup>
    task_startup(task227);
80008170:	c6442503          	lw	a0,-924(s0)
80008174:	f4cf90ef          	jal	ra,800018c0 <task_startup>
    task_startup(task228);
80008178:	c6042503          	lw	a0,-928(s0)
8000817c:	f44f90ef          	jal	ra,800018c0 <task_startup>
    task_startup(task229);
80008180:	c5c42503          	lw	a0,-932(s0)
80008184:	f3cf90ef          	jal	ra,800018c0 <task_startup>
    task_startup(task230);
80008188:	c5842503          	lw	a0,-936(s0)
8000818c:	f34f90ef          	jal	ra,800018c0 <task_startup>
    task_startup(task231);
80008190:	c5442503          	lw	a0,-940(s0)
80008194:	f2cf90ef          	jal	ra,800018c0 <task_startup>
    task_startup(task232);
80008198:	c5042503          	lw	a0,-944(s0)
8000819c:	f24f90ef          	jal	ra,800018c0 <task_startup>
    task_startup(task233);
800081a0:	c4c42503          	lw	a0,-948(s0)
800081a4:	f1cf90ef          	jal	ra,800018c0 <task_startup>
    task_startup(task234);
800081a8:	c4842503          	lw	a0,-952(s0)
800081ac:	f14f90ef          	jal	ra,800018c0 <task_startup>
    task_startup(task235);
800081b0:	c4442503          	lw	a0,-956(s0)
800081b4:	f0cf90ef          	jal	ra,800018c0 <task_startup>
    task_startup(task236);
800081b8:	c4042503          	lw	a0,-960(s0)
800081bc:	f04f90ef          	jal	ra,800018c0 <task_startup>
    task_startup(task237);
800081c0:	c3c42503          	lw	a0,-964(s0)
800081c4:	efcf90ef          	jal	ra,800018c0 <task_startup>
    task_startup(task238);
800081c8:	c3842503          	lw	a0,-968(s0)
800081cc:	ef4f90ef          	jal	ra,800018c0 <task_startup>
    task_startup(task239);
800081d0:	c3442503          	lw	a0,-972(s0)
800081d4:	eecf90ef          	jal	ra,800018c0 <task_startup>
    task_startup(task240);
800081d8:	c3042503          	lw	a0,-976(s0)
800081dc:	ee4f90ef          	jal	ra,800018c0 <task_startup>
    task_startup(task241);
800081e0:	c2c42503          	lw	a0,-980(s0)
800081e4:	edcf90ef          	jal	ra,800018c0 <task_startup>
    task_startup(task242);
800081e8:	c2842503          	lw	a0,-984(s0)
800081ec:	ed4f90ef          	jal	ra,800018c0 <task_startup>
    task_startup(task243);
800081f0:	c2442503          	lw	a0,-988(s0)
800081f4:	eccf90ef          	jal	ra,800018c0 <task_startup>
    task_startup(task244);
800081f8:	c2042503          	lw	a0,-992(s0)
800081fc:	ec4f90ef          	jal	ra,800018c0 <task_startup>
    task_startup(task245);
80008200:	c1c42503          	lw	a0,-996(s0)
80008204:	ebcf90ef          	jal	ra,800018c0 <task_startup>
    task_startup(task246);
80008208:	c1842503          	lw	a0,-1000(s0)
8000820c:	eb4f90ef          	jal	ra,800018c0 <task_startup>
    task_startup(task247);
80008210:	c1442503          	lw	a0,-1004(s0)
80008214:	eacf90ef          	jal	ra,800018c0 <task_startup>
    task_startup(task248);
80008218:	c1042503          	lw	a0,-1008(s0)
8000821c:	ea4f90ef          	jal	ra,800018c0 <task_startup>
    task_startup(task249);
80008220:	c0c42503          	lw	a0,-1012(s0)
80008224:	e9cf90ef          	jal	ra,800018c0 <task_startup>
    task_startup(task250);
80008228:	c0842503          	lw	a0,-1016(s0)
8000822c:	e94f90ef          	jal	ra,800018c0 <task_startup>
    task_startup(task251);
80008230:	c0442503          	lw	a0,-1020(s0)
80008234:	e8cf90ef          	jal	ra,800018c0 <task_startup>
    task_startup(task252);
80008238:	c0042503          	lw	a0,-1024(s0)
8000823c:	e84f90ef          	jal	ra,800018c0 <task_startup>
    task_startup(task253);
80008240:	bfc42503          	lw	a0,-1028(s0)
80008244:	e7cf90ef          	jal	ra,800018c0 <task_startup>
    task_startup(task254);
80008248:	bf842503          	lw	a0,-1032(s0)
8000824c:	e74f90ef          	jal	ra,800018c0 <task_startup>
    task_startup(task255);
80008250:	bf442503          	lw	a0,-1036(s0)
80008254:	e6cf90ef          	jal	ra,800018c0 <task_startup>
    task_startup(task256);
80008258:	bf042503          	lw	a0,-1040(s0)
8000825c:	e64f90ef          	jal	ra,800018c0 <task_startup>
    task_startup(task257);
80008260:	bec42503          	lw	a0,-1044(s0)
80008264:	e5cf90ef          	jal	ra,800018c0 <task_startup>
    task_startup(task258);
80008268:	be842503          	lw	a0,-1048(s0)
8000826c:	e54f90ef          	jal	ra,800018c0 <task_startup>
    task_startup(task259);
80008270:	be442503          	lw	a0,-1052(s0)
80008274:	e4cf90ef          	jal	ra,800018c0 <task_startup>
    task_startup(task260);
80008278:	be042503          	lw	a0,-1056(s0)
8000827c:	e44f90ef          	jal	ra,800018c0 <task_startup>
    task_startup(task261);
80008280:	bdc42503          	lw	a0,-1060(s0)
80008284:	e3cf90ef          	jal	ra,800018c0 <task_startup>
    task_startup(task262);
80008288:	bd842503          	lw	a0,-1064(s0)
8000828c:	e34f90ef          	jal	ra,800018c0 <task_startup>
    task_startup(task263);
80008290:	bd442503          	lw	a0,-1068(s0)
80008294:	e2cf90ef          	jal	ra,800018c0 <task_startup>
    task_startup(task264);
80008298:	bd042503          	lw	a0,-1072(s0)
8000829c:	e24f90ef          	jal	ra,800018c0 <task_startup>
    task_startup(task265);
800082a0:	bcc42503          	lw	a0,-1076(s0)
800082a4:	e1cf90ef          	jal	ra,800018c0 <task_startup>
    task_startup(task266);
800082a8:	bc842503          	lw	a0,-1080(s0)
800082ac:	e14f90ef          	jal	ra,800018c0 <task_startup>
    task_startup(task267);
800082b0:	bc442503          	lw	a0,-1084(s0)
800082b4:	e0cf90ef          	jal	ra,800018c0 <task_startup>
    task_startup(task268);
800082b8:	bc042503          	lw	a0,-1088(s0)
800082bc:	e04f90ef          	jal	ra,800018c0 <task_startup>
    task_startup(task269);
800082c0:	bbc42503          	lw	a0,-1092(s0)
800082c4:	dfcf90ef          	jal	ra,800018c0 <task_startup>
    task_startup(task270);
800082c8:	bb842503          	lw	a0,-1096(s0)
800082cc:	df4f90ef          	jal	ra,800018c0 <task_startup>
    task_startup(task271);
800082d0:	bb442503          	lw	a0,-1100(s0)
800082d4:	decf90ef          	jal	ra,800018c0 <task_startup>
    task_startup(task272);
800082d8:	bb042503          	lw	a0,-1104(s0)
800082dc:	de4f90ef          	jal	ra,800018c0 <task_startup>
    task_startup(task273);
800082e0:	bac42503          	lw	a0,-1108(s0)
800082e4:	ddcf90ef          	jal	ra,800018c0 <task_startup>
    task_startup(task274);
800082e8:	ba842503          	lw	a0,-1112(s0)
800082ec:	dd4f90ef          	jal	ra,800018c0 <task_startup>
    task_startup(task275);
800082f0:	ba442503          	lw	a0,-1116(s0)
800082f4:	dccf90ef          	jal	ra,800018c0 <task_startup>
    task_startup(task276);
800082f8:	ba042503          	lw	a0,-1120(s0)
800082fc:	dc4f90ef          	jal	ra,800018c0 <task_startup>
    task_startup(task277);
80008300:	b9c42503          	lw	a0,-1124(s0)
80008304:	dbcf90ef          	jal	ra,800018c0 <task_startup>
    task_startup(task278);
80008308:	b9842503          	lw	a0,-1128(s0)
8000830c:	db4f90ef          	jal	ra,800018c0 <task_startup>
    task_startup(task279);
80008310:	b9442503          	lw	a0,-1132(s0)
80008314:	dacf90ef          	jal	ra,800018c0 <task_startup>
    task_startup(task280);
80008318:	b9042503          	lw	a0,-1136(s0)
8000831c:	da4f90ef          	jal	ra,800018c0 <task_startup>
80008320:	00000013          	nop
80008324:	46c12083          	lw	ra,1132(sp)
80008328:	46812403          	lw	s0,1128(sp)
8000832c:	47010113          	addi	sp,sp,1136
80008330:	00008067          	ret
